
obj/sha/main.elf:     file format elf32-tradlittlemips
obj/sha/main.elf


Disassembly of section .text:

80000000 <_ftext>:
_ftext():
80000000:	3c0a0040 	lui	t2,0x40
80000004:	408a6000 	mtc0	t2,c0_sr
80000008:	40806800 	mtc0	zero,c0_cause
8000000c:	3c1d8010 	lui	sp,0x8010
80000010:	27bd4fe0 	addiu	sp,sp,20448
80000014:	3c1c8001 	lui	gp,0x8001
80000018:	279ccff0 	addiu	gp,gp,-12304
8000001c:	041100dc 	bal	80000390 <shell>
80000020:	00000000 	nop

80000024 <loop>:
loop():
80000024:	08000009 	j	80000024 <loop>

80000028 <exit>:
exit():
80000028:	340900ff 	li	t1,0xff
8000002c:	3c018000 	lui	at,0x8000
80000030:	a0297ffc 	sb	t1,32764(at)
	...
80000380:	0c000bae 	jal	80002eb8 <exception>
80000384:	00000000 	nop
80000388:	0800000a 	j	80000028 <exit>
8000038c:	00000000 	nop

80000390 <shell>:
shell():
80000390:	27bdffd0 	addiu	sp,sp,-48
80000394:	afbf002c 	sw	ra,44(sp)
80000398:	afb30028 	sw	s3,40(sp)
8000039c:	afb20024 	sw	s2,36(sp)
800003a0:	afb10020 	sw	s1,32(sp)
800003a4:	0c000de8 	jal	800037a0 <get_count>
800003a8:	afb0001c 	sw	s0,28(sp)
800003ac:	0c000e19 	jal	80003864 <get_us>
800003b0:	00409825 	move	s3,v0
800003b4:	0c000118 	jal	80000460 <sha_driver>
800003b8:	00409025 	move	s2,v0
800003bc:	0c000de8 	jal	800037a0 <get_count>
800003c0:	00408825 	move	s1,v0
800003c4:	0c000e19 	jal	80003864 <get_us>
800003c8:	00408025 	move	s0,v0
800003cc:	00523023 	subu	a2,v0,s2
800003d0:	02132823 	subu	a1,s0,s3
800003d4:	afa60014 	sw	a2,20(sp)
800003d8:	16200011 	bnez	s1,80000420 <shell+0x90>
800003dc:	afa50010 	sw	a1,16(sp)
800003e0:	3c028000 	lui	v0,0x8000
800003e4:	0c000bc0 	jal	80002f00 <printf>
800003e8:	244439c0 	addiu	a0,v0,14784
800003ec:	8fa50010 	lw	a1,16(sp)
800003f0:	8fa60014 	lw	a2,20(sp)
800003f4:	8fbf002c 	lw	ra,44(sp)
800003f8:	8fb30028 	lw	s3,40(sp)
800003fc:	8fb20024 	lw	s2,36(sp)
80000400:	8fb10020 	lw	s1,32(sp)
80000404:	8fb0001c 	lw	s0,28(sp)
80000408:	3c038000 	lui	v1,0x8000
8000040c:	246439f0 	addiu	a0,v1,14832
80000410:	08000bc0 	j	80002f00 <printf>
80000414:	27bd0030 	addiu	sp,sp,48
	...
80000420:	3c048000 	lui	a0,0x8000
80000424:	0c000bc0 	jal	80002f00 <printf>
80000428:	248439d8 	addiu	a0,a0,14808
8000042c:	8fa60014 	lw	a2,20(sp)
80000430:	8fa50010 	lw	a1,16(sp)
80000434:	8fbf002c 	lw	ra,44(sp)
80000438:	8fb30028 	lw	s3,40(sp)
8000043c:	8fb20024 	lw	s2,36(sp)
80000440:	8fb10020 	lw	s1,32(sp)
80000444:	8fb0001c 	lw	s0,28(sp)
80000448:	3c038000 	lui	v1,0x8000
8000044c:	246439f0 	addiu	a0,v1,14832
80000450:	08000bc0 	j	80002f00 <printf>
80000454:	27bd0030 	addiu	sp,sp,48
	...

80000460 <sha_driver>:
sha_driver():
80000460:	8f848010 	lw	a0,-32752(gp)
80000464:	27bdff68 	addiu	sp,sp,-152
80000468:	afbf0094 	sw	ra,148(sp)
8000046c:	afb40090 	sw	s4,144(sp)
80000470:	afb3008c 	sw	s3,140(sp)
80000474:	afb10084 	sw	s1,132(sp)
80000478:	afb00080 	sw	s0,128(sp)
8000047c:	0c000c98 	jal	80003260 <fopen>
80000480:	afb20088 	sw	s2,136(sp)
80000484:	00402825 	move	a1,v0
80000488:	27a40010 	addiu	a0,sp,16
8000048c:	0c000498 	jal	80001260 <sha_stream>
80000490:	00408025 	move	s0,v0
80000494:	0c000b98 	jal	80002e60 <sha_print>
80000498:	27a40010 	addiu	a0,sp,16
8000049c:	3c021a11 	lui	v0,0x1a11
800004a0:	3c057a9c 	lui	a1,0x7a9c
800004a4:	3c07b21f 	lui	a3,0xb21f
800004a8:	3c09df19 	lui	t1,0xdf19
800004ac:	3c0b7bec 	lui	t3,0x7bec
800004b0:	02002025 	move	a0,s0
800004b4:	34438e18 	ori	v1,v0,0x8e18
800004b8:	34a6830b 	ori	a2,a1,0x830b
800004bc:	34e896f1 	ori	t0,a3,0x96f1
800004c0:	252a4b3f 	addiu	t2,t1,19263
800004c4:	256c7e97 	addiu	t4,t3,32407
800004c8:	3c138000 	lui	s3,0x8000
800004cc:	afa3006c 	sw	v1,108(sp)
800004d0:	afa60070 	sw	a2,112(sp)
800004d4:	afa80074 	sw	t0,116(sp)
800004d8:	afaa0078 	sw	t2,120(sp)
800004dc:	afac007c 	sw	t4,124(sp)
800004e0:	0c000ce5 	jal	80003394 <fclose>
800004e4:	27b00010 	addiu	s0,sp,16
800004e8:	27b1006c 	addiu	s1,sp,108
800004ec:	27b40024 	addiu	s4,sp,36
800004f0:	26733a08 	addiu	s3,s3,14856
800004f4:	8e320000 	lw	s2,0(s1)
800004f8:	8e050000 	lw	a1,0(s0)
800004fc:	02602025 	move	a0,s3
80000500:	0c000bc0 	jal	80002f00 <printf>
80000504:	02403025 	move	a2,s2
80000508:	8e040000 	lw	a0,0(s0)
8000050c:	00000000 	nop
80000510:	1644000f 	bne	s2,a0,80000550 <sha_driver+0xf0>
80000514:	26100004 	addiu	s0,s0,4
80000518:	1614fff6 	bne	s0,s4,800004f4 <sha_driver+0x94>
8000051c:	26310004 	addiu	s1,s1,4
80000520:	8fbf0094 	lw	ra,148(sp)
80000524:	8fb40090 	lw	s4,144(sp)
80000528:	8fb3008c 	lw	s3,140(sp)
8000052c:	8fb20088 	lw	s2,136(sp)
80000530:	8fb10084 	lw	s1,132(sp)
80000534:	8fb00080 	lw	s0,128(sp)
80000538:	00001025 	move	v0,zero
8000053c:	03e00008 	jr	ra
80000540:	27bd0098 	addiu	sp,sp,152
	...
80000550:	8fbf0094 	lw	ra,148(sp)
80000554:	8fb40090 	lw	s4,144(sp)
80000558:	8fb3008c 	lw	s3,140(sp)
8000055c:	8fb20088 	lw	s2,136(sp)
80000560:	8fb10084 	lw	s1,132(sp)
80000564:	8fb00080 	lw	s0,128(sp)
80000568:	24020001 	li	v0,1
8000056c:	03e00008 	jr	ra
80000570:	27bd0098 	addiu	sp,sp,152
	...

80000580 <sha_transform>:
sha_transform():
80000580:	27bdfea0 	addiu	sp,sp,-352
80000584:	8c98003c 	lw	t8,60(a0)
80000588:	8c99001c 	lw	t9,28(a0)
8000058c:	8c880024 	lw	t0,36(a0)
80000590:	8c870028 	lw	a3,40(a0)
80000594:	8c86002c 	lw	a2,44(a0)
80000598:	8c850030 	lw	a1,48(a0)
8000059c:	8c830034 	lw	v1,52(a0)
800005a0:	8c820038 	lw	v0,56(a0)
800005a4:	8c8b0050 	lw	t3,80(a0)
800005a8:	8c8a0054 	lw	t2,84(a0)
800005ac:	8c890058 	lw	t1,88(a0)
800005b0:	8c8e0044 	lw	t6,68(a0)
800005b4:	8c8d0048 	lw	t5,72(a0)
800005b8:	8c8c004c 	lw	t4,76(a0)
800005bc:	afb00148 	sw	s0,328(sp)
800005c0:	8c8f0040 	lw	t7,64(a0)
800005c4:	8c900020 	lw	s0,32(a0)
800005c8:	afb40158 	sw	s4,344(sp)
800005cc:	afb90000 	sw	t9,0(sp)
800005d0:	afb80020 	sw	t8,32(sp)
800005d4:	afb5015c 	sw	s5,348(sp)
800005d8:	afb30154 	sw	s3,340(sp)
800005dc:	afb20150 	sw	s2,336(sp)
800005e0:	afb1014c 	sw	s1,332(sp)
800005e4:	afb00004 	sw	s0,4(sp)
800005e8:	afa80008 	sw	t0,8(sp)
800005ec:	afa7000c 	sw	a3,12(sp)
800005f0:	afa60010 	sw	a2,16(sp)
800005f4:	afa50014 	sw	a1,20(sp)
800005f8:	afa30018 	sw	v1,24(sp)
800005fc:	afa2001c 	sw	v0,28(sp)
80000600:	24180010 	li	t8,16
80000604:	afaf0024 	sw	t7,36(sp)
80000608:	2419004f 	li	t9,79
8000060c:	afae0028 	sw	t6,40(sp)
80000610:	afad002c 	sw	t5,44(sp)
80000614:	afac0030 	sw	t4,48(sp)
80000618:	afab0034 	sw	t3,52(sp)
8000061c:	afaa0038 	sw	t2,56(sp)
80000620:	afa9003c 	sw	t1,60(sp)
80000624:	afbd0140 	sw	sp,320(sp)
80000628:	03a0a025 	move	s4,sp
8000062c:	8e8f0020 	lw	t7,32(s4)
80000630:	8e900028 	lw	s0,40(s4)
80000634:	8e930000 	lw	s3,0(s4)
80000638:	8e920004 	lw	s2,4(s4)
8000063c:	8e910024 	lw	s1,36(s4)
80000640:	010b4026 	xor	t0,t0,t3
80000644:	00c93026 	xor	a2,a2,t1
80000648:	26950018 	addiu	s5,s4,24
8000064c:	268e0024 	addiu	t6,s4,36
80000650:	8e940008 	lw	s4,8(s4)
80000654:	00ea3826 	xor	a3,a3,t2
80000658:	010f4826 	xor	t1,t0,t7
8000065c:	00d05826 	xor	t3,a2,s0
80000660:	01336826 	xor	t5,t1,s3
80000664:	00f15026 	xor	t2,a3,s1
80000668:	01749826 	xor	s3,t3,s4
8000066c:	8fb40140 	lw	s4,320(sp)
80000670:	01526026 	xor	t4,t2,s2
80000674:	00539026 	xor	s2,v0,s3
80000678:	27020003 	addiu	v0,t8,3
8000067c:	00ad2826 	xor	a1,a1,t5
80000680:	ae8d0040 	sw	t5,64(s4)
80000684:	006c1826 	xor	v1,v1,t4
80000688:	ae8c0044 	sw	t4,68(s4)
8000068c:	ae930048 	sw	s3,72(s4)
80000690:	1059003b 	beq	v0,t9,80000780 <sha_transform+0x200>
80000694:	268d000c 	addiu	t5,s4,12
80000698:	8daa0020 	lw	t2,32(t5)
8000069c:	8da20024 	lw	v0,36(t5)
800006a0:	8da90028 	lw	t1,40(t5)
800006a4:	8e93000c 	lw	s3,12(s4)
800006a8:	8da80004 	lw	t0,4(t5)
800006ac:	8dac0008 	lw	t4,8(t5)
800006b0:	02499026 	xor	s2,s2,t1
800006b4:	00aa2826 	xor	a1,a1,t2
800006b8:	00621826 	xor	v1,v1,v0
800006bc:	00b32826 	xor	a1,a1,s3
800006c0:	00681826 	xor	v1,v1,t0
800006c4:	024c6026 	xor	t4,s2,t4
800006c8:	ada50040 	sw	a1,64(t5)
800006cc:	ada30044 	sw	v1,68(t5)
800006d0:	adac0048 	sw	t4,72(t5)
800006d4:	8fad0140 	lw	t5,320(sp)
800006d8:	8ea80020 	lw	t0,32(s5)
800006dc:	8ea70024 	lw	a3,36(s5)
800006e0:	8ea60028 	lw	a2,40(s5)
800006e4:	8db40018 	lw	s4,24(t5)
800006e8:	8eb30004 	lw	s3,4(s5)
800006ec:	8eb20008 	lw	s2,8(s5)
800006f0:	02238826 	xor	s1,s1,v1
800006f4:	020c8026 	xor	s0,s0,t4
800006f8:	01e57826 	xor	t7,t7,a1
800006fc:	01e82826 	xor	a1,t7,t0
80000700:	02275826 	xor	t3,s1,a3
80000704:	02061826 	xor	v1,s0,a2
80000708:	00b46826 	xor	t5,a1,s4
8000070c:	00726026 	xor	t4,v1,s2
80000710:	0173a026 	xor	s4,t3,s3
80000714:	aead0040 	sw	t5,64(s5)
80000718:	aeb40044 	sw	s4,68(s5)
8000071c:	aeac0048 	sw	t4,72(s5)
80000720:	8dc30024 	lw	v1,36(t6)
80000724:	00541026 	xor	v0,v0,s4
80000728:	8fb50140 	lw	s5,320(sp)
8000072c:	8dc50020 	lw	a1,32(t6)
80000730:	00438826 	xor	s1,v0,v1
80000734:	8dc20028 	lw	v0,40(t6)
80000738:	8eb30024 	lw	s3,36(s5)
8000073c:	014d5026 	xor	t2,t2,t5
80000740:	8dd20004 	lw	s2,4(t6)
80000744:	8dd00008 	lw	s0,8(t6)
80000748:	012c4826 	xor	t1,t1,t4
8000074c:	01457826 	xor	t7,t2,a1
80000750:	01226826 	xor	t5,t1,v0
80000754:	01f35826 	xor	t3,t7,s3
80000758:	02325026 	xor	t2,s1,s2
8000075c:	01b04826 	xor	t1,t5,s0
80000760:	adcb0040 	sw	t3,64(t6)
80000764:	adca0044 	sw	t2,68(t6)
80000768:	adc90048 	sw	t1,72(t6)
8000076c:	8fae0140 	lw	t6,320(sp)
80000770:	2718000c 	addiu	t8,t8,12
80000774:	25d40030 	addiu	s4,t6,48
80000778:	1000ffac 	b	8000062c <sha_transform+0xac>
8000077c:	afb40140 	sw	s4,320(sp)
80000780:	8c8a0000 	lw	t2,0(a0)
80000784:	8c8c000c 	lw	t4,12(a0)
80000788:	8c8d0008 	lw	t5,8(a0)
8000078c:	8c8b0004 	lw	t3,4(a0)
80000790:	8fb00130 	lw	s0,304(sp)
80000794:	000ac140 	sll	t8,t2,0x5
80000798:	000acec2 	srl	t9,t2,0x1b
8000079c:	3c0e5a82 	lui	t6,0x5a82
800007a0:	8fa5011c 	lw	a1,284(sp)
800007a4:	03197825 	or	t7,t8,t9
800007a8:	8fb50000 	lw	s5,0(sp)
800007ac:	8fa20104 	lw	v0,260(sp)
800007b0:	25c97999 	addiu	t1,t6,31129
800007b4:	01ac8826 	xor	s1,t5,t4
800007b8:	02051826 	xor	v1,s0,a1
800007bc:	8fa600fc 	lw	a2,252(sp)
800007c0:	01e99821 	addu	s3,t7,t1
800007c4:	022b9024 	and	s2,s1,t3
800007c8:	0062a026 	xor	s4,v1,v0
800007cc:	024c3826 	xor	a3,s2,t4
800007d0:	8c8e0010 	lw	t6,16(a0)
800007d4:	02754021 	addu	t0,s3,s5
800007d8:	0286c026 	xor	t8,s4,a2
800007dc:	0107a821 	addu	s5,t0,a3
800007e0:	000b7882 	srl	t7,t3,0x2
800007e4:	000b8f80 	sll	s1,t3,0x1e
800007e8:	afb8013c 	sw	t8,316(sp)
800007ec:	27b00050 	addiu	s0,sp,80
800007f0:	27b80004 	addiu	t8,sp,4
800007f4:	01401825 	move	v1,t2
800007f8:	01803025 	move	a2,t4
800007fc:	01a0c825 	move	t9,t5
80000800:	022f3825 	or	a3,s1,t7
80000804:	10000038 	b	800008e8 <sha_transform+0x368>
80000808:	02ae1021 	addu	v0,s5,t6
8000080c:	00000000 	nop
80000810:	8f080004 	lw	t0,4(t8)
80000814:	8f020008 	lw	v0,8(t8)
80000818:	00c82821 	addu	a1,a2,t0
8000081c:	00b18821 	addu	s1,a1,s1
80000820:	0239c821 	addu	t9,s1,t9
80000824:	00197940 	sll	t7,t9,0x5
80000828:	001936c2 	srl	a2,t9,0x1b
8000082c:	01e64025 	or	t0,t7,a2
80000830:	01092821 	addu	a1,t0,t1
80000834:	00a21021 	addu	v0,a1,v0
80000838:	0054a021 	addu	s4,v0,s4
8000083c:	02873821 	addu	a3,s4,a3
80000840:	00078940 	sll	s1,a3,0x5
80000844:	00077ec2 	srl	t7,a3,0x1b
80000848:	022f4025 	or	t0,s1,t7
8000084c:	8f06000c 	lw	a2,12(t8)
80000850:	01092821 	addu	a1,t0,t1
80000854:	02799824 	and	s3,s3,t9
80000858:	00a61021 	addu	v0,a1,a2
8000085c:	0275a026 	xor	s4,s3,s5
80000860:	00548821 	addu	s1,v0,s4
80000864:	02237821 	addu	t7,s1,v1
80000868:	00191882 	srl	v1,t9,0x2
8000086c:	0019cf80 	sll	t9,t9,0x1e
80000870:	03233025 	or	a2,t9,v1
80000874:	000f4140 	sll	t0,t7,0x5
80000878:	000f9ec2 	srl	s3,t7,0x1b
8000087c:	0113a025 	or	s4,t0,s3
80000880:	8f050010 	lw	a1,16(t8)
80000884:	00d21026 	xor	v0,a2,s2
80000888:	0047c824 	and	t9,v0,a3
8000088c:	02898821 	addu	s1,s4,t1
80000890:	02251821 	addu	v1,s1,a1
80000894:	03324026 	xor	t0,t9,s2
80000898:	00689821 	addu	s3,v1,t0
8000089c:	02751821 	addu	v1,s3,s5
800008a0:	0007a882 	srl	s5,a3,0x2
800008a4:	00073f80 	sll	a3,a3,0x1e
800008a8:	00f5c825 	or	t9,a3,s5
800008ac:	00032940 	sll	a1,v1,0x5
800008b0:	0003a6c2 	srl	s4,v1,0x1b
800008b4:	00b41025 	or	v0,a1,s4
800008b8:	8f110014 	lw	s1,20(t8)
800008bc:	03264026 	xor	t0,t9,a2
800008c0:	00499821 	addu	s3,v0,t1
800008c4:	010fa824 	and	s5,t0,t7
800008c8:	02712821 	addu	a1,s3,s1
800008cc:	02a63826 	xor	a3,s5,a2
800008d0:	00a7a021 	addu	s4,a1,a3
800008d4:	000f8882 	srl	s1,t7,0x2
800008d8:	000f7f80 	sll	t7,t7,0x1e
800008dc:	27180018 	addiu	t8,t8,24
800008e0:	01f13825 	or	a3,t7,s1
800008e4:	02921021 	addu	v0,s4,s2
800008e8:	00029882 	srl	s3,v0,0x2
800008ec:	00022f80 	sll	a1,v0,0x1e
800008f0:	00b3a825 	or	s5,a1,s3
800008f4:	00027ec2 	srl	t7,v0,0x1b
800008f8:	00022940 	sll	a1,v0,0x5
800008fc:	00af9825 	or	s3,a1,t7
80000900:	8f120000 	lw	s2,0(t8)
80000904:	00f9a026 	xor	s4,a3,t9
80000908:	0283a024 	and	s4,s4,v1
8000090c:	02697821 	addu	t7,s3,t1
80000910:	02994026 	xor	t0,s4,t9
80000914:	01f29021 	addu	s2,t7,s2
80000918:	02489821 	addu	s3,s2,t0
8000091c:	02667821 	addu	t7,s3,a2
80000920:	00038882 	srl	s1,v1,0x2
80000924:	00031f80 	sll	v1,v1,0x1e
80000928:	00711825 	or	v1,v1,s1
8000092c:	000f3140 	sll	a2,t7,0x5
80000930:	000f2ec2 	srl	a1,t7,0x1b
80000934:	00c5a025 	or	s4,a2,a1
80000938:	00678826 	xor	s1,v1,a3
8000093c:	000f9882 	srl	s3,t7,0x2
80000940:	02222824 	and	a1,s1,v0
80000944:	02893021 	addu	a2,s4,t1
80000948:	000f9780 	sll	s2,t7,0x1e
8000094c:	02a3a026 	xor	s4,s5,v1
80000950:	02539025 	or	s2,s2,s3
80000954:	00a78826 	xor	s1,a1,a3
80000958:	27080004 	addiu	t0,t8,4
8000095c:	028f2824 	and	a1,s4,t7
80000960:	02559826 	xor	s3,s2,s5
80000964:	1608ffaa 	bne	s0,t0,80000810 <sha_transform+0x290>
80000968:	00a3a026 	xor	s4,a1,v1
8000096c:	27a90050 	addiu	t1,sp,80
80000970:	27b200a0 	addiu	s2,sp,160
80000974:	02498023 	subu	s0,s2,t1
80000978:	2618fffc 	addiu	t8,s0,-4
8000097c:	0018a882 	srl	s5,t8,0x2
80000980:	3c086ed9 	lui	t0,0x6ed9
80000984:	32a60003 	andi	a2,s5,0x3
80000988:	10c00058 	beqz	a2,80000aec <sha_transform+0x56c>
8000098c:	3511eba1 	ori	s1,t0,0xeba1
80000990:	000f9940 	sll	s3,t7,0x5
80000994:	000fa6c2 	srl	s4,t7,0x1b
80000998:	00432826 	xor	a1,v0,v1
8000099c:	02748025 	or	s0,s3,s4
800009a0:	00a7c026 	xor	t8,a1,a3
800009a4:	8d290000 	lw	t1,0(t1)
800009a8:	0211a821 	addu	s5,s0,s1
800009ac:	03154021 	addu	t0,t8,s5
800009b0:	01099821 	addu	s3,t0,t1
800009b4:	0279a021 	addu	s4,s3,t9
800009b8:	00022882 	srl	a1,v0,0x2
800009bc:	00028780 	sll	s0,v0,0x1e
800009c0:	24180001 	li	t8,1
800009c4:	01e01025 	move	v0,t7
800009c8:	00e0c825 	move	t9,a3
800009cc:	27a90054 	addiu	t1,sp,84
800009d0:	00603825 	move	a3,v1
800009d4:	02807825 	move	t7,s4
800009d8:	10d80044 	beq	a2,t8,80000aec <sha_transform+0x56c>
800009dc:	02051825 	or	v1,s0,a1
800009e0:	24150002 	li	s5,2
800009e4:	10d50012 	beq	a2,s5,80000a30 <sha_transform+0x4b0>
800009e8:	001446c2 	srl	t0,s4,0x1b
800009ec:	00143140 	sll	a2,s4,0x5
800009f0:	00439826 	xor	s3,v0,v1
800009f4:	00c8a025 	or	s4,a2,t0
800009f8:	02672826 	xor	a1,s3,a3
800009fc:	8d290000 	lw	t1,0(t1)
80000a00:	02918021 	addu	s0,s4,s1
80000a04:	00b0c021 	addu	t8,a1,s0
80000a08:	0309a821 	addu	s5,t8,t1
80000a0c:	02b99821 	addu	s3,s5,t9
80000a10:	00023082 	srl	a2,v0,0x2
80000a14:	00024780 	sll	t0,v0,0x1e
80000a18:	00e0c825 	move	t9,a3
80000a1c:	01e01025 	move	v0,t7
80000a20:	00603825 	move	a3,v1
80000a24:	27a90058 	addiu	t1,sp,88
80000a28:	01061825 	or	v1,t0,a2
80000a2c:	02607825 	move	t7,s3
80000a30:	000fa140 	sll	s4,t7,0x5
80000a34:	000f86c2 	srl	s0,t7,0x1b
80000a38:	00432826 	xor	a1,v0,v1
80000a3c:	0290c025 	or	t8,s4,s0
80000a40:	00a79826 	xor	s3,a1,a3
80000a44:	8d350000 	lw	s5,0(t1)
80000a48:	03113021 	addu	a2,t8,s1
80000a4c:	02664021 	addu	t0,s3,a2
80000a50:	0115a021 	addu	s4,t0,s5
80000a54:	02998021 	addu	s0,s4,t9
80000a58:	00022882 	srl	a1,v0,0x2
80000a5c:	0002c780 	sll	t8,v0,0x1e
80000a60:	00e0c825 	move	t9,a3
80000a64:	01e01025 	move	v0,t7
80000a68:	00603825 	move	a3,v1
80000a6c:	25290004 	addiu	t1,t1,4
80000a70:	03051825 	or	v1,t8,a1
80000a74:	1000001d 	b	80000aec <sha_transform+0x56c>
80000a78:	02007825 	move	t7,s0
80000a7c:	00000000 	nop
80000a80:	8d340004 	lw	s4,4(t1)
80000a84:	8d280008 	lw	t0,8(t1)
80000a88:	00d43021 	addu	a2,a2,s4
80000a8c:	00c7a821 	addu	s5,a2,a3
80000a90:	00151140 	sll	v0,s5,0x5
80000a94:	00153ec2 	srl	a3,s5,0x1b
80000a98:	00472825 	or	a1,v0,a3
80000a9c:	00b17821 	addu	t7,a1,s1
80000aa0:	032fc821 	addu	t9,t9,t7
80000aa4:	0328a021 	addu	s4,t9,t0
80000aa8:	02831021 	addu	v0,s4,v1
80000aac:	00021ec2 	srl	v1,v0,0x1b
80000ab0:	00024140 	sll	t0,v0,0x5
80000ab4:	02b33026 	xor	a2,s5,s3
80000ab8:	01033825 	or	a3,t0,v1
80000abc:	00d0c826 	xor	t9,a2,s0
80000ac0:	00f17821 	addu	t7,a3,s1
80000ac4:	8d25000c 	lw	a1,12(t1)
80000ac8:	032fa021 	addu	s4,t9,t7
80000acc:	00151882 	srl	v1,s5,0x2
80000ad0:	02853021 	addu	a2,s4,a1
80000ad4:	0015af80 	sll	s5,s5,0x1e
80000ad8:	25290010 	addiu	t1,t1,16
80000adc:	0200c825 	move	t9,s0
80000ae0:	02603825 	move	a3,s3
80000ae4:	02a31825 	or	v1,s5,v1
80000ae8:	00d87821 	addu	t7,a2,t8
80000aec:	000fa882 	srl	s5,t7,0x2
80000af0:	000f9f80 	sll	s3,t7,0x1e
80000af4:	000f4140 	sll	t0,t7,0x5
80000af8:	000f36c2 	srl	a2,t7,0x1b
80000afc:	02758025 	or	s0,s3,s5
80000b00:	0043a026 	xor	s4,v0,v1
80000b04:	0106a825 	or	s5,t0,a2
80000b08:	02b13021 	addu	a2,s5,s1
80000b0c:	8d330000 	lw	s3,0(t1)
80000b10:	02874026 	xor	t0,s4,a3
80000b14:	0106a021 	addu	s4,t0,a2
80000b18:	02932821 	addu	a1,s4,s3
80000b1c:	00b9a021 	addu	s4,a1,t9
80000b20:	0002c082 	srl	t8,v0,0x2
80000b24:	00021780 	sll	v0,v0,0x1e
80000b28:	0014c940 	sll	t9,s4,0x5
80000b2c:	00149ec2 	srl	s3,s4,0x1b
80000b30:	0058c025 	or	t8,v0,t8
80000b34:	03334025 	or	t0,t9,s3
80000b38:	01f81026 	xor	v0,t7,t8
80000b3c:	01112821 	addu	a1,t0,s1
80000b40:	00143082 	srl	a2,s4,0x2
80000b44:	0290c826 	xor	t9,s4,s0
80000b48:	00149f80 	sll	s3,s4,0x1e
80000b4c:	00434026 	xor	t0,v0,v1
80000b50:	25350004 	addiu	s5,t1,4
80000b54:	02669825 	or	s3,s3,a2
80000b58:	0338c826 	xor	t9,t9,t8
80000b5c:	1655ffc8 	bne	s2,s5,80000a80 <sha_transform+0x500>
80000b60:	01053021 	addu	a2,t0,a1
80000b64:	00149140 	sll	s2,s4,0x5
80000b68:	00148ec2 	srl	s1,s4,0x1b
80000b6c:	3c108f1b 	lui	s0,0x8f1b
80000b70:	03034825 	or	t1,t8,v1
80000b74:	02512825 	or	a1,s2,s1
80000b78:	8fa800a0 	lw	t0,160(sp)
80000b7c:	3610bcdc 	ori	s0,s0,0xbcdc
80000b80:	03039824 	and	s3,t8,v1
80000b84:	012f1024 	and	v0,t1,t7
80000b88:	00b03021 	addu	a2,a1,s0
80000b8c:	0053c825 	or	t9,v0,s3
80000b90:	00c8a821 	addu	s5,a2,t0
80000b94:	03359021 	addu	s2,t9,s5
80000b98:	000f4882 	srl	t1,t7,0x2
80000b9c:	000f9f80 	sll	s3,t7,0x1e
80000ba0:	02472821 	addu	a1,s2,a3
80000ba4:	02807825 	move	t7,s4
80000ba8:	00603825 	move	a3,v1
80000bac:	27b100f0 	addiu	s1,sp,240
80000bb0:	03001825 	move	v1,t8
80000bb4:	27b900a4 	addiu	t9,sp,164
80000bb8:	1000000a 	b	80000be4 <sha_transform+0x664>
80000bbc:	0269c025 	or	t8,s3,t1
80000bc0:	8f350004 	lw	s5,4(t9)
80000bc4:	03003825 	move	a3,t8
80000bc8:	0275c021 	addu	t8,s3,s5
80000bcc:	00582821 	addu	a1,v0,t8
80000bd0:	00a32821 	addu	a1,a1,v1
80000bd4:	27390008 	addiu	t9,t9,8
80000bd8:	00c07825 	move	t7,a2
80000bdc:	01001825 	move	v1,t0
80000be0:	0132c025 	or	t8,t1,s2
80000be4:	00054140 	sll	t0,a1,0x5
80000be8:	000516c2 	srl	v0,a1,0x1b
80000bec:	01029825 	or	s3,t0,v0
80000bf0:	0303a025 	or	s4,t8,v1
80000bf4:	8f260000 	lw	a2,0(t9)
80000bf8:	028f4824 	and	t1,s4,t7
80000bfc:	02701021 	addu	v0,s3,s0
80000c00:	03034024 	and	t0,t8,v1
80000c04:	0128a025 	or	s4,t1,t0
80000c08:	00463021 	addu	a2,v0,a2
80000c0c:	02869821 	addu	s3,s4,a2
80000c10:	02673021 	addu	a2,s3,a3
80000c14:	000fa882 	srl	s5,t7,0x2
80000c18:	00064140 	sll	t0,a2,0x5
80000c1c:	000f7f80 	sll	t7,t7,0x1e
80000c20:	00063ec2 	srl	a3,a2,0x1b
80000c24:	01071025 	or	v0,t0,a3
80000c28:	01f54025 	or	t0,t7,s5
80000c2c:	0118a825 	or	s5,t0,t8
80000c30:	02a57824 	and	t7,s5,a1
80000c34:	01183824 	and	a3,t0,t8
80000c38:	27340004 	addiu	s4,t9,4
80000c3c:	00509821 	addu	s3,v0,s0
80000c40:	00059082 	srl	s2,a1,0x2
80000c44:	00054f80 	sll	t1,a1,0x1e
80000c48:	1634ffdd 	bne	s1,s4,80000bc0 <sha_transform+0x640>
80000c4c:	01e71025 	or	v0,t7,a3
80000c50:	27a900f0 	addiu	t1,sp,240
80000c54:	27a70140 	addiu	a3,sp,320
80000c58:	00e98823 	subu	s1,a3,t1
80000c5c:	2630fffc 	addiu	s0,s1,-4
80000c60:	0010c882 	srl	t9,s0,0x2
80000c64:	3c12ca62 	lui	s2,0xca62
80000c68:	33330003 	andi	s3,t9,0x3
80000c6c:	12600057 	beqz	s3,80000dcc <sha_transform+0x84c>
80000c70:	3650c1d6 	ori	s0,s2,0xc1d6
80000c74:	0006a940 	sll	s5,a2,0x5
80000c78:	00067ec2 	srl	t7,a2,0x1b
80000c7c:	00a81026 	xor	v0,a1,t0
80000c80:	02afa025 	or	s4,s5,t7
80000c84:	8d310000 	lw	s1,0(t1)
80000c88:	0058c826 	xor	t9,v0,t8
80000c8c:	02904821 	addu	t1,s4,s0
80000c90:	03299021 	addu	s2,t9,t1
80000c94:	0251a821 	addu	s5,s2,s1
80000c98:	02a37821 	addu	t7,s5,v1
80000c9c:	00051082 	srl	v0,a1,0x2
80000ca0:	0005a780 	sll	s4,a1,0x1e
80000ca4:	24110001 	li	s1,1
80000ca8:	00c02825 	move	a1,a2
80000cac:	03001825 	move	v1,t8
80000cb0:	27a900f4 	addiu	t1,sp,244
80000cb4:	0100c025 	move	t8,t0
80000cb8:	01e03025 	move	a2,t7
80000cbc:	12710043 	beq	s3,s1,80000dcc <sha_transform+0x84c>
80000cc0:	02824025 	or	t0,s4,v0
80000cc4:	24190002 	li	t9,2
80000cc8:	12790012 	beq	s3,t9,80000d14 <sha_transform+0x794>
80000ccc:	000f9940 	sll	s3,t7,0x5
80000cd0:	000f96c2 	srl	s2,t7,0x1b
80000cd4:	00a8a826 	xor	s5,a1,t0
80000cd8:	02727825 	or	t7,s3,s2
80000cdc:	02b81026 	xor	v0,s5,t8
80000ce0:	8d340000 	lw	s4,0(t1)
80000ce4:	01f04821 	addu	t1,t7,s0
80000ce8:	00498821 	addu	s1,v0,t1
80000cec:	0234c821 	addu	t9,s1,s4
80000cf0:	03239821 	addu	s3,t9,v1
80000cf4:	00059082 	srl	s2,a1,0x2
80000cf8:	0005af80 	sll	s5,a1,0x1e
80000cfc:	03001825 	move	v1,t8
80000d00:	00c02825 	move	a1,a2
80000d04:	0100c025 	move	t8,t0
80000d08:	27a900f8 	addiu	t1,sp,248
80000d0c:	02b24025 	or	t0,s5,s2
80000d10:	02603025 	move	a2,s3
80000d14:	00067940 	sll	t7,a2,0x5
80000d18:	0006a6c2 	srl	s4,a2,0x1b
80000d1c:	00a81026 	xor	v0,a1,t0
80000d20:	01f48825 	or	s1,t7,s4
80000d24:	00589826 	xor	s3,v0,t8
80000d28:	8d390000 	lw	t9,0(t1)
80000d2c:	02309021 	addu	s2,s1,s0
80000d30:	0272a821 	addu	s5,s3,s2
80000d34:	02b97821 	addu	t7,s5,t9
80000d38:	01e3a021 	addu	s4,t7,v1
80000d3c:	00051082 	srl	v0,a1,0x2
80000d40:	00058f80 	sll	s1,a1,0x1e
80000d44:	03001825 	move	v1,t8
80000d48:	00c02825 	move	a1,a2
80000d4c:	0100c025 	move	t8,t0
80000d50:	25290004 	addiu	t1,t1,4
80000d54:	02224025 	or	t0,s1,v0
80000d58:	1000001c 	b	80000dcc <sha_transform+0x84c>
80000d5c:	02803025 	move	a2,s4
80000d60:	8d260004 	lw	a2,4(t1)
80000d64:	8d230008 	lw	v1,8(t1)
80000d68:	00467821 	addu	t7,v0,a2
80000d6c:	01f8c021 	addu	t8,t7,t8
80000d70:	00182940 	sll	a1,t8,0x5
80000d74:	00188ec2 	srl	s1,t8,0x1b
80000d78:	00b11025 	or	v0,a1,s1
80000d7c:	00509821 	addu	s3,v0,s0
80000d80:	0293a021 	addu	s4,s4,s3
80000d84:	02833021 	addu	a2,s4,v1
80000d88:	00c82821 	addu	a1,a2,t0
80000d8c:	00054140 	sll	t0,a1,0x5
80000d90:	00051ec2 	srl	v1,a1,0x1b
80000d94:	01031025 	or	v0,t0,v1
80000d98:	03128826 	xor	s1,t8,s2
80000d9c:	8d2f000c 	lw	t7,12(t1)
80000da0:	02359826 	xor	s3,s1,s5
80000da4:	0050a021 	addu	s4,v0,s0
80000da8:	02743021 	addu	a2,s3,s4
80000dac:	00181082 	srl	v0,t8,0x2
80000db0:	00184780 	sll	t0,t8,0x1e
80000db4:	00cf8821 	addu	s1,a2,t7
80000db8:	25290010 	addiu	t1,t1,16
80000dbc:	02a01825 	move	v1,s5
80000dc0:	0240c025 	move	t8,s2
80000dc4:	01024025 	or	t0,t0,v0
80000dc8:	02393021 	addu	a2,s1,t9
80000dcc:	0006c882 	srl	t9,a2,0x2
80000dd0:	00069f80 	sll	s3,a2,0x1e
80000dd4:	00068940 	sll	s1,a2,0x5
80000dd8:	00067ec2 	srl	t7,a2,0x1b
80000ddc:	0279a825 	or	s5,s3,t9
80000de0:	00a8a026 	xor	s4,a1,t0
80000de4:	022fc825 	or	t9,s1,t7
80000de8:	03307821 	addu	t7,t9,s0
80000dec:	02988826 	xor	s1,s4,t8
80000df0:	8d330000 	lw	s3,0(t1)
80000df4:	022f9021 	addu	s2,s1,t7
80000df8:	0005a780 	sll	s4,a1,0x1e
80000dfc:	0005c882 	srl	t9,a1,0x2
80000e00:	02532821 	addu	a1,s2,s3
80000e04:	00a31821 	addu	v1,a1,v1
80000e08:	00031140 	sll	v0,v1,0x5
80000e0c:	00038ec2 	srl	s1,v1,0x1b
80000e10:	0299c825 	or	t9,s4,t9
80000e14:	00517825 	or	t7,v0,s1
80000e18:	00d9a026 	xor	s4,a2,t9
80000e1c:	00031082 	srl	v0,v1,0x2
80000e20:	02888826 	xor	s1,s4,t0
80000e24:	01f07821 	addu	t7,t7,s0
80000e28:	00752826 	xor	a1,v1,s5
80000e2c:	00039780 	sll	s2,v1,0x1e
80000e30:	25330004 	addiu	s3,t1,4
80000e34:	02429025 	or	s2,s2,v0
80000e38:	00b9a026 	xor	s4,a1,t9
80000e3c:	14f3ffc8 	bne	a3,s3,80000d60 <sha_transform+0x7e0>
80000e40:	022f1021 	addu	v0,s1,t7
80000e44:	01435021 	addu	t2,t2,v1
80000e48:	01665821 	addu	t3,t3,a2
80000e4c:	01b96821 	addu	t5,t5,t9
80000e50:	01886021 	addu	t4,t4,t0
80000e54:	01d87021 	addu	t6,t6,t8
80000e58:	8fb5015c 	lw	s5,348(sp)
80000e5c:	8fb40158 	lw	s4,344(sp)
80000e60:	8fb30154 	lw	s3,340(sp)
80000e64:	8fb20150 	lw	s2,336(sp)
80000e68:	8fb1014c 	lw	s1,332(sp)
80000e6c:	8fb00148 	lw	s0,328(sp)
80000e70:	ac8a0000 	sw	t2,0(a0)
80000e74:	ac8b0004 	sw	t3,4(a0)
80000e78:	ac8d0008 	sw	t5,8(a0)
80000e7c:	ac8c000c 	sw	t4,12(a0)
80000e80:	ac8e0010 	sw	t6,16(a0)
80000e84:	03e00008 	jr	ra
80000e88:	27bd0160 	addiu	sp,sp,352
80000e8c:	00000000 	nop

80000e90 <sha_init>:
sha_init():
80000e90:	3c026745 	lui	v0,0x6745
80000e94:	3c05efcd 	lui	a1,0xefcd
80000e98:	3c0798ba 	lui	a3,0x98ba
80000e9c:	3c091032 	lui	t1,0x1032
80000ea0:	3c0bc3d2 	lui	t3,0xc3d2
80000ea4:	24432301 	addiu	v1,v0,8961
80000ea8:	34a6ab89 	ori	a2,a1,0xab89
80000eac:	34e8dcfe 	ori	t0,a3,0xdcfe
80000eb0:	252a5476 	addiu	t2,t1,21622
80000eb4:	356ce1f0 	ori	t4,t3,0xe1f0
80000eb8:	ac830000 	sw	v1,0(a0)
80000ebc:	ac860004 	sw	a2,4(a0)
80000ec0:	ac880008 	sw	t0,8(a0)
80000ec4:	ac8a000c 	sw	t2,12(a0)
80000ec8:	ac8c0010 	sw	t4,16(a0)
80000ecc:	ac800014 	sw	zero,20(a0)
80000ed0:	03e00008 	jr	ra
80000ed4:	ac800018 	sw	zero,24(a0)
	...

80000ee0 <sha_update>:
sha_update():
80000ee0:	8c830014 	lw	v1,20(a0)
80000ee4:	000610c0 	sll	v0,a2,0x3
80000ee8:	00434021 	addu	t0,v0,v1
80000eec:	27bdffd0 	addiu	sp,sp,-48
80000ef0:	0103482b 	sltu	t1,t0,v1
80000ef4:	8c870018 	lw	a3,24(a0)
80000ef8:	afb30020 	sw	s3,32(sp)
80000efc:	afb10018 	sw	s1,24(sp)
80000f00:	afb00014 	sw	s0,20(sp)
80000f04:	afbf002c 	sw	ra,44(sp)
80000f08:	afb50028 	sw	s5,40(sp)
80000f0c:	afb40024 	sw	s4,36(sp)
80000f10:	afb2001c 	sw	s2,28(sp)
80000f14:	00808825 	move	s1,a0
80000f18:	00c09825 	move	s3,a2
80000f1c:	11200002 	beqz	t1,80000f28 <sha_update+0x48>
80000f20:	00a08025 	move	s0,a1
80000f24:	24e70001 	addiu	a3,a3,1
80000f28:	00132742 	srl	a0,s3,0x1d
80000f2c:	00872821 	addu	a1,a0,a3
80000f30:	2a620040 	slti	v0,s3,64
80000f34:	ae280014 	sw	t0,20(s1)
80000f38:	ae250018 	sw	a1,24(s1)
80000f3c:	1440008c 	bnez	v0,80001170 <sha_update+0x290>
80000f40:	2632001c 	addiu	s2,s1,28
80000f44:	2673ffc0 	addiu	s3,s3,-64
80000f48:	0013a182 	srl	s4,s3,0x6
80000f4c:	26860001 	addiu	a2,s4,1
80000f50:	00065980 	sll	t3,a2,0x6
80000f54:	256cffc0 	addiu	t4,t3,-64
80000f58:	000c6982 	srl	t5,t4,0x6
80000f5c:	25ae0001 	addiu	t6,t5,1
80000f60:	31cf0007 	andi	t7,t6,0x7
80000f64:	11e0003a 	beqz	t7,80001050 <sha_update+0x170>
80000f68:	020ba821 	addu	s5,s0,t3
80000f6c:	24180001 	li	t8,1
80000f70:	11f8002e 	beq	t7,t8,8000102c <sha_update+0x14c>
80000f74:	24190002 	li	t9,2
80000f78:	11f90025 	beq	t7,t9,80001010 <sha_update+0x130>
80000f7c:	241f0003 	li	ra,3
80000f80:	11ff001c 	beq	t7,ra,80000ff4 <sha_update+0x114>
80000f84:	24030004 	li	v1,4
80000f88:	11e30013 	beq	t7,v1,80000fd8 <sha_update+0xf8>
80000f8c:	24080005 	li	t0,5
80000f90:	11e8000a 	beq	t7,t0,80000fbc <sha_update+0xdc>
80000f94:	24090006 	li	t1,6
80000f98:	15e9006d 	bne	t7,t1,80001150 <sha_update+0x270>
80000f9c:	02002825 	move	a1,s0
80000fa0:	02002825 	move	a1,s0
80000fa4:	24060040 	li	a2,64
80000fa8:	0c000da7 	jal	8000369c <memcpy>
80000fac:	02402025 	move	a0,s2
80000fb0:	0c000160 	jal	80000580 <sha_transform>
80000fb4:	02202025 	move	a0,s1
80000fb8:	26100040 	addiu	s0,s0,64
80000fbc:	02002825 	move	a1,s0
80000fc0:	24060040 	li	a2,64
80000fc4:	0c000da7 	jal	8000369c <memcpy>
80000fc8:	02402025 	move	a0,s2
80000fcc:	0c000160 	jal	80000580 <sha_transform>
80000fd0:	02202025 	move	a0,s1
80000fd4:	26100040 	addiu	s0,s0,64
80000fd8:	02002825 	move	a1,s0
80000fdc:	24060040 	li	a2,64
80000fe0:	0c000da7 	jal	8000369c <memcpy>
80000fe4:	02402025 	move	a0,s2
80000fe8:	0c000160 	jal	80000580 <sha_transform>
80000fec:	02202025 	move	a0,s1
80000ff0:	26100040 	addiu	s0,s0,64
80000ff4:	02002825 	move	a1,s0
80000ff8:	24060040 	li	a2,64
80000ffc:	0c000da7 	jal	8000369c <memcpy>
80001000:	02402025 	move	a0,s2
80001004:	0c000160 	jal	80000580 <sha_transform>
80001008:	02202025 	move	a0,s1
8000100c:	26100040 	addiu	s0,s0,64
80001010:	02002825 	move	a1,s0
80001014:	24060040 	li	a2,64
80001018:	0c000da7 	jal	8000369c <memcpy>
8000101c:	02402025 	move	a0,s2
80001020:	0c000160 	jal	80000580 <sha_transform>
80001024:	02202025 	move	a0,s1
80001028:	26100040 	addiu	s0,s0,64
8000102c:	02002825 	move	a1,s0
80001030:	02402025 	move	a0,s2
80001034:	0c000da7 	jal	8000369c <memcpy>
80001038:	24060040 	li	a2,64
8000103c:	26100040 	addiu	s0,s0,64
80001040:	0c000160 	jal	80000580 <sha_transform>
80001044:	02202025 	move	a0,s1
80001048:	12150034 	beq	s0,s5,8000111c <sha_update+0x23c>
8000104c:	00000000 	nop
80001050:	02002825 	move	a1,s0
80001054:	24060040 	li	a2,64
80001058:	0c000da7 	jal	8000369c <memcpy>
8000105c:	02402025 	move	a0,s2
80001060:	0c000160 	jal	80000580 <sha_transform>
80001064:	02202025 	move	a0,s1
80001068:	26050040 	addiu	a1,s0,64
8000106c:	24060040 	li	a2,64
80001070:	0c000da7 	jal	8000369c <memcpy>
80001074:	02402025 	move	a0,s2
80001078:	0c000160 	jal	80000580 <sha_transform>
8000107c:	02202025 	move	a0,s1
80001080:	26050080 	addiu	a1,s0,128
80001084:	24060040 	li	a2,64
80001088:	0c000da7 	jal	8000369c <memcpy>
8000108c:	02402025 	move	a0,s2
80001090:	0c000160 	jal	80000580 <sha_transform>
80001094:	02202025 	move	a0,s1
80001098:	260500c0 	addiu	a1,s0,192
8000109c:	24060040 	li	a2,64
800010a0:	0c000da7 	jal	8000369c <memcpy>
800010a4:	02402025 	move	a0,s2
800010a8:	0c000160 	jal	80000580 <sha_transform>
800010ac:	02202025 	move	a0,s1
800010b0:	26050100 	addiu	a1,s0,256
800010b4:	24060040 	li	a2,64
800010b8:	0c000da7 	jal	8000369c <memcpy>
800010bc:	02402025 	move	a0,s2
800010c0:	0c000160 	jal	80000580 <sha_transform>
800010c4:	02202025 	move	a0,s1
800010c8:	26050140 	addiu	a1,s0,320
800010cc:	24060040 	li	a2,64
800010d0:	0c000da7 	jal	8000369c <memcpy>
800010d4:	02402025 	move	a0,s2
800010d8:	0c000160 	jal	80000580 <sha_transform>
800010dc:	02202025 	move	a0,s1
800010e0:	26050180 	addiu	a1,s0,384
800010e4:	24060040 	li	a2,64
800010e8:	0c000da7 	jal	8000369c <memcpy>
800010ec:	02402025 	move	a0,s2
800010f0:	0c000160 	jal	80000580 <sha_transform>
800010f4:	02202025 	move	a0,s1
800010f8:	260501c0 	addiu	a1,s0,448
800010fc:	02402025 	move	a0,s2
80001100:	0c000da7 	jal	8000369c <memcpy>
80001104:	24060040 	li	a2,64
80001108:	26100200 	addiu	s0,s0,512
8000110c:	0c000160 	jal	80000580 <sha_transform>
80001110:	02202025 	move	a0,s1
80001114:	1615ffce 	bne	s0,s5,80001050 <sha_update+0x170>
80001118:	00000000 	nop
8000111c:	00148980 	sll	s1,s4,0x6
80001120:	02713023 	subu	a2,s3,s1
80001124:	8fbf002c 	lw	ra,44(sp)
80001128:	8fb40024 	lw	s4,36(sp)
8000112c:	8fb30020 	lw	s3,32(sp)
80001130:	8fb10018 	lw	s1,24(sp)
80001134:	8fb00014 	lw	s0,20(sp)
80001138:	02a02825 	move	a1,s5
8000113c:	02402025 	move	a0,s2
80001140:	8fb50028 	lw	s5,40(sp)
80001144:	8fb2001c 	lw	s2,28(sp)
80001148:	08000da7 	j	8000369c <memcpy>
8000114c:	27bd0030 	addiu	sp,sp,48
80001150:	24060040 	li	a2,64
80001154:	0c000da7 	jal	8000369c <memcpy>
80001158:	02402025 	move	a0,s2
8000115c:	0c000160 	jal	80000580 <sha_transform>
80001160:	02202025 	move	a0,s1
80001164:	1000ff8e 	b	80000fa0 <sha_update+0xc0>
80001168:	26100040 	addiu	s0,s0,64
8000116c:	00000000 	nop
80001170:	1000ffec 	b	80001124 <sha_update+0x244>
80001174:	0200a825 	move	s5,s0
	...

80001180 <sha_final>:
sha_final():
80001180:	27bdffd8 	addiu	sp,sp,-40
80001184:	afb2001c 	sw	s2,28(sp)
80001188:	8c920014 	lw	s2,20(a0)
8000118c:	afb10018 	sw	s1,24(sp)
80001190:	001210c2 	srl	v0,s2,0x3
80001194:	3045003f 	andi	a1,v0,0x3f
80001198:	2491001c 	addiu	s1,a0,28
8000119c:	24a30001 	addiu	v1,a1,1
800011a0:	02253821 	addu	a3,s1,a1
800011a4:	2406ff80 	li	a2,-128
800011a8:	28680039 	slti	t0,v1,57
800011ac:	afb30020 	sw	s3,32(sp)
800011b0:	afb00014 	sw	s0,20(sp)
800011b4:	8c930018 	lw	s3,24(a0)
800011b8:	afbf0024 	sw	ra,36(sp)
800011bc:	00808025 	move	s0,a0
800011c0:	a0e60000 	sb	a2,0(a3)
800011c4:	15000016 	bnez	t0,80001220 <sha_final+0xa0>
800011c8:	02232021 	addu	a0,s1,v1
800011cc:	240a0040 	li	t2,64
800011d0:	01433023 	subu	a2,t2,v1
800011d4:	0c000d9e 	jal	80003678 <memset>
800011d8:	00002825 	move	a1,zero
800011dc:	0c000160 	jal	80000580 <sha_transform>
800011e0:	02002025 	move	a0,s0
800011e4:	02202025 	move	a0,s1
800011e8:	24060038 	li	a2,56
800011ec:	0c000d9e 	jal	80003678 <memset>
800011f0:	00002825 	move	a1,zero
800011f4:	ae130054 	sw	s3,84(s0)
800011f8:	ae120058 	sw	s2,88(s0)
800011fc:	8fbf0024 	lw	ra,36(sp)
80001200:	8fb30020 	lw	s3,32(sp)
80001204:	8fb2001c 	lw	s2,28(sp)
80001208:	8fb10018 	lw	s1,24(sp)
8000120c:	02002025 	move	a0,s0
80001210:	8fb00014 	lw	s0,20(sp)
80001214:	08000160 	j	80000580 <sha_transform>
80001218:	27bd0028 	addiu	sp,sp,40
8000121c:	00000000 	nop
80001220:	24090038 	li	t1,56
80001224:	01233023 	subu	a2,t1,v1
80001228:	0c000d9e 	jal	80003678 <memset>
8000122c:	00002825 	move	a1,zero
80001230:	ae130054 	sw	s3,84(s0)
80001234:	ae120058 	sw	s2,88(s0)
80001238:	8fbf0024 	lw	ra,36(sp)
8000123c:	8fb30020 	lw	s3,32(sp)
80001240:	8fb2001c 	lw	s2,28(sp)
80001244:	8fb10018 	lw	s1,24(sp)
80001248:	02002025 	move	a0,s0
8000124c:	8fb00014 	lw	s0,20(sp)
80001250:	08000160 	j	80000580 <sha_transform>
80001254:	27bd0028 	addiu	sp,sp,40
	...

80001260 <sha_stream>:
sha_stream():
80001260:	27bdfc70 	addiu	sp,sp,-912
80001264:	afb60380 	sw	s6,896(sp)
80001268:	0080b025 	move	s6,a0
8000126c:	8ca40000 	lw	a0,0(a1)
80001270:	afbf038c 	sw	ra,908(sp)
80001274:	afb5037c 	sw	s5,892(sp)
80001278:	afb40378 	sw	s4,888(sp)
8000127c:	afb1036c 	sw	s1,876(sp)
80001280:	afb00368 	sw	s0,872(sp)
80001284:	afa50394 	sw	a1,916(sp)
80001288:	afbe0388 	sw	s8,904(sp)
8000128c:	afb70384 	sw	s7,900(sp)
80001290:	afb30374 	sw	s3,884(sp)
80001294:	0c000d24 	jal	80003490 <strlen>
80001298:	afb20370 	sw	s2,880(sp)
8000129c:	3c048000 	lui	a0,0x8000
800012a0:	00402825 	move	a1,v0
800012a4:	0c000bc0 	jal	80002f00 <printf>
800012a8:	24844218 	addiu	a0,a0,16920
800012ac:	3c026745 	lui	v0,0x6745
800012b0:	3c05efcd 	lui	a1,0xefcd
800012b4:	3c0798ba 	lui	a3,0x98ba
800012b8:	3c091032 	lui	t1,0x1032
800012bc:	3c0bc3d2 	lui	t3,0xc3d2
800012c0:	34a6ab89 	ori	a2,a1,0xab89
800012c4:	34e8dcfe 	ori	t0,a3,0xdcfe
800012c8:	24432301 	addiu	v1,v0,8961
800012cc:	252a5476 	addiu	t2,t1,21622
800012d0:	356ce1f0 	ori	t4,t3,0xe1f0
800012d4:	3c0e8000 	lui	t6,0x8000
800012d8:	8fa70394 	lw	a3,916(sp)
800012dc:	aec60004 	sw	a2,4(s6)
800012e0:	26cd001c 	addiu	t5,s6,28
800012e4:	25cf43f0 	addiu	t7,t6,17392
800012e8:	aec30000 	sw	v1,0(s6)
800012ec:	aec80008 	sw	t0,8(s6)
800012f0:	aeca000c 	sw	t2,12(s6)
800012f4:	aecc0010 	sw	t4,16(s6)
800012f8:	aec00014 	sw	zero,20(s6)
800012fc:	aec00018 	sw	zero,24(s6)
80001300:	24060200 	li	a2,512
80001304:	24050001 	li	a1,1
80001308:	27a40010 	addiu	a0,sp,16
8000130c:	afad0358 	sw	t5,856(sp)
80001310:	afaf0364 	sw	t7,868(sp)
80001314:	0c000cb2 	jal	800032c8 <fread>
80001318:	3c105a82 	lui	s0,0x5a82
8000131c:	27b50210 	addiu	s5,sp,528
80001320:	26147999 	addiu	s4,s0,31129
80001324:	1840017d 	blez	v0,8000191c <sha_stream+0x6bc>
80001328:	00408825 	move	s1,v0
8000132c:	8fa40364 	lw	a0,868(sp)
80001330:	0c000bc0 	jal	80002f00 <printf>
80001334:	02202825 	move	a1,s1
80001338:	8ed00014 	lw	s0,20(s6)
8000133c:	001178c0 	sll	t7,s1,0x3
80001340:	01f07021 	addu	t6,t7,s0
80001344:	01d0302b 	sltu	a2,t6,s0
80001348:	14c002fd 	bnez	a2,80001f40 <sha_stream+0xce0>
8000134c:	00112742 	srl	a0,s1,0x1d
80001350:	8ede0018 	lw	s8,24(s6)
80001354:	00000000 	nop
80001358:	009e9821 	addu	s3,a0,s8
8000135c:	2a220040 	slti	v0,s1,64
80001360:	aece0014 	sw	t6,20(s6)
80001364:	144002fe 	bnez	v0,80001f60 <sha_stream+0xd00>
80001368:	aed30018 	sw	s3,24(s6)
8000136c:	2631ffc0 	addiu	s1,s1,-64
80001370:	00116182 	srl	t4,s1,0x6
80001374:	25970001 	addiu	s7,t4,1
80001378:	27a90010 	addiu	t1,sp,16
8000137c:	00179180 	sll	s2,s7,0x6
80001380:	01324021 	addu	t0,t1,s2
80001384:	3c196ed9 	lui	t9,0x6ed9
80001388:	3c0b8f1b 	lui	t3,0x8f1b
8000138c:	3c07ca62 	lui	a3,0xca62
80001390:	afb10360 	sw	s1,864(sp)
80001394:	afac035c 	sw	t4,860(sp)
80001398:	afa80354 	sw	t0,852(sp)
8000139c:	afa90350 	sw	t1,848(sp)
800013a0:	3731eba1 	ori	s1,t9,0xeba1
800013a4:	3570bcdc 	ori	s0,t3,0xbcdc
800013a8:	34fec1d6 	ori	s8,a3,0xc1d6
800013ac:	8fa50350 	lw	a1,848(sp)
800013b0:	8fa40358 	lw	a0,856(sp)
800013b4:	0c000da7 	jal	8000369c <memcpy>
800013b8:	24060040 	li	a2,64
800013bc:	8ecf001c 	lw	t7,28(s6)
800013c0:	8ec5004c 	lw	a1,76(s6)
800013c4:	8ecd0020 	lw	t5,32(s6)
800013c8:	8ec40024 	lw	a0,36(s6)
800013cc:	8ec30028 	lw	v1,40(s6)
800013d0:	8ec2002c 	lw	v0,44(s6)
800013d4:	8eca0030 	lw	t2,48(s6)
800013d8:	8ec80034 	lw	t0,52(s6)
800013dc:	8ec60038 	lw	a2,56(s6)
800013e0:	8ece003c 	lw	t6,60(s6)
800013e4:	8ed80040 	lw	t8,64(s6)
800013e8:	8ecc0044 	lw	t4,68(s6)
800013ec:	8ec90048 	lw	t1,72(s6)
800013f0:	8ed70050 	lw	s7,80(s6)
800013f4:	8ed30054 	lw	s3,84(s6)
800013f8:	8ed20058 	lw	s2,88(s6)
800013fc:	afaf0210 	sw	t7,528(sp)
80001400:	afa50240 	sw	a1,576(sp)
80001404:	afad0214 	sw	t5,532(sp)
80001408:	afa40218 	sw	a0,536(sp)
8000140c:	afa3021c 	sw	v1,540(sp)
80001410:	afa20220 	sw	v0,544(sp)
80001414:	afaa0224 	sw	t2,548(sp)
80001418:	afa80228 	sw	t0,552(sp)
8000141c:	afa6022c 	sw	a2,556(sp)
80001420:	afae0230 	sw	t6,560(sp)
80001424:	afb80234 	sw	t8,564(sp)
80001428:	afac0238 	sw	t4,568(sp)
8000142c:	afa9023c 	sw	t1,572(sp)
80001430:	afb70244 	sw	s7,580(sp)
80001434:	afb30248 	sw	s3,584(sp)
80001438:	afb2024c 	sw	s2,588(sp)
8000143c:	02a02825 	move	a1,s5
80001440:	1000003b 	b	80001530 <sha_stream+0x2d0>
80001444:	240f0010 	li	t7,16
	...
80001450:	8cb7000c 	lw	s7,12(a1)
80001454:	8cff0020 	lw	ra,32(a3)
80001458:	8cf90024 	lw	t9,36(a3)
8000145c:	8ced0028 	lw	t5,40(a3)
80001460:	8cf30004 	lw	s3,4(a3)
80001464:	8cf20008 	lw	s2,8(a3)
80001468:	03f7b826 	xor	s7,ra,s7
8000146c:	03339826 	xor	s3,t9,s3
80001470:	01b29026 	xor	s2,t5,s2
80001474:	02e42026 	xor	a0,s7,a0
80001478:	02631826 	xor	v1,s3,v1
8000147c:	02421026 	xor	v0,s2,v0
80001480:	008a5026 	xor	t2,a0,t2
80001484:	00684026 	xor	t0,v1,t0
80001488:	00463026 	xor	a2,v0,a2
8000148c:	acea0040 	sw	t2,64(a3)
80001490:	ace80044 	sw	t0,68(a3)
80001494:	ace60048 	sw	a2,72(a3)
80001498:	8ca70018 	lw	a3,24(a1)
8000149c:	8d730004 	lw	s3,4(t3)
800014a0:	8d720008 	lw	s2,8(t3)
800014a4:	8d640020 	lw	a0,32(t3)
800014a8:	8d630024 	lw	v1,36(t3)
800014ac:	8d620028 	lw	v0,40(t3)
800014b0:	0087b826 	xor	s7,a0,a3
800014b4:	00733826 	xor	a3,v1,s3
800014b8:	00529826 	xor	s3,v0,s2
800014bc:	02ea5026 	xor	t2,s7,t2
800014c0:	00e84026 	xor	t0,a3,t0
800014c4:	02663026 	xor	a2,s3,a2
800014c8:	0158c026 	xor	t8,t2,t8
800014cc:	010e7026 	xor	t6,t0,t6
800014d0:	00cc6026 	xor	t4,a2,t4
800014d4:	ad780040 	sw	t8,64(t3)
800014d8:	ad6e0044 	sw	t6,68(t3)
800014dc:	ad6c0048 	sw	t4,72(t3)
800014e0:	8cab0024 	lw	t3,36(a1)
800014e4:	8d320004 	lw	s2,4(t1)
800014e8:	8d2a0020 	lw	t2,32(t1)
800014ec:	8d280024 	lw	t0,36(t1)
800014f0:	014bb826 	xor	s7,t2,t3
800014f4:	01123826 	xor	a3,t0,s2
800014f8:	02f89826 	xor	s3,s7,t8
800014fc:	00ee3026 	xor	a2,a3,t6
80001500:	027fb826 	xor	s7,s3,ra
80001504:	00d99826 	xor	s3,a2,t9
80001508:	8d3f0008 	lw	ra,8(t1)
8000150c:	8d260028 	lw	a2,40(t1)
80001510:	ad370040 	sw	s7,64(t1)
80001514:	00dfc826 	xor	t9,a2,ra
80001518:	032cc026 	xor	t8,t9,t4
8000151c:	030d9026 	xor	s2,t8,t5
80001520:	ad330044 	sw	s3,68(t1)
80001524:	25ef000c 	addiu	t7,t7,12
80001528:	ad320048 	sw	s2,72(t1)
8000152c:	24a50030 	addiu	a1,a1,48
80001530:	8cbf0000 	lw	ra,0(a1)
80001534:	8cad0004 	lw	t5,4(a1)
80001538:	8ca70008 	lw	a3,8(a1)
8000153c:	8cb80020 	lw	t8,32(a1)
80001540:	8cae0024 	lw	t6,36(a1)
80001544:	8cac0028 	lw	t4,40(a1)
80001548:	031fc826 	xor	t9,t8,ra
8000154c:	01cdf826 	xor	ra,t6,t5
80001550:	01876826 	xor	t5,t4,a3
80001554:	0337b826 	xor	s7,t9,s7
80001558:	03f39826 	xor	s3,ra,s3
8000155c:	01b29026 	xor	s2,t5,s2
80001560:	02e42026 	xor	a0,s7,a0
80001564:	02631826 	xor	v1,s3,v1
80001568:	02421026 	xor	v0,s2,v0
8000156c:	25ff0003 	addiu	ra,t7,3
80001570:	2419004f 	li	t9,79
80001574:	24ab0018 	addiu	t3,a1,24
80001578:	24a90024 	addiu	t1,a1,36
8000157c:	aca40040 	sw	a0,64(a1)
80001580:	aca30044 	sw	v1,68(a1)
80001584:	aca20048 	sw	v0,72(a1)
80001588:	17f9ffb1 	bne	ra,t9,80001450 <sha_stream+0x1f0>
8000158c:	24a7000c 	addiu	a3,a1,12
80001590:	8faf032c 	lw	t7,812(sp)
80001594:	27aa0260 	addiu	t2,sp,608
80001598:	8fa80340 	lw	t0,832(sp)
8000159c:	8fae0314 	lw	t6,788(sp)
800015a0:	01553023 	subu	a2,t2,s5
800015a4:	010f2826 	xor	a1,t0,t7
800015a8:	24d8fffc 	addiu	t8,a2,-4
800015ac:	8fb2030c 	lw	s2,780(sp)
800015b0:	00aeb826 	xor	s7,a1,t6
800015b4:	00189882 	srl	s3,t8,0x2
800015b8:	8ec90000 	lw	t1,0(s6)
800015bc:	8ecc0004 	lw	t4,4(s6)
800015c0:	8eca0008 	lw	t2,8(s6)
800015c4:	8ecb000c 	lw	t3,12(s6)
800015c8:	8ecd0010 	lw	t5,16(s6)
800015cc:	02f21826 	xor	v1,s7,s2
800015d0:	32640003 	andi	a0,s3,0x3
800015d4:	afa3034c 	sw	v1,844(sp)
800015d8:	02a07825 	move	t7,s5
800015dc:	01a07025 	move	t6,t5
800015e0:	0180c825 	move	t9,t4
800015e4:	0160c025 	move	t8,t3
800015e8:	01401025 	move	v0,t2
800015ec:	1080003d 	beqz	a0,800016e4 <sha_stream+0x484>
800015f0:	01201825 	move	v1,t1
800015f4:	00091140 	sll	v0,t1,0x5
800015f8:	00091ec2 	srl	v1,t1,0x1b
800015fc:	00433025 	or	a2,v0,v1
80001600:	8ebf0000 	lw	ra,0(s5)
80001604:	014b4026 	xor	t0,t2,t3
80001608:	00d47821 	addu	t7,a2,s4
8000160c:	010c2824 	and	a1,t0,t4
80001610:	01ffc021 	addu	t8,t7,ra
80001614:	00ab7026 	xor	t6,a1,t3
80001618:	030eb821 	addu	s7,t8,t6
8000161c:	000c9882 	srl	s3,t4,0x2
80001620:	000c9780 	sll	s2,t4,0x1e
80001624:	241f0001 	li	ra,1
80001628:	26af0004 	addiu	t7,s5,4
8000162c:	0120c825 	move	t9,t1
80001630:	01607025 	move	t6,t3
80001634:	0140c025 	move	t8,t2
80001638:	02531025 	or	v0,s2,s3
8000163c:	109f0029 	beq	a0,ra,800016e4 <sha_stream+0x484>
80001640:	02ed1821 	addu	v1,s7,t5
80001644:	24070002 	li	a3,2
80001648:	10870014 	beq	a0,a3,8000169c <sha_stream+0x43c>
8000164c:	00033940 	sll	a3,v1,0x5
80001650:	0003cec2 	srl	t9,v1,0x1b
80001654:	00032140 	sll	a0,v1,0x5
80001658:	00997825 	or	t7,a0,t9
8000165c:	004a4026 	xor	t0,v0,t2
80001660:	8ea60004 	lw	a2,4(s5)
80001664:	01f4c021 	addu	t8,t7,s4
80001668:	01092824 	and	a1,t0,t1
8000166c:	03067021 	addu	t6,t8,a2
80001670:	00aab826 	xor	s7,a1,t2
80001674:	01d79821 	addu	s3,t6,s7
80001678:	00099082 	srl	s2,t1,0x2
8000167c:	0009ff80 	sll	ra,t1,0x1e
80001680:	0060c825 	move	t9,v1
80001684:	0040c025 	move	t8,v0
80001688:	26af0008 	addiu	t7,s5,8
8000168c:	01407025 	move	t6,t2
80001690:	03f21025 	or	v0,ra,s2
80001694:	026b1821 	addu	v1,s3,t3
80001698:	00033940 	sll	a3,v1,0x5
8000169c:	000346c2 	srl	t0,v1,0x1b
800016a0:	00582026 	xor	a0,v0,t8
800016a4:	8de60000 	lw	a2,0(t7)
800016a8:	00e82825 	or	a1,a3,t0
800016ac:	0099b824 	and	s7,a0,t9
800016b0:	00b49821 	addu	s3,a1,s4
800016b4:	02f89026 	xor	s2,s7,t8
800016b8:	0266f821 	addu	ra,s3,a2
800016bc:	03f23821 	addu	a3,ra,s2
800016c0:	00ee4021 	addu	t0,a3,t6
800016c4:	00192082 	srl	a0,t9,0x2
800016c8:	00193780 	sll	a2,t9,0x1e
800016cc:	03007025 	move	t6,t8
800016d0:	0060c825 	move	t9,v1
800016d4:	0040c025 	move	t8,v0
800016d8:	25ef0004 	addiu	t7,t7,4
800016dc:	00c41025 	or	v0,a2,a0
800016e0:	01001825 	move	v1,t0
800016e4:	00032940 	sll	a1,v1,0x5
800016e8:	000326c2 	srl	a0,v1,0x1b
800016ec:	00a44025 	or	t0,a1,a0
800016f0:	8df30000 	lw	s3,0(t7)
800016f4:	0058b826 	xor	s7,v0,t8
800016f8:	02f93824 	and	a3,s7,t9
800016fc:	01143021 	addu	a2,t0,s4
80001700:	00d32021 	addu	a0,a2,s3
80001704:	00f8b826 	xor	s7,a3,t8
80001708:	00192882 	srl	a1,t9,0x2
8000170c:	00979821 	addu	s3,a0,s7
80001710:	0019cf80 	sll	t9,t9,0x1e
80001714:	25e40004 	addiu	a0,t7,4
80001718:	27b20260 	addiu	s2,sp,608
8000171c:	026e3021 	addu	a2,s3,t6
80001720:	16440103 	bne	s2,a0,80001b30 <sha_stream+0x8d0>
80001724:	03252825 	or	a1,t9,a1
80001728:	00067940 	sll	t7,a2,0x5
8000172c:	0006fec2 	srl	ra,a2,0x1b
80001730:	01ff3825 	or	a3,t7,ra
80001734:	0065b826 	xor	s7,v1,a1
80001738:	00f19821 	addu	s3,a3,s1
8000173c:	8fa80260 	lw	t0,608(sp)
80001740:	02e2c826 	xor	t9,s7,v0
80001744:	03332021 	addu	a0,t9,s3
80001748:	00039082 	srl	s2,v1,0x2
8000174c:	00887021 	addu	t6,a0,t0
80001750:	00031f80 	sll	v1,v1,0x1e
80001754:	26af00a0 	addiu	t7,s5,160
80001758:	27a70264 	addiu	a3,sp,612
8000175c:	00721825 	or	v1,v1,s2
80001760:	01d82021 	addu	a0,t6,t8
80001764:	0004c140 	sll	t8,a0,0x5
80001768:	000476c2 	srl	t6,a0,0x1b
8000176c:	00c3f826 	xor	ra,a2,v1
80001770:	030ec825 	or	t9,t8,t6
80001774:	0331c021 	addu	t8,t9,s1
80001778:	8cf30000 	lw	s3,0(a3)
8000177c:	03e59026 	xor	s2,ra,a1
80001780:	0258f821 	addu	ra,s2,t8
80001784:	00067082 	srl	t6,a2,0x2
80001788:	03f3b821 	addu	s7,ra,s3
8000178c:	00063780 	sll	a2,a2,0x1e
80001790:	24e80004 	addiu	t0,a3,4
80001794:	02e21021 	addu	v0,s7,v0
80001798:	15e80161 	bne	t7,t0,80001d20 <sha_stream+0xac0>
8000179c:	00cec825 	or	t9,a2,t6
800017a0:	00029140 	sll	s2,v0,0x5
800017a4:	00027ec2 	srl	t7,v0,0x1b
800017a8:	024ff825 	or	ra,s2,t7
800017ac:	8fb802b0 	lw	t8,688(sp)
800017b0:	03233825 	or	a3,t9,v1
800017b4:	00e47024 	and	t6,a3,a0
800017b8:	03f0b821 	addu	s7,ra,s0
800017bc:	03233024 	and	a2,t9,v1
800017c0:	01c69825 	or	s3,t6,a2
800017c4:	02f84021 	addu	t0,s7,t8
800017c8:	02689021 	addu	s2,s3,t0
800017cc:	0004c082 	srl	t8,a0,0x2
800017d0:	00042780 	sll	a0,a0,0x1e
800017d4:	26bf00f0 	addiu	ra,s5,240
800017d8:	27af02b4 	addiu	t7,sp,692
800017dc:	03207025 	move	t6,t9
800017e0:	00982025 	or	a0,a0,t8
800017e4:	02452821 	addu	a1,s2,a1
800017e8:	0005c140 	sll	t8,a1,0x5
800017ec:	000546c2 	srl	t0,a1,0x1b
800017f0:	03089825 	or	s3,t8,t0
800017f4:	8df90000 	lw	t9,0(t7)
800017f8:	008e3825 	or	a3,a0,t6
800017fc:	00e2c024 	and	t8,a3,v0
80001800:	02704021 	addu	t0,s3,s0
80001804:	008e9024 	and	s2,a0,t6
80001808:	01193821 	addu	a3,t0,t9
8000180c:	03123025 	or	a2,t8,s2
80001810:	0002c882 	srl	t9,v0,0x2
80001814:	0002bf80 	sll	s7,v0,0x1e
80001818:	00c79821 	addu	s3,a2,a3
8000181c:	25e20004 	addiu	v0,t7,4
80001820:	02631821 	addu	v1,s3,v1
80001824:	17e200ee 	bne	ra,v0,80001be0 <sha_stream+0x980>
80001828:	02f94025 	or	t0,s7,t9
8000182c:	00037940 	sll	t7,v1,0x5
80001830:	0003fec2 	srl	ra,v1,0x1b
80001834:	01ffc025 	or	t8,t7,ra
80001838:	00a89026 	xor	s2,a1,t0
8000183c:	02443026 	xor	a2,s2,a0
80001840:	031ec821 	addu	t9,t8,s8
80001844:	8fa70300 	lw	a3,768(sp)
80001848:	00d9b821 	addu	s7,a2,t9
8000184c:	02e79821 	addu	s3,s7,a3
80001850:	0005f882 	srl	ra,a1,0x2
80001854:	00051780 	sll	v0,a1,0x1e
80001858:	26b80140 	addiu	t8,s5,320
8000185c:	27af0304 	addiu	t7,sp,772
80001860:	005f1025 	or	v0,v0,ra
80001864:	026e3021 	addu	a2,s3,t6
80001868:	00067140 	sll	t6,a2,0x5
8000186c:	00062ec2 	srl	a1,a2,0x1b
80001870:	00629026 	xor	s2,v1,v0
80001874:	01c5b825 	or	s7,t6,a1
80001878:	02fe7021 	addu	t6,s7,s8
8000187c:	8df30000 	lw	s3,0(t7)
80001880:	0248f826 	xor	ra,s2,t0
80001884:	03ee9021 	addu	s2,ra,t6
80001888:	00032882 	srl	a1,v1,0x2
8000188c:	0003cf80 	sll	t9,v1,0x1e
80001890:	02533821 	addu	a3,s2,s3
80001894:	25e30004 	addiu	v1,t7,4
80001898:	00e42021 	addu	a0,a3,a0
8000189c:	17030164 	bne	t8,v1,80001e30 <sha_stream+0xbd0>
800018a0:	0325b825 	or	s7,t9,a1
800018a4:	01a86821 	addu	t5,t5,t0
800018a8:	8fa80350 	lw	t0,848(sp)
800018ac:	8fb80354 	lw	t8,852(sp)
800018b0:	01244821 	addu	t1,t1,a0
800018b4:	01866021 	addu	t4,t4,a2
800018b8:	01575021 	addu	t2,t2,s7
800018bc:	01625821 	addu	t3,t3,v0
800018c0:	250f0040 	addiu	t7,t0,64
800018c4:	afaf0350 	sw	t7,848(sp)
800018c8:	aec90000 	sw	t1,0(s6)
800018cc:	aecc0004 	sw	t4,4(s6)
800018d0:	aeca0008 	sw	t2,8(s6)
800018d4:	aecb000c 	sw	t3,12(s6)
800018d8:	15f8feb4 	bne	t7,t8,800013ac <sha_stream+0x14c>
800018dc:	aecd0010 	sw	t5,16(s6)
800018e0:	8fb0035c 	lw	s0,860(sp)
800018e4:	8fb10360 	lw	s1,864(sp)
800018e8:	0010f180 	sll	s8,s0,0x6
800018ec:	023e8823 	subu	s1,s1,s8
800018f0:	8fa50354 	lw	a1,852(sp)
800018f4:	8fa40358 	lw	a0,856(sp)
800018f8:	0c000da7 	jal	8000369c <memcpy>
800018fc:	02203025 	move	a2,s1
80001900:	8fa70394 	lw	a3,916(sp)
80001904:	24060200 	li	a2,512
80001908:	24050001 	li	a1,1
8000190c:	0c000cb2 	jal	800032c8 <fread>
80001910:	27a40010 	addiu	a0,sp,16
80001914:	1c40fe85 	bgtz	v0,8000132c <sha_stream+0xcc>
80001918:	00408825 	move	s1,v0
8000191c:	8ed00014 	lw	s0,20(s6)
80001920:	8fb70358 	lw	s7,856(sp)
80001924:	001090c2 	srl	s2,s0,0x3
80001928:	3253003f 	andi	s3,s2,0x3f
8000192c:	26740001 	addiu	s4,s3,1
80001930:	02f3c021 	addu	t8,s7,s3
80001934:	241eff80 	li	s8,-128
80001938:	2a990039 	slti	t9,s4,57
8000193c:	8ed10018 	lw	s1,24(s6)
80001940:	02f42021 	addu	a0,s7,s4
80001944:	1720053e 	bnez	t9,80002e40 <sha_stream+0x1be0>
80001948:	a31e0000 	sb	s8,0(t8)
8000194c:	24020040 	li	v0,64
80001950:	00543023 	subu	a2,v0,s4
80001954:	0c000d9e 	jal	80003678 <memset>
80001958:	00002825 	move	a1,zero
8000195c:	8eca0038 	lw	t2,56(s6)
80001960:	8ece0040 	lw	t6,64(s6)
80001964:	8ecd0044 	lw	t5,68(s6)
80001968:	8ec60024 	lw	a2,36(s6)
8000196c:	8ec50028 	lw	a1,40(s6)
80001970:	8ec4002c 	lw	a0,44(s6)
80001974:	8ec30030 	lw	v1,48(s6)
80001978:	8ec20034 	lw	v0,52(s6)
8000197c:	8ec90050 	lw	t1,80(s6)
80001980:	8ec80054 	lw	t0,84(s6)
80001984:	8ec70058 	lw	a3,88(s6)
80001988:	8ed20020 	lw	s2,32(s6)
8000198c:	8ecf003c 	lw	t7,60(s6)
80001990:	8ecc0048 	lw	t4,72(s6)
80001994:	8ecb004c 	lw	t3,76(s6)
80001998:	8ed3001c 	lw	s3,28(s6)
8000199c:	afaa022c 	sw	t2,556(sp)
800019a0:	afae0234 	sw	t6,564(sp)
800019a4:	afad0238 	sw	t5,568(sp)
800019a8:	0140f825 	move	ra,t2
800019ac:	afb20214 	sw	s2,532(sp)
800019b0:	afb30210 	sw	s3,528(sp)
800019b4:	afa60218 	sw	a2,536(sp)
800019b8:	afa5021c 	sw	a1,540(sp)
800019bc:	afa40220 	sw	a0,544(sp)
800019c0:	afa30224 	sw	v1,548(sp)
800019c4:	afa20228 	sw	v0,552(sp)
800019c8:	afaf0230 	sw	t7,560(sp)
800019cc:	afac023c 	sw	t4,572(sp)
800019d0:	afab0240 	sw	t3,576(sp)
800019d4:	afa90244 	sw	t1,580(sp)
800019d8:	afa80248 	sw	t0,584(sp)
800019dc:	afa7024c 	sw	a3,588(sp)
800019e0:	02a05025 	move	t2,s5
800019e4:	240d0010 	li	t5,16
800019e8:	240e004f 	li	t6,79
800019ec:	8d570020 	lw	s7,32(t2)
800019f0:	8d520024 	lw	s2,36(t2)
800019f4:	8d590028 	lw	t9,40(t2)
800019f8:	00872026 	xor	a0,a0,a3
800019fc:	8d540000 	lw	s4,0(t2)
80001a00:	00c93026 	xor	a2,a2,t1
80001a04:	00a82826 	xor	a1,a1,t0
80001a08:	8d5e0004 	lw	s8,4(t2)
80001a0c:	8d4c0008 	lw	t4,8(t2)
80001a10:	00b24026 	xor	t0,a1,s2
80001a14:	00994826 	xor	t1,a0,t9
80001a18:	00d73826 	xor	a3,a2,s7
80001a1c:	00f45826 	xor	t3,a3,s4
80001a20:	011e9826 	xor	s3,t0,s8
80001a24:	012ca026 	xor	s4,t1,t4
80001a28:	25a50003 	addiu	a1,t5,3
80001a2c:	25580018 	addiu	t8,t2,24
80001a30:	254f0024 	addiu	t7,t2,36
80001a34:	006b1826 	xor	v1,v1,t3
80001a38:	00531026 	xor	v0,v0,s3
80001a3c:	03f4f826 	xor	ra,ra,s4
80001a40:	ad4b0040 	sw	t3,64(t2)
80001a44:	ad530044 	sw	s3,68(t2)
80001a48:	ad540048 	sw	s4,72(t2)
80001a4c:	10ae0147 	beq	a1,t6,80001f6c <sha_stream+0xd0c>
80001a50:	2544000c 	addiu	a0,t2,12
80001a54:	8c890020 	lw	t1,32(a0)
80001a58:	8c8c0024 	lw	t4,36(a0)
80001a5c:	8c8b0028 	lw	t3,40(a0)
80001a60:	8d46000c 	lw	a2,12(t2)
80001a64:	8c850004 	lw	a1,4(a0)
80001a68:	8c870008 	lw	a3,8(a0)
80001a6c:	03eba026 	xor	s4,ra,t3
80001a70:	00694026 	xor	t0,v1,t1
80001a74:	004c9826 	xor	s3,v0,t4
80001a78:	01061826 	xor	v1,t0,a2
80001a7c:	02651026 	xor	v0,s3,a1
80001a80:	0287f026 	xor	s8,s4,a3
80001a84:	ac830040 	sw	v1,64(a0)
80001a88:	ac9e0048 	sw	s8,72(a0)
80001a8c:	ac820044 	sw	v0,68(a0)
80001a90:	8f060020 	lw	a2,32(t8)
80001a94:	8f050024 	lw	a1,36(t8)
80001a98:	8f040028 	lw	a0,40(t8)
80001a9c:	8d540018 	lw	s4,24(t2)
80001aa0:	8f130004 	lw	s3,4(t8)
80001aa4:	8f1f0008 	lw	ra,8(t8)
80001aa8:	02e3b826 	xor	s7,s7,v1
80001aac:	02429026 	xor	s2,s2,v0
80001ab0:	033ec826 	xor	t9,t9,s8
80001ab4:	02e64026 	xor	t0,s7,a2
80001ab8:	02453826 	xor	a3,s2,a1
80001abc:	03241826 	xor	v1,t9,a0
80001ac0:	0114f026 	xor	s8,t0,s4
80001ac4:	00f3a026 	xor	s4,a3,s3
80001ac8:	007f9826 	xor	s3,v1,ra
80001acc:	af1e0040 	sw	s8,64(t8)
80001ad0:	af140044 	sw	s4,68(t8)
80001ad4:	af130048 	sw	s3,72(t8)
80001ad8:	8de30020 	lw	v1,32(t7)
80001adc:	8d5f0024 	lw	ra,36(t2)
80001ae0:	013e4826 	xor	t1,t1,s8
80001ae4:	0123b826 	xor	s7,t1,v1
80001ae8:	02ff4826 	xor	t1,s7,ra
80001aec:	8de20024 	lw	v0,36(t7)
80001af0:	8dff0028 	lw	ra,40(t7)
80001af4:	8df80004 	lw	t8,4(t7)
80001af8:	8df90008 	lw	t9,8(t7)
80001afc:	01946026 	xor	t4,t4,s4
80001b00:	01735826 	xor	t3,t3,s3
80001b04:	01829026 	xor	s2,t4,v0
80001b08:	017f3826 	xor	a3,t3,ra
80001b0c:	02584026 	xor	t0,s2,t8
80001b10:	00f93826 	xor	a3,a3,t9
80001b14:	ade90040 	sw	t1,64(t7)
80001b18:	ade80044 	sw	t0,68(t7)
80001b1c:	ade70048 	sw	a3,72(t7)
80001b20:	25ad000c 	addiu	t5,t5,12
80001b24:	1000ffb1 	b	800019ec <sha_stream+0x78c>
80001b28:	254a0030 	addiu	t2,t2,48
80001b2c:	00000000 	nop
80001b30:	0006f940 	sll	ra,a2,0x5
80001b34:	0006bec2 	srl	s7,a2,0x1b
80001b38:	03f79025 	or	s2,ra,s7
80001b3c:	8df30004 	lw	s3,4(t7)
80001b40:	00a24026 	xor	t0,a1,v0
80001b44:	01037024 	and	t6,t0,v1
80001b48:	02543821 	addu	a3,s2,s4
80001b4c:	01c2c826 	xor	t9,t6,v0
80001b50:	00f32021 	addu	a0,a3,s3
80001b54:	0099f821 	addu	ra,a0,t9
80001b58:	03f8b821 	addu	s7,ra,t8
80001b5c:	0003c082 	srl	t8,v1,0x2
80001b60:	00031f80 	sll	v1,v1,0x1e
80001b64:	00787025 	or	t6,v1,t8
80001b68:	00179940 	sll	s3,s7,0x5
80001b6c:	001746c2 	srl	t0,s7,0x1b
80001b70:	02683825 	or	a3,s3,t0
80001b74:	8df20008 	lw	s2,8(t7)
80001b78:	01c52026 	xor	a0,t6,a1
80001b7c:	0086f824 	and	ra,a0,a2
80001b80:	00f4c821 	addu	t9,a3,s4
80001b84:	0332c021 	addu	t8,t9,s2
80001b88:	03e51826 	xor	v1,ra,a1
80001b8c:	03039821 	addu	s3,t8,v1
80001b90:	0262c821 	addu	t9,s3,v0
80001b94:	00061082 	srl	v0,a2,0x2
80001b98:	00063780 	sll	a2,a2,0x1e
80001b9c:	00c2c025 	or	t8,a2,v0
80001ba0:	001996c2 	srl	s2,t9,0x1b
80001ba4:	00194140 	sll	t0,t9,0x5
80001ba8:	8de7000c 	lw	a3,12(t7)
80001bac:	01122025 	or	a0,t0,s2
80001bb0:	030ef826 	xor	ra,t8,t6
80001bb4:	00941821 	addu	v1,a0,s4
80001bb8:	03f79824 	and	s3,ra,s7
80001bbc:	00671021 	addu	v0,v1,a3
80001bc0:	026e3026 	xor	a2,s3,t6
80001bc4:	00469021 	addu	s2,v0,a2
80001bc8:	00173882 	srl	a3,s7,0x2
80001bcc:	0017bf80 	sll	s7,s7,0x1e
80001bd0:	25ef0010 	addiu	t7,t7,16
80001bd4:	02e71025 	or	v0,s7,a3
80001bd8:	1000fec2 	b	800016e4 <sha_stream+0x484>
80001bdc:	02451821 	addu	v1,s2,a1
80001be0:	0003c940 	sll	t9,v1,0x5
80001be4:	0003c6c2 	srl	t8,v1,0x1b
80001be8:	01049825 	or	s3,t0,a0
80001bec:	03389025 	or	s2,t9,t8
80001bf0:	8de70004 	lw	a3,4(t7)
80001bf4:	0265b824 	and	s7,s3,a1
80001bf8:	01041024 	and	v0,t0,a0
80001bfc:	02503021 	addu	a2,s2,s0
80001c00:	02e2c825 	or	t9,s7,v0
80001c04:	00c7c021 	addu	t8,a2,a3
80001c08:	03383821 	addu	a3,t9,t8
80001c0c:	00ee7021 	addu	t6,a3,t6
80001c10:	00059882 	srl	s3,a1,0x2
80001c14:	00052f80 	sll	a1,a1,0x1e
80001c18:	00b39025 	or	s2,a1,s3
80001c1c:	000eb940 	sll	s7,t6,0x5
80001c20:	000e36c2 	srl	a2,t6,0x1b
80001c24:	02481025 	or	v0,s2,t0
80001c28:	02e63825 	or	a3,s7,a2
80001c2c:	8df90008 	lw	t9,8(t7)
80001c30:	00439824 	and	s3,v0,v1
80001c34:	0248c024 	and	t8,s2,t0
80001c38:	00f02821 	addu	a1,a3,s0
80001c3c:	0278b825 	or	s7,s3,t8
80001c40:	00b93021 	addu	a2,a1,t9
80001c44:	02e6c821 	addu	t9,s7,a2
80001c48:	03242021 	addu	a0,t9,a0
80001c4c:	00031082 	srl	v0,v1,0x2
80001c50:	00031f80 	sll	v1,v1,0x1e
80001c54:	00629825 	or	s3,v1,v0
80001c58:	00042940 	sll	a1,a0,0x5
80001c5c:	0004c6c2 	srl	t8,a0,0x1b
80001c60:	00b83025 	or	a2,a1,t8
80001c64:	8de7000c 	lw	a3,12(t7)
80001c68:	0272b825 	or	s7,s3,s2
80001c6c:	02eec824 	and	t9,s7,t6
80001c70:	02721024 	and	v0,s3,s2
80001c74:	00d01821 	addu	v1,a2,s0
80001c78:	03222825 	or	a1,t9,v0
80001c7c:	0067c021 	addu	t8,v1,a3
80001c80:	00b83821 	addu	a3,a1,t8
80001c84:	00e84021 	addu	t0,a3,t0
80001c88:	000eb882 	srl	s7,t6,0x2
80001c8c:	000e7780 	sll	t6,t6,0x1e
80001c90:	01d71825 	or	v1,t6,s7
80001c94:	00083140 	sll	a2,t0,0x5
80001c98:	0008cec2 	srl	t9,t0,0x1b
80001c9c:	00d93825 	or	a3,a2,t9
80001ca0:	8de50010 	lw	a1,16(t7)
80001ca4:	00731025 	or	v0,v1,s3
80001ca8:	0044b824 	and	s7,v0,a0
80001cac:	00f07021 	addu	t6,a3,s0
80001cb0:	0073c024 	and	t8,v1,s3
80001cb4:	02f83025 	or	a2,s7,t8
80001cb8:	01c5c821 	addu	t9,t6,a1
80001cbc:	00d92821 	addu	a1,a2,t9
80001cc0:	00b21021 	addu	v0,a1,s2
80001cc4:	00049082 	srl	s2,a0,0x2
80001cc8:	00042780 	sll	a0,a0,0x1e
80001ccc:	00927025 	or	t6,a0,s2
80001cd0:	0002b940 	sll	s7,v0,0x5
80001cd4:	0002c6c2 	srl	t8,v0,0x1b
80001cd8:	8de70014 	lw	a3,20(t7)
80001cdc:	02f8c825 	or	t9,s7,t8
80001ce0:	01c33025 	or	a2,t6,v1
80001ce4:	00c82824 	and	a1,a2,t0
80001ce8:	03302021 	addu	a0,t9,s0
80001cec:	01c39024 	and	s2,t6,v1
80001cf0:	0087c021 	addu	t8,a0,a3
80001cf4:	00b2b825 	or	s7,a1,s2
80001cf8:	00083882 	srl	a3,t0,0x2
80001cfc:	02f83021 	addu	a2,s7,t8
80001d00:	00084780 	sll	t0,t0,0x1e
80001d04:	25ef0018 	addiu	t7,t7,24
80001d08:	01072025 	or	a0,t0,a3
80001d0c:	1000feb6 	b	800017e8 <sha_stream+0x588>
80001d10:	00d32821 	addu	a1,a2,s3
	...
80001d20:	0002f940 	sll	ra,v0,0x5
80001d24:	00029ec2 	srl	s3,v0,0x1b
80001d28:	00999026 	xor	s2,a0,t9
80001d2c:	03f37025 	or	t6,ra,s3
80001d30:	0243c026 	xor	t8,s2,v1
80001d34:	8cf70004 	lw	s7,4(a3)
80001d38:	01d13021 	addu	a2,t6,s1
80001d3c:	03064021 	addu	t0,t8,a2
80001d40:	0117f821 	addu	ra,t0,s7
80001d44:	03e52821 	addu	a1,ra,a1
80001d48:	00049882 	srl	s3,a0,0x2
80001d4c:	00042780 	sll	a0,a0,0x1e
80001d50:	00939025 	or	s2,a0,s3
80001d54:	00057140 	sll	t6,a1,0x5
80001d58:	0005bec2 	srl	s7,a1,0x1b
80001d5c:	00523026 	xor	a2,v0,s2
80001d60:	01d74025 	or	t0,t6,s7
80001d64:	00d9f826 	xor	ra,a2,t9
80001d68:	8cf80008 	lw	t8,8(a3)
80001d6c:	01119821 	addu	s3,t0,s1
80001d70:	03f32021 	addu	a0,ra,s3
80001d74:	00987021 	addu	t6,a0,t8
80001d78:	01c31821 	addu	v1,t6,v1
80001d7c:	0002b882 	srl	s7,v0,0x2
80001d80:	00021780 	sll	v0,v0,0x1e
80001d84:	0057f825 	or	ra,v0,s7
80001d88:	00033140 	sll	a2,v1,0x5
80001d8c:	000346c2 	srl	t0,v1,0x1b
80001d90:	00c82025 	or	a0,a2,t0
80001d94:	00bf9826 	xor	s3,a1,ra
80001d98:	02727026 	xor	t6,s3,s2
80001d9c:	8cf8000c 	lw	t8,12(a3)
80001da0:	0091b821 	addu	s7,a0,s1
80001da4:	01d71021 	addu	v0,t6,s7
80001da8:	00583021 	addu	a2,v0,t8
80001dac:	00d9c821 	addu	t9,a2,t9
80001db0:	00054082 	srl	t0,a1,0x2
80001db4:	00052f80 	sll	a1,a1,0x1e
80001db8:	00a81025 	or	v0,a1,t0
80001dbc:	00199940 	sll	s3,t9,0x5
80001dc0:	001926c2 	srl	a0,t9,0x1b
80001dc4:	0264b825 	or	s7,s3,a0
80001dc8:	00627026 	xor	t6,v1,v0
80001dcc:	8cf80010 	lw	t8,16(a3)
80001dd0:	01df3026 	xor	a2,t6,ra
80001dd4:	02f14021 	addu	t0,s7,s1
80001dd8:	00c82821 	addu	a1,a2,t0
80001ddc:	00b89821 	addu	s3,a1,t8
80001de0:	02723021 	addu	a2,s3,s2
80001de4:	00039082 	srl	s2,v1,0x2
80001de8:	00031f80 	sll	v1,v1,0x1e
80001dec:	00722825 	or	a1,v1,s2
80001df0:	00062140 	sll	a0,a2,0x5
80001df4:	000676c2 	srl	t6,a2,0x1b
80001df8:	008e9825 	or	s3,a0,t6
80001dfc:	0325b826 	xor	s7,t9,a1
80001e00:	8cf80014 	lw	t8,20(a3)
80001e04:	02e24026 	xor	t0,s7,v0
80001e08:	02719021 	addu	s2,s3,s1
80001e0c:	01121821 	addu	v1,t0,s2
80001e10:	00782021 	addu	a0,v1,t8
80001e14:	00197082 	srl	t6,t9,0x2
80001e18:	0019cf80 	sll	t9,t9,0x1e
80001e1c:	24e70018 	addiu	a3,a3,24
80001e20:	032e1825 	or	v1,t9,t6
80001e24:	1000fe4f 	b	80001764 <sha_stream+0x504>
80001e28:	009f2021 	addu	a0,a0,ra
80001e2c:	00000000 	nop
80001e30:	00049940 	sll	s3,a0,0x5
80001e34:	0004fec2 	srl	ra,a0,0x1b
80001e38:	00d77026 	xor	t6,a2,s7
80001e3c:	027f9025 	or	s2,s3,ra
80001e40:	01c23826 	xor	a3,t6,v0
80001e44:	8df90004 	lw	t9,4(t7)
80001e48:	025e2821 	addu	a1,s2,s8
80001e4c:	00e51821 	addu	v1,a3,a1
80001e50:	00799821 	addu	s3,v1,t9
80001e54:	02684021 	addu	t0,s3,t0
80001e58:	0006f882 	srl	ra,a2,0x2
80001e5c:	00063780 	sll	a2,a2,0x1e
80001e60:	00df7025 	or	t6,a2,ra
80001e64:	00089140 	sll	s2,t0,0x5
80001e68:	0008cec2 	srl	t9,t0,0x1b
80001e6c:	008e1826 	xor	v1,a0,t6
80001e70:	02592825 	or	a1,s2,t9
80001e74:	00779826 	xor	s3,v1,s7
80001e78:	8de70008 	lw	a3,8(t7)
80001e7c:	00bef821 	addu	ra,a1,s8
80001e80:	027f3021 	addu	a2,s3,ra
80001e84:	00c79021 	addu	s2,a2,a3
80001e88:	02421021 	addu	v0,s2,v0
80001e8c:	0004c882 	srl	t9,a0,0x2
80001e90:	00042780 	sll	a0,a0,0x1e
80001e94:	00992825 	or	a1,a0,t9
80001e98:	00021940 	sll	v1,v0,0x5
80001e9c:	00023ec2 	srl	a3,v0,0x1b
80001ea0:	0067f825 	or	ra,v1,a3
80001ea4:	01059826 	xor	s3,t0,a1
80001ea8:	026e9026 	xor	s2,s3,t6
80001eac:	8de6000c 	lw	a2,12(t7)
80001eb0:	03fec821 	addu	t9,ra,s8
80001eb4:	02592021 	addu	a0,s2,t9
80001eb8:	00861821 	addu	v1,a0,a2
80001ebc:	0077b821 	addu	s7,v1,s7
80001ec0:	00083882 	srl	a3,t0,0x2
80001ec4:	00084780 	sll	t0,t0,0x1e
80001ec8:	01072025 	or	a0,t0,a3
80001ecc:	00179940 	sll	s3,s7,0x5
80001ed0:	0017fec2 	srl	ra,s7,0x1b
80001ed4:	027f9025 	or	s2,s3,ra
80001ed8:	00443026 	xor	a2,v0,a0
80001edc:	8df90010 	lw	t9,16(t7)
80001ee0:	00c51826 	xor	v1,a2,a1
80001ee4:	025e3821 	addu	a3,s2,s8
80001ee8:	00674021 	addu	t0,v1,a3
80001eec:	01199821 	addu	s3,t0,t9
80001ef0:	026e1821 	addu	v1,s3,t6
80001ef4:	00027082 	srl	t6,v0,0x2
80001ef8:	00021780 	sll	v0,v0,0x1e
80001efc:	004e4025 	or	t0,v0,t6
80001f00:	0003f940 	sll	ra,v1,0x5
80001f04:	000396c2 	srl	s2,v1,0x1b
80001f08:	02e83026 	xor	a2,s7,t0
80001f0c:	03f2c825 	or	t9,ra,s2
80001f10:	8de70014 	lw	a3,20(t7)
80001f14:	00c49826 	xor	s3,a2,a0
80001f18:	033e7021 	addu	t6,t9,s8
80001f1c:	026e1021 	addu	v0,s3,t6
80001f20:	0047f821 	addu	ra,v0,a3
80001f24:	00179082 	srl	s2,s7,0x2
80001f28:	0017bf80 	sll	s7,s7,0x1e
80001f2c:	25ef0018 	addiu	t7,t7,24
80001f30:	02f21025 	or	v0,s7,s2
80001f34:	1000fe4c 	b	80001868 <sha_stream+0x608>
80001f38:	03e53021 	addu	a2,ra,a1
80001f3c:	00000000 	nop
80001f40:	8ec50018 	lw	a1,24(s6)
80001f44:	00000000 	nop
80001f48:	24be0001 	addiu	s8,a1,1
80001f4c:	009e9821 	addu	s3,a0,s8
80001f50:	2a220040 	slti	v0,s1,64
80001f54:	aece0014 	sw	t6,20(s6)
80001f58:	1040fd04 	beqz	v0,8000136c <sha_stream+0x10c>
80001f5c:	aed30018 	sw	s3,24(s6)
80001f60:	27b80010 	addiu	t8,sp,16
80001f64:	1000fe62 	b	800018f0 <sha_stream+0x690>
80001f68:	afb80354 	sw	t8,852(sp)
80001f6c:	8ec70000 	lw	a3,0(s6)
80001f70:	8ec5000c 	lw	a1,12(s6)
80001f74:	8ec80008 	lw	t0,8(s6)
80001f78:	8ec60004 	lw	a2,4(s6)
80001f7c:	8fb2032c 	lw	s2,812(sp)
80001f80:	8fb90340 	lw	t9,832(sp)
80001f84:	00077140 	sll	t6,a3,0x5
80001f88:	00076ec2 	srl	t5,a3,0x1b
80001f8c:	3c185a82 	lui	t8,0x5a82
80001f90:	01cd7825 	or	t7,t6,t5
80001f94:	8eaa0000 	lw	t2,0(s5)
80001f98:	270c7999 	addiu	t4,t8,31129
80001f9c:	0105b826 	xor	s7,t0,a1
80001fa0:	8fab0314 	lw	t3,788(sp)
80001fa4:	02591826 	xor	v1,s2,t9
80001fa8:	01ec9821 	addu	s3,t7,t4
80001fac:	02e6a024 	and	s4,s7,a2
80001fb0:	8fbe030c 	lw	s8,780(sp)
80001fb4:	006bf826 	xor	ra,v1,t3
80001fb8:	026a1021 	addu	v0,s3,t2
80001fbc:	8ec90010 	lw	t1,16(s6)
80001fc0:	02852026 	xor	a0,s4,a1
80001fc4:	03fe7026 	xor	t6,ra,s8
80001fc8:	00445021 	addu	t2,v0,a0
80001fcc:	0006b882 	srl	s7,a2,0x2
80001fd0:	00069780 	sll	s2,a2,0x1e
80001fd4:	afae034c 	sw	t6,844(sp)
80001fd8:	26af0050 	addiu	t7,s5,80
80001fdc:	26ae0004 	addiu	t6,s5,4
80001fe0:	00e0c025 	move	t8,a3
80001fe4:	00a01825 	move	v1,a1
80001fe8:	01006825 	move	t5,t0
80001fec:	0257c825 	or	t9,s2,s7
80001ff0:	10000039 	b	800020d8 <sha_stream+0xe78>
80001ff4:	01491021 	addu	v0,t2,t1
	...
80002000:	8dc30004 	lw	v1,4(t6)
80002004:	8dd30008 	lw	s3,8(t6)
80002008:	03c31021 	addu	v0,s8,v1
8000200c:	00529021 	addu	s2,v0,s2
80002010:	024da021 	addu	s4,s2,t5
80002014:	0014f140 	sll	s8,s4,0x5
80002018:	0014c6c2 	srl	t8,s4,0x1b
8000201c:	03d86825 	or	t5,s8,t8
80002020:	01ac1821 	addu	v1,t5,t4
80002024:	00739821 	addu	s3,v1,s3
80002028:	02642021 	addu	a0,s3,a0
8000202c:	0099c821 	addu	t9,a0,t9
80002030:	00199140 	sll	s2,t9,0x5
80002034:	0019f6c2 	srl	s8,t9,0x1b
80002038:	025ec025 	or	t8,s2,s8
8000203c:	8dc2000c 	lw	v0,12(t6)
80002040:	030c6821 	addu	t5,t8,t4
80002044:	03f4f824 	and	ra,ra,s4
80002048:	01a21821 	addu	v1,t5,v0
8000204c:	03eb9826 	xor	s3,ra,t3
80002050:	00732021 	addu	a0,v1,s3
80002054:	0097b821 	addu	s7,a0,s7
80002058:	00149082 	srl	s2,s4,0x2
8000205c:	0014a780 	sll	s4,s4,0x1e
80002060:	02921825 	or	v1,s4,s2
80002064:	0017f140 	sll	s8,s7,0x5
80002068:	001716c2 	srl	v0,s7,0x1b
8000206c:	03c2c025 	or	t8,s8,v0
80002070:	8dcd0010 	lw	t5,16(t6)
80002074:	006af826 	xor	ra,v1,t2
80002078:	03f92024 	and	a0,ra,t9
8000207c:	030c9821 	addu	s3,t8,t4
80002080:	026d9021 	addu	s2,s3,t5
80002084:	008aa026 	xor	s4,a0,t2
80002088:	0254f021 	addu	s8,s2,s4
8000208c:	03cbc021 	addu	t8,s8,t3
80002090:	00195882 	srl	t3,t9,0x2
80002094:	0019cf80 	sll	t9,t9,0x1e
80002098:	032b6825 	or	t5,t9,t3
8000209c:	00181140 	sll	v0,t8,0x5
800020a0:	0018fec2 	srl	ra,t8,0x1b
800020a4:	005f2025 	or	a0,v0,ra
800020a8:	8dd30014 	lw	s3,20(t6)
800020ac:	01a39026 	xor	s2,t5,v1
800020b0:	0257f024 	and	s8,s2,s7
800020b4:	008ca021 	addu	s4,a0,t4
800020b8:	0293c821 	addu	t9,s4,s3
800020bc:	03c35826 	xor	t3,s8,v1
800020c0:	032b1021 	addu	v0,t9,t3
800020c4:	0017f882 	srl	ra,s7,0x2
800020c8:	0017bf80 	sll	s7,s7,0x1e
800020cc:	25ce0018 	addiu	t6,t6,24
800020d0:	02ffc825 	or	t9,s7,ra
800020d4:	004a1021 	addu	v0,v0,t2
800020d8:	00029882 	srl	s3,v0,0x2
800020dc:	0002a780 	sll	s4,v0,0x1e
800020e0:	00025140 	sll	t2,v0,0x5
800020e4:	000226c2 	srl	a0,v0,0x1b
800020e8:	02935825 	or	t3,s4,s3
800020ec:	032df026 	xor	s8,t9,t5
800020f0:	01449825 	or	s3,t2,a0
800020f4:	8ddf0000 	lw	ra,0(t6)
800020f8:	03d85024 	and	t2,s8,t8
800020fc:	026c2021 	addu	a0,s3,t4
80002100:	014df026 	xor	s8,t2,t5
80002104:	009ff821 	addu	ra,a0,ra
80002108:	03fe9021 	addu	s2,ra,s8
8000210c:	02431821 	addu	v1,s2,v1
80002110:	0018b882 	srl	s7,t8,0x2
80002114:	0003a140 	sll	s4,v1,0x5
80002118:	0018c780 	sll	t8,t8,0x1e
8000211c:	000356c2 	srl	t2,v1,0x1b
80002120:	028a2025 	or	a0,s4,t2
80002124:	0317b825 	or	s7,t8,s7
80002128:	0003f882 	srl	ra,v1,0x2
8000212c:	00039780 	sll	s2,v1,0x1e
80002130:	02f9c026 	xor	t8,s7,t9
80002134:	008cf021 	addu	s8,a0,t4
80002138:	01772026 	xor	a0,t3,s7
8000213c:	025f5025 	or	t2,s2,ra
80002140:	0302a024 	and	s4,t8,v0
80002144:	25d30004 	addiu	s3,t6,4
80002148:	0083c024 	and	t8,a0,v1
8000214c:	014bf826 	xor	ra,t2,t3
80002150:	02999026 	xor	s2,s4,t9
80002154:	15f3ffaa 	bne	t7,s3,80002000 <sha_stream+0xda0>
80002158:	03172026 	xor	a0,t8,s7
8000215c:	00037140 	sll	t6,v1,0x5
80002160:	00035ec2 	srl	t3,v1,0x1b
80002164:	3c0c6ed9 	lui	t4,0x6ed9
80002168:	00579826 	xor	s3,v0,s7
8000216c:	01cbf025 	or	s8,t6,t3
80002170:	358feba1 	ori	t7,t4,0xeba1
80002174:	8fbf0260 	lw	ra,608(sp)
80002178:	03cf5021 	addu	t2,s8,t7
8000217c:	02e02025 	move	a0,s7
80002180:	0279b826 	xor	s7,s3,t9
80002184:	02eaa021 	addu	s4,s7,t2
80002188:	029f9021 	addu	s2,s4,ra
8000218c:	0002c082 	srl	t8,v0,0x2
80002190:	00021780 	sll	v0,v0,0x1e
80002194:	26bf00a0 	addiu	ra,s5,160
80002198:	27ae0264 	addiu	t6,sp,612
8000219c:	03205025 	move	t2,t9
800021a0:	00581025 	or	v0,v0,t8
800021a4:	10000036 	b	80002280 <sha_stream+0x1020>
800021a8:	024d6821 	addu	t5,s2,t5
800021ac:	00000000 	nop
800021b0:	8dd80004 	lw	t8,4(t6)
800021b4:	8dcd0008 	lw	t5,8(t6)
800021b8:	01785821 	addu	t3,t3,t8
800021bc:	01649821 	addu	s3,t3,a0
800021c0:	00135140 	sll	t2,s3,0x5
800021c4:	0013cec2 	srl	t9,s3,0x1b
800021c8:	0159b825 	or	s7,t2,t9
800021cc:	02ef9021 	addu	s2,s7,t7
800021d0:	0292a021 	addu	s4,s4,s2
800021d4:	028d2021 	addu	a0,s4,t5
800021d8:	00821021 	addu	v0,a0,v0
800021dc:	00025940 	sll	t3,v0,0x5
800021e0:	00026ec2 	srl	t5,v0,0x1b
800021e4:	016d5025 	or	t2,t3,t5
800021e8:	026cc026 	xor	t8,s3,t4
800021ec:	031eb826 	xor	s7,t8,s8
800021f0:	8dd9000c 	lw	t9,12(t6)
800021f4:	014f9021 	addu	s2,t2,t7
800021f8:	02f2a021 	addu	s4,s7,s2
800021fc:	02992021 	addu	a0,s4,t9
80002200:	0083c021 	addu	t8,a0,v1
80002204:	00131882 	srl	v1,s3,0x2
80002208:	00139f80 	sll	s3,s3,0x1e
8000220c:	0263c825 	or	t9,s3,v1
80002210:	00185940 	sll	t3,t8,0x5
80002214:	00186ec2 	srl	t5,t8,0x1b
80002218:	016d9025 	or	s2,t3,t5
8000221c:	0059b826 	xor	s7,v0,t9
80002220:	8dca0010 	lw	t2,16(t6)
80002224:	02eca026 	xor	s4,s7,t4
80002228:	024f2021 	addu	a0,s2,t7
8000222c:	02841821 	addu	v1,s4,a0
80002230:	006a9821 	addu	s3,v1,t2
80002234:	027e1821 	addu	v1,s3,s8
80002238:	0002f082 	srl	s8,v0,0x2
8000223c:	00021780 	sll	v0,v0,0x1e
80002240:	005e2025 	or	a0,v0,s8
80002244:	00035940 	sll	t3,v1,0x5
80002248:	0003bec2 	srl	s7,v1,0x1b
8000224c:	03046826 	xor	t5,t8,a0
80002250:	01779025 	or	s2,t3,s7
80002254:	8dca0014 	lw	t2,20(t6)
80002258:	01b9a026 	xor	s4,t5,t9
8000225c:	024f9821 	addu	s3,s2,t7
80002260:	0293f021 	addu	s8,s4,s3
80002264:	03cab821 	addu	s7,s8,t2
80002268:	00185882 	srl	t3,t8,0x2
8000226c:	0018c780 	sll	t8,t8,0x1e
80002270:	25ce0018 	addiu	t6,t6,24
80002274:	03205025 	move	t2,t9
80002278:	030b1025 	or	v0,t8,t3
8000227c:	02ec6821 	addu	t5,s7,t4
80002280:	000dc140 	sll	t8,t5,0x5
80002284:	000d66c2 	srl	t4,t5,0x1b
80002288:	00629826 	xor	s3,v1,v0
8000228c:	030c9025 	or	s2,t8,t4
80002290:	000dc882 	srl	t9,t5,0x2
80002294:	000d5f80 	sll	t3,t5,0x1e
80002298:	0179f025 	or	s8,t3,t9
8000229c:	024fc021 	addu	t8,s2,t7
800022a0:	0264c826 	xor	t9,s3,a0
800022a4:	8dcb0000 	lw	t3,0(t6)
800022a8:	03386021 	addu	t4,t9,t8
800022ac:	018ba021 	addu	s4,t4,t3
800022b0:	028ac821 	addu	t9,s4,t2
800022b4:	0003b882 	srl	s7,v1,0x2
800022b8:	00031f80 	sll	v1,v1,0x1e
800022bc:	00195140 	sll	t2,t9,0x5
800022c0:	001996c2 	srl	s2,t9,0x1b
800022c4:	00771825 	or	v1,v1,s7
800022c8:	01525825 	or	t3,t2,s2
800022cc:	01a3b826 	xor	s7,t5,v1
800022d0:	016fa021 	addu	s4,t3,t7
800022d4:	033e5026 	xor	t2,t9,s8
800022d8:	00196082 	srl	t4,t9,0x2
800022dc:	0019c780 	sll	t8,t9,0x1e
800022e0:	02e29026 	xor	s2,s7,v0
800022e4:	25d30004 	addiu	s3,t6,4
800022e8:	02545821 	addu	t3,s2,s4
800022ec:	030c6025 	or	t4,t8,t4
800022f0:	17f3ffaf 	bne	ra,s3,800021b0 <sha_stream+0xf50>
800022f4:	0143a026 	xor	s4,t2,v1
800022f8:	0019f940 	sll	ra,t9,0x5
800022fc:	001976c2 	srl	t6,t9,0x1b
80002300:	3c0f8f1b 	lui	t7,0x8f1b
80002304:	03eec025 	or	t8,ra,t6
80002308:	8fbe02b0 	lw	s8,688(sp)
8000230c:	35efbcdc 	ori	t7,t7,0xbcdc
80002310:	00629825 	or	s3,v1,v0
80002314:	026d5024 	and	t2,s3,t5
80002318:	00626024 	and	t4,v1,v0
8000231c:	030fb821 	addu	s7,t8,t7
80002320:	014c9025 	or	s2,t2,t4
80002324:	02fe5821 	addu	t3,s7,s8
80002328:	000df882 	srl	ra,t5,0x2
8000232c:	024ba021 	addu	s4,s2,t3
80002330:	000d6f80 	sll	t5,t5,0x1e
80002334:	26b800f0 	addiu	t8,s5,240
80002338:	27ae02b4 	addiu	t6,sp,692
8000233c:	01bf6025 	or	t4,t5,ra
80002340:	10000012 	b	8000238c <sha_stream+0x112c>
80002344:	02842021 	addu	a0,s4,a0
	...
80002350:	8dc40004 	lw	a0,4(t6)
80002354:	8dca0008 	lw	t2,8(t6)
80002358:	02e49821 	addu	s3,s7,a0
8000235c:	03d3c821 	addu	t9,s8,s3
80002360:	0323c821 	addu	t9,t9,v1
80002364:	0019a140 	sll	s4,t9,0x5
80002368:	0019bec2 	srl	s7,t9,0x1b
8000236c:	0297f025 	or	s8,s4,s7
80002370:	03cf1821 	addu	v1,s8,t7
80002374:	006a2021 	addu	a0,v1,t2
80002378:	02449021 	addu	s2,s2,a0
8000237c:	024c2021 	addu	a0,s2,t4
80002380:	25ce000c 	addiu	t6,t6,12
80002384:	01a01825 	move	v1,t5
80002388:	017f6025 	or	t4,t3,ra
8000238c:	0004f082 	srl	s8,a0,0x2
80002390:	00049f80 	sll	s3,a0,0x1e
80002394:	00049140 	sll	s2,a0,0x5
80002398:	0004fec2 	srl	ra,a0,0x1b
8000239c:	027e6825 	or	t5,s3,s8
800023a0:	8dd40000 	lw	s4,0(t6)
800023a4:	025ff025 	or	s8,s2,ra
800023a8:	0183b825 	or	s7,t4,v1
800023ac:	02f99024 	and	s2,s7,t9
800023b0:	03cff821 	addu	ra,s8,t7
800023b4:	01839824 	and	s3,t4,v1
800023b8:	0253b825 	or	s7,s2,s3
800023bc:	03f45021 	addu	t2,ra,s4
800023c0:	0019f082 	srl	s8,t9,0x2
800023c4:	0019a780 	sll	s4,t9,0x1e
800023c8:	02eac821 	addu	t9,s7,t2
800023cc:	03225021 	addu	t2,t9,v0
800023d0:	000a1140 	sll	v0,t2,0x5
800023d4:	000a5ec2 	srl	t3,t2,0x1b
800023d8:	004b9025 	or	s2,v0,t3
800023dc:	029e1025 	or	v0,s4,s8
800023e0:	004cf025 	or	s8,v0,t4
800023e4:	03c4c824 	and	t9,s8,a0
800023e8:	004ca024 	and	s4,v0,t4
800023ec:	024fb821 	addu	s7,s2,t7
800023f0:	01a29025 	or	s2,t5,v0
800023f4:	0334f025 	or	s8,t9,s4
800023f8:	25d30004 	addiu	s3,t6,4
800023fc:	024aa024 	and	s4,s2,t2
80002400:	01a2c824 	and	t9,t5,v0
80002404:	000af882 	srl	ra,t2,0x2
80002408:	000a5f80 	sll	t3,t2,0x1e
8000240c:	1713ffd0 	bne	t8,s3,80002350 <sha_stream+0x10f0>
80002410:	02999025 	or	s2,s4,t9
80002414:	000a7940 	sll	t7,t2,0x5
80002418:	000a6ec2 	srl	t5,t2,0x1b
8000241c:	3c0eca62 	lui	t6,0xca62
80002420:	01ed9825 	or	s3,t7,t5
80002424:	0082c026 	xor	t8,a0,v0
80002428:	35cec1d6 	ori	t6,t6,0xc1d6
8000242c:	026e5821 	addu	t3,s3,t6
80002430:	8fb70300 	lw	s7,768(sp)
80002434:	030cf826 	xor	ra,t8,t4
80002438:	03ebf021 	addu	s8,ra,t3
8000243c:	0004c882 	srl	t9,a0,0x2
80002440:	03d7a021 	addu	s4,s8,s7
80002444:	00042780 	sll	a0,a0,0x1e
80002448:	26af0140 	addiu	t7,s5,320
8000244c:	27ad0304 	addiu	t5,sp,772
80002450:	00995825 	or	t3,a0,t9
80002454:	10000035 	b	8000252c <sha_stream+0x12cc>
80002458:	02831821 	addu	v1,s4,v1
8000245c:	00000000 	nop
80002460:	8db80004 	lw	t8,4(t5)
80002464:	8daa0008 	lw	t2,8(t5)
80002468:	02789021 	addu	s2,s3,t8
8000246c:	0242a021 	addu	s4,s2,v0
80002470:	00149940 	sll	s3,s4,0x5
80002474:	0014cec2 	srl	t9,s4,0x1b
80002478:	02796025 	or	t4,s3,t9
8000247c:	018e1821 	addu	v1,t4,t6
80002480:	03e3f821 	addu	ra,ra,v1
80002484:	03ea1021 	addu	v0,ra,t2
80002488:	004b9021 	addu	s2,v0,t3
8000248c:	0012c140 	sll	t8,s2,0x5
80002490:	001256c2 	srl	t2,s2,0x1b
80002494:	030a9825 	or	s3,t8,t2
80002498:	02845826 	xor	t3,s4,a0
8000249c:	01771826 	xor	v1,t3,s7
800024a0:	8db9000c 	lw	t9,12(t5)
800024a4:	026e6021 	addu	t4,s3,t6
800024a8:	006cf821 	addu	ra,v1,t4
800024ac:	03f91021 	addu	v0,ra,t9
800024b0:	005ef021 	addu	s8,v0,s8
800024b4:	0014c082 	srl	t8,s4,0x2
800024b8:	0014a780 	sll	s4,s4,0x1e
800024bc:	02986025 	or	t4,s4,t8
800024c0:	001e5940 	sll	t3,s8,0x5
800024c4:	001e9ec2 	srl	s3,s8,0x1b
800024c8:	01731825 	or	v1,t3,s3
800024cc:	024c5026 	xor	t2,s2,t4
800024d0:	8db90010 	lw	t9,16(t5)
800024d4:	0144f826 	xor	ra,t2,a0
800024d8:	006e1021 	addu	v0,v1,t6
800024dc:	03e2c021 	addu	t8,ra,v0
800024e0:	0319a021 	addu	s4,t8,t9
800024e4:	02975021 	addu	t2,s4,s7
800024e8:	0012b882 	srl	s7,s2,0x2
800024ec:	00129780 	sll	s2,s2,0x1e
800024f0:	02571025 	or	v0,s2,s7
800024f4:	000a5940 	sll	t3,t2,0x5
800024f8:	000a9ec2 	srl	s3,t2,0x1b
800024fc:	01731825 	or	v1,t3,s3
80002500:	03c2f826 	xor	ra,s8,v0
80002504:	8db90014 	lw	t9,20(t5)
80002508:	006ea021 	addu	s4,v1,t6
8000250c:	03ecc026 	xor	t8,ra,t4
80002510:	0314b821 	addu	s7,t8,s4
80002514:	001e5882 	srl	t3,s8,0x2
80002518:	02f99021 	addu	s2,s7,t9
8000251c:	001ef780 	sll	s8,s8,0x1e
80002520:	25ad0018 	addiu	t5,t5,24
80002524:	03cb5825 	or	t3,s8,t3
80002528:	02441821 	addu	v1,s2,a0
8000252c:	00039082 	srl	s2,v1,0x2
80002530:	0003c780 	sll	t8,v1,0x1e
80002534:	0003f940 	sll	ra,v1,0x5
80002538:	0003cec2 	srl	t9,v1,0x1b
8000253c:	0312b825 	or	s7,t8,s2
80002540:	014b9826 	xor	s3,t2,t3
80002544:	03f99025 	or	s2,ra,t9
80002548:	02622026 	xor	a0,s3,v0
8000254c:	024ef821 	addu	ra,s2,t6
80002550:	8db80000 	lw	t8,0(t5)
80002554:	009fc821 	addu	t9,a0,ra
80002558:	03389821 	addu	s3,t9,t8
8000255c:	026c6021 	addu	t4,s3,t4
80002560:	000af082 	srl	s8,t2,0x2
80002564:	000a5780 	sll	t2,t2,0x1e
80002568:	000c9140 	sll	s2,t4,0x5
8000256c:	000cc6c2 	srl	t8,t4,0x1b
80002570:	015ef025 	or	s8,t2,s8
80002574:	02582025 	or	a0,s2,t8
80002578:	007e5026 	xor	t2,v1,s8
8000257c:	008e9821 	addu	s3,a0,t6
80002580:	0197f826 	xor	ra,t4,s7
80002584:	000c9082 	srl	s2,t4,0x2
80002588:	000ccf80 	sll	t9,t4,0x1e
8000258c:	014bc026 	xor	t8,t2,t3
80002590:	25b40004 	addiu	s4,t5,4
80002594:	03322025 	or	a0,t9,s2
80002598:	03139821 	addu	s3,t8,s3
8000259c:	15f4ffb0 	bne	t7,s4,80002460 <sha_stream+0x1200>
800025a0:	03fef826 	xor	ra,ra,s8
800025a4:	00c33021 	addu	a2,a2,v1
800025a8:	00ab2821 	addu	a1,a1,t3
800025ac:	00ec3821 	addu	a3,a3,t4
800025b0:	011e4021 	addu	t0,t0,s8
800025b4:	01224821 	addu	t1,t1,v0
800025b8:	8fa40358 	lw	a0,856(sp)
800025bc:	aec60004 	sw	a2,4(s6)
800025c0:	aec5000c 	sw	a1,12(s6)
800025c4:	aec70000 	sw	a3,0(s6)
800025c8:	aec80008 	sw	t0,8(s6)
800025cc:	aec90010 	sw	t1,16(s6)
800025d0:	24060038 	li	a2,56
800025d4:	0c000d9e 	jal	80003678 <memset>
800025d8:	00002825 	move	a1,zero
800025dc:	8ecf003c 	lw	t7,60(s6)
800025e0:	8ec2004c 	lw	v0,76(s6)
800025e4:	8ed7001c 	lw	s7,28(s6)
800025e8:	8ed40020 	lw	s4,32(s6)
800025ec:	8eca0024 	lw	t2,36(s6)
800025f0:	8ec70028 	lw	a3,40(s6)
800025f4:	8ec5002c 	lw	a1,44(s6)
800025f8:	8ec90030 	lw	t1,48(s6)
800025fc:	8ec80034 	lw	t0,52(s6)
80002600:	8ecc0038 	lw	t4,56(s6)
80002604:	8ece0040 	lw	t6,64(s6)
80002608:	8ecd0044 	lw	t5,68(s6)
8000260c:	8ecb0048 	lw	t3,72(s6)
80002610:	8ec60050 	lw	a2,80(s6)
80002614:	afaf0230 	sw	t7,560(sp)
80002618:	afa20240 	sw	v0,576(sp)
8000261c:	02202025 	move	a0,s1
80002620:	02001825 	move	v1,s0
80002624:	aed10054 	sw	s1,84(s6)
80002628:	aed00058 	sw	s0,88(s6)
8000262c:	afb70210 	sw	s7,528(sp)
80002630:	afb40214 	sw	s4,532(sp)
80002634:	afaa0218 	sw	t2,536(sp)
80002638:	afa7021c 	sw	a3,540(sp)
8000263c:	afa50220 	sw	a1,544(sp)
80002640:	afa90224 	sw	t1,548(sp)
80002644:	afa80228 	sw	t0,552(sp)
80002648:	afac022c 	sw	t4,556(sp)
8000264c:	afae0234 	sw	t6,564(sp)
80002650:	afad0238 	sw	t5,568(sp)
80002654:	afab023c 	sw	t3,572(sp)
80002658:	afa60244 	sw	a2,580(sp)
8000265c:	afb10248 	sw	s1,584(sp)
80002660:	afb0024c 	sw	s0,588(sp)
80002664:	02a01025 	move	v0,s5
80002668:	240f0010 	li	t7,16
8000266c:	2418004f 	li	t8,79
80002670:	8c5e0020 	lw	s8,32(v0)
80002674:	8c5f0024 	lw	ra,36(v0)
80002678:	8c570028 	lw	s7,40(v0)
8000267c:	00e42026 	xor	a0,a3,a0
80002680:	01465026 	xor	t2,t2,a2
80002684:	00a31826 	xor	v1,a1,v1
80002688:	8c520000 	lw	s2,0(v0)
8000268c:	8c590004 	lw	t9,4(v0)
80002690:	8c530008 	lw	s3,8(v0)
80002694:	009f2826 	xor	a1,a0,ra
80002698:	015e3826 	xor	a3,t2,s8
8000269c:	0077a026 	xor	s4,v1,s7
800026a0:	00f23026 	xor	a2,a3,s2
800026a4:	00b97026 	xor	t6,a1,t9
800026a8:	02936826 	xor	t5,s4,s3
800026ac:	25e40003 	addiu	a0,t7,3
800026b0:	24510018 	addiu	s1,v0,24
800026b4:	24500024 	addiu	s0,v0,36
800026b8:	01264826 	xor	t1,t1,a2
800026bc:	010e4026 	xor	t0,t0,t6
800026c0:	018d6026 	xor	t4,t4,t5
800026c4:	ac460040 	sw	a2,64(v0)
800026c8:	ac4e0044 	sw	t6,68(v0)
800026cc:	ac4d0048 	sw	t5,72(v0)
800026d0:	10980037 	beq	a0,t8,800027b0 <sha_stream+0x1550>
800026d4:	244b000c 	addiu	t3,v0,12
800026d8:	8d6d0020 	lw	t5,32(t3)
800026dc:	8d790024 	lw	t9,36(t3)
800026e0:	8d6e0028 	lw	t6,40(t3)
800026e4:	8c53000c 	lw	s3,12(v0)
800026e8:	8d6a0004 	lw	t2,4(t3)
800026ec:	8d670008 	lw	a3,8(t3)
800026f0:	01199026 	xor	s2,t0,t9
800026f4:	012d4826 	xor	t1,t1,t5
800026f8:	018e6026 	xor	t4,t4,t6
800026fc:	0133a026 	xor	s4,t1,s3
80002700:	024a2026 	xor	a0,s2,t2
80002704:	01873026 	xor	a2,t4,a3
80002708:	ad740040 	sw	s4,64(t3)
8000270c:	ad640044 	sw	a0,68(t3)
80002710:	ad660048 	sw	a2,72(t3)
80002714:	8e2a0020 	lw	t2,32(s1)
80002718:	8e270024 	lw	a3,36(s1)
8000271c:	8e250028 	lw	a1,40(s1)
80002720:	8c480018 	lw	t0,24(v0)
80002724:	8e330004 	lw	s3,4(s1)
80002728:	8e290008 	lw	t1,8(s1)
8000272c:	02e65826 	xor	t3,s7,a2
80002730:	03d4f026 	xor	s8,s8,s4
80002734:	03e4f826 	xor	ra,ra,a0
80002738:	03e71826 	xor	v1,ra,a3
8000273c:	03cab826 	xor	s7,s8,t2
80002740:	01659026 	xor	s2,t3,a1
80002744:	02e86026 	xor	t4,s7,t0
80002748:	0073a026 	xor	s4,v1,s3
8000274c:	02499826 	xor	s3,s2,t1
80002750:	ae2c0040 	sw	t4,64(s1)
80002754:	ae340044 	sw	s4,68(s1)
80002758:	ae330048 	sw	s3,72(s1)
8000275c:	01ac6826 	xor	t5,t5,t4
80002760:	8e090020 	lw	t1,32(s0)
80002764:	8e080024 	lw	t0,36(s0)
80002768:	8e0c0028 	lw	t4,40(s0)
8000276c:	8c5e0024 	lw	s8,36(v0)
80002770:	8e110004 	lw	s1,4(s0)
80002774:	8e1f0008 	lw	ra,8(s0)
80002778:	0334c826 	xor	t9,t9,s4
8000277c:	01d37026 	xor	t6,t6,s3
80002780:	01a93026 	xor	a2,t5,t1
80002784:	03282026 	xor	a0,t9,t0
80002788:	01cc5826 	xor	t3,t6,t4
8000278c:	00de3026 	xor	a2,a2,s8
80002790:	00912026 	xor	a0,a0,s1
80002794:	017f1826 	xor	v1,t3,ra
80002798:	ae060040 	sw	a2,64(s0)
8000279c:	ae040044 	sw	a0,68(s0)
800027a0:	ae030048 	sw	v1,72(s0)
800027a4:	25ef000c 	addiu	t7,t7,12
800027a8:	1000ffb1 	b	80002670 <sha_stream+0x1410>
800027ac:	24420030 	addiu	v0,v0,48
800027b0:	8ecb0000 	lw	t3,0(s6)
800027b4:	8ec9000c 	lw	t1,12(s6)
800027b8:	8ecc0008 	lw	t4,8(s6)
800027bc:	8eca0004 	lw	t2,4(s6)
800027c0:	000bc140 	sll	t8,t3,0x5
800027c4:	000b7ec2 	srl	t7,t3,0x1b
800027c8:	3c025a82 	lui	v0,0x5a82
800027cc:	8fbf032c 	lw	ra,812(sp)
800027d0:	8fb70340 	lw	s7,832(sp)
800027d4:	030f8025 	or	s0,t8,t7
800027d8:	8eb10000 	lw	s1,0(s5)
800027dc:	8fa30314 	lw	v1,788(sp)
800027e0:	24457999 	addiu	a1,v0,31129
800027e4:	0189f026 	xor	s8,t4,t1
800027e8:	8fa6030c 	lw	a2,780(sp)
800027ec:	03f7c826 	xor	t9,ra,s7
800027f0:	02059821 	addu	s3,s0,a1
800027f4:	03caa024 	and	s4,s8,t2
800027f8:	03233826 	xor	a3,t9,v1
800027fc:	02714021 	addu	t0,s3,s1
80002800:	02896826 	xor	t5,s4,t1
80002804:	8ece0010 	lw	t6,16(s6)
80002808:	00e69026 	xor	s2,a3,a2
8000280c:	010d1021 	addu	v0,t0,t5
80002810:	000a2082 	srl	a0,t2,0x2
80002814:	000a8780 	sll	s0,t2,0x1e
80002818:	afb2034c 	sw	s2,844(sp)
8000281c:	26b90050 	addiu	t9,s5,80
80002820:	26b80004 	addiu	t8,s5,4
80002824:	01607825 	move	t7,t3
80002828:	01206825 	move	t5,t1
8000282c:	01808825 	move	s1,t4
80002830:	02043025 	or	a2,s0,a0
80002834:	10000038 	b	80002918 <sha_stream+0x16b8>
80002838:	004e1821 	addu	v1,v0,t6
8000283c:	00000000 	nop
80002840:	8f1e0004 	lw	s8,4(t8)
80002844:	8f0f0008 	lw	t7,8(t8)
80002848:	03fe6821 	addu	t5,ra,s8
8000284c:	01b29821 	addu	s3,t5,s2
80002850:	02713821 	addu	a3,s3,s1
80002854:	00071940 	sll	v1,a3,0x5
80002858:	000726c2 	srl	a0,a3,0x1b
8000285c:	00649025 	or	s2,v1,a0
80002860:	0245f821 	addu	ra,s2,a1
80002864:	03ef8821 	addu	s1,ra,t7
80002868:	0234a021 	addu	s4,s1,s4
8000286c:	02863021 	addu	a2,s4,a2
80002870:	0006f140 	sll	s8,a2,0x5
80002874:	00067ec2 	srl	t7,a2,0x1b
80002878:	03cf9825 	or	s3,s8,t7
8000287c:	8f0d000c 	lw	t5,12(t8)
80002880:	02651821 	addu	v1,s3,a1
80002884:	02078024 	and	s0,s0,a3
80002888:	006d2021 	addu	a0,v1,t5
8000288c:	02179026 	xor	s2,s0,s7
80002890:	0092f821 	addu	ra,a0,s2
80002894:	03e84021 	addu	t0,ra,t0
80002898:	0007a082 	srl	s4,a3,0x2
8000289c:	00073f80 	sll	a3,a3,0x1e
800028a0:	00f46825 	or	t5,a3,s4
800028a4:	00088940 	sll	s1,t0,0x5
800028a8:	0008f6c2 	srl	s8,t0,0x1b
800028ac:	023e7825 	or	t7,s1,s8
800028b0:	8f130010 	lw	s3,16(t8)
800028b4:	01a21826 	xor	v1,t5,v0
800028b8:	00662024 	and	a0,v1,a2
800028bc:	01e58021 	addu	s0,t7,a1
800028c0:	02139021 	addu	s2,s0,s3
800028c4:	0082f826 	xor	ra,a0,v0
800028c8:	025fa021 	addu	s4,s2,ra
800028cc:	02977821 	addu	t7,s4,s7
800028d0:	0006b882 	srl	s7,a2,0x2
800028d4:	00063780 	sll	a2,a2,0x1e
800028d8:	00d78825 	or	s1,a2,s7
800028dc:	000f3940 	sll	a3,t7,0x5
800028e0:	000ff6c2 	srl	s8,t7,0x1b
800028e4:	8f130014 	lw	s3,20(t8)
800028e8:	00fe1825 	or	v1,a3,s8
800028ec:	022d8026 	xor	s0,s1,t5
800028f0:	00659021 	addu	s2,v1,a1
800028f4:	02082024 	and	a0,s0,t0
800028f8:	0253f821 	addu	ra,s2,s3
800028fc:	008da026 	xor	s4,a0,t5
80002900:	00083082 	srl	a2,t0,0x2
80002904:	03f4b821 	addu	s7,ra,s4
80002908:	00084780 	sll	t0,t0,0x1e
8000290c:	27180018 	addiu	t8,t8,24
80002910:	01063025 	or	a2,t0,a2
80002914:	02e21821 	addu	v1,s7,v0
80002918:	00032140 	sll	a0,v1,0x5
8000291c:	000316c2 	srl	v0,v1,0x1b
80002920:	00829025 	or	s2,a0,v0
80002924:	8f140000 	lw	s4,0(t8)
80002928:	0003f082 	srl	s8,v1,0x2
8000292c:	0003ff80 	sll	ra,v1,0x1e
80002930:	00d19826 	xor	s3,a2,s1
80002934:	03feb825 	or	s7,ra,s8
80002938:	026ff024 	and	s8,s3,t7
8000293c:	0245f821 	addu	ra,s2,a1
80002940:	03f41021 	addu	v0,ra,s4
80002944:	03d12026 	xor	a0,s8,s1
80002948:	000fa082 	srl	s4,t7,0x2
8000294c:	000f3f80 	sll	a3,t7,0x1e
80002950:	00447821 	addu	t7,v0,a0
80002954:	01ed6821 	addu	t5,t7,t5
80002958:	000d9940 	sll	s3,t5,0x5
8000295c:	000d46c2 	srl	t0,t5,0x1b
80002960:	02689025 	or	s2,s3,t0
80002964:	00f44025 	or	t0,a3,s4
80002968:	000d8082 	srl	s0,t5,0x2
8000296c:	0106a026 	xor	s4,t0,a2
80002970:	000d2780 	sll	a0,t5,0x1e
80002974:	02e87826 	xor	t7,s7,t0
80002978:	02833824 	and	a3,s4,v1
8000297c:	00901025 	or	v0,a0,s0
80002980:	01ed9824 	and	s3,t7,t5
80002984:	271e0004 	addiu	s8,t8,4
80002988:	0245f821 	addu	ra,s2,a1
8000298c:	00578026 	xor	s0,v0,s7
80002990:	00e69026 	xor	s2,a3,a2
80002994:	173effaa 	bne	t9,s8,80002840 <sha_stream+0x15e0>
80002998:	0268a026 	xor	s4,s3,t0
8000299c:	000dc6c2 	srl	t8,t5,0x1b
800029a0:	000d2940 	sll	a1,t5,0x5
800029a4:	3c196ed9 	lui	t9,0x6ed9
800029a8:	00b8b825 	or	s7,a1,t8
800029ac:	0068f026 	xor	s8,v1,t0
800029b0:	3739eba1 	ori	t9,t9,0xeba1
800029b4:	03c61026 	xor	v0,s8,a2
800029b8:	8fbf0260 	lw	ra,608(sp)
800029bc:	02f92021 	addu	a0,s7,t9
800029c0:	00828021 	addu	s0,a0,v0
800029c4:	021f3821 	addu	a3,s0,ra
800029c8:	00039082 	srl	s2,v1,0x2
800029cc:	00031f80 	sll	v1,v1,0x1e
800029d0:	26b000a0 	addiu	s0,s5,160
800029d4:	27b80264 	addiu	t8,sp,612
800029d8:	00721025 	or	v0,v1,s2
800029dc:	10000037 	b	80002abc <sha_stream+0x185c>
800029e0:	00f18821 	addu	s1,a3,s1
	...
800029f0:	8f050004 	lw	a1,4(t8)
800029f4:	8f070008 	lw	a3,8(t8)
800029f8:	0065b821 	addu	s7,v1,a1
800029fc:	02e88821 	addu	s1,s7,t0
80002a00:	00111940 	sll	v1,s1,0x5
80002a04:	001126c2 	srl	a0,s1,0x1b
80002a08:	00643025 	or	a2,v1,a0
80002a0c:	00d99021 	addu	s2,a2,t9
80002a10:	025ff821 	addu	ra,s2,ra
80002a14:	03e79821 	addu	s3,ra,a3
80002a18:	02621021 	addu	v0,s3,v0
80002a1c:	00024140 	sll	t0,v0,0x5
80002a20:	00027ec2 	srl	t7,v0,0x1b
80002a24:	010f2825 	or	a1,t0,t7
80002a28:	023e3826 	xor	a3,s1,s8
80002a2c:	00f42026 	xor	a0,a3,s4
80002a30:	8f17000c 	lw	s7,12(t8)
80002a34:	00b91821 	addu	v1,a1,t9
80002a38:	00643021 	addu	a2,v1,a0
80002a3c:	00d79021 	addu	s2,a2,s7
80002a40:	024df821 	addu	ra,s2,t5
80002a44:	00116882 	srl	t5,s1,0x2
80002a48:	00118f80 	sll	s1,s1,0x1e
80002a4c:	022d3025 	or	a2,s1,t5
80002a50:	001f9940 	sll	s3,ra,0x5
80002a54:	001f46c2 	srl	t0,ra,0x1b
80002a58:	02687825 	or	t7,s3,t0
80002a5c:	00462826 	xor	a1,v0,a2
80002a60:	8f170010 	lw	s7,16(t8)
80002a64:	01f91821 	addu	v1,t7,t9
80002a68:	00be3826 	xor	a3,a1,s8
80002a6c:	00672021 	addu	a0,v1,a3
80002a70:	00979021 	addu	s2,a0,s7
80002a74:	02546821 	addu	t5,s2,s4
80002a78:	0002a082 	srl	s4,v0,0x2
80002a7c:	00021780 	sll	v0,v0,0x1e
80002a80:	00544025 	or	t0,v0,s4
80002a84:	000d8940 	sll	s1,t5,0x5
80002a88:	000d9ec2 	srl	s3,t5,0x1b
80002a8c:	02337825 	or	t7,s1,s3
80002a90:	03e8b826 	xor	s7,ra,t0
80002a94:	8f050014 	lw	a1,20(t8)
80002a98:	01f91821 	addu	v1,t7,t9
80002a9c:	02e63826 	xor	a3,s7,a2
80002aa0:	00672021 	addu	a0,v1,a3
80002aa4:	001fa082 	srl	s4,ra,0x2
80002aa8:	00859021 	addu	s2,a0,a1
80002aac:	001fff80 	sll	ra,ra,0x1e
80002ab0:	27180018 	addiu	t8,t8,24
80002ab4:	03f41025 	or	v0,ra,s4
80002ab8:	025e8821 	addu	s1,s2,s8
80002abc:	00112140 	sll	a0,s1,0x5
80002ac0:	00111ec2 	srl	v1,s1,0x1b
80002ac4:	0083f825 	or	ra,a0,v1
80002ac8:	01a22826 	xor	a1,t5,v0
80002acc:	00117882 	srl	t7,s1,0x2
80002ad0:	00119f80 	sll	s3,s1,0x1e
80002ad4:	026fa025 	or	s4,s3,t7
80002ad8:	00a89026 	xor	s2,a1,t0
80002adc:	03f97821 	addu	t7,ra,t9
80002ae0:	8f070000 	lw	a3,0(t8)
80002ae4:	01f29821 	addu	s3,t7,s2
80002ae8:	02672021 	addu	a0,s3,a3
80002aec:	00863021 	addu	a2,a0,a2
80002af0:	000d2882 	srl	a1,t5,0x2
80002af4:	000d6f80 	sll	t5,t5,0x1e
80002af8:	0006f140 	sll	s8,a2,0x5
80002afc:	00061ec2 	srl	v1,a2,0x1b
80002b00:	01a56825 	or	t5,t5,a1
80002b04:	03c3f825 	or	ra,s8,v1
80002b08:	022d2826 	xor	a1,s1,t5
80002b0c:	03f93821 	addu	a3,ra,t9
80002b10:	00d47826 	xor	t7,a2,s4
80002b14:	00069082 	srl	s2,a2,0x2
80002b18:	00069f80 	sll	s3,a2,0x1e
80002b1c:	00a22026 	xor	a0,a1,v0
80002b20:	27170004 	addiu	s7,t8,4
80002b24:	0272f025 	or	s8,s3,s2
80002b28:	00e41821 	addu	v1,a3,a0
80002b2c:	1617ffb0 	bne	s0,s7,800029f0 <sha_stream+0x1790>
80002b30:	01edf826 	xor	ra,t7,t5
80002b34:	000686c2 	srl	s0,a2,0x1b
80002b38:	0006c140 	sll	t8,a2,0x5
80002b3c:	3c198f1b 	lui	t9,0x8f1b
80002b40:	0310b825 	or	s7,t8,s0
80002b44:	01a23825 	or	a3,t5,v0
80002b48:	8fb402b0 	lw	s4,688(sp)
80002b4c:	3739bcdc 	ori	t9,t9,0xbcdc
80002b50:	00f19024 	and	s2,a3,s1
80002b54:	02f97821 	addu	t7,s7,t9
80002b58:	01a29824 	and	s3,t5,v0
80002b5c:	01f4f021 	addu	s8,t7,s4
80002b60:	02532825 	or	a1,s2,s3
80002b64:	0011f882 	srl	ra,s1,0x2
80002b68:	03c51821 	addu	v1,s8,a1
80002b6c:	00118f80 	sll	s1,s1,0x1e
80002b70:	26b000f0 	addiu	s0,s5,240
80002b74:	27af02b4 	addiu	t7,sp,692
80002b78:	023f3825 	or	a3,s1,ra
80002b7c:	10000013 	b	80002bcc <sha_stream+0x196c>
80002b80:	00684021 	addu	t0,v1,t0
	...
80002b90:	8df10004 	lw	s1,4(t7)
80002b94:	8de30008 	lw	v1,8(t7)
80002b98:	0311c021 	addu	t8,t8,s1
80002b9c:	0312f021 	addu	s8,t8,s2
80002ba0:	03cd3021 	addu	a2,s8,t5
80002ba4:	00069140 	sll	s2,a2,0x5
80002ba8:	0006fec2 	srl	ra,a2,0x1b
80002bac:	025fa025 	or	s4,s2,ra
80002bb0:	02994021 	addu	t0,s4,t9
80002bb4:	01036821 	addu	t5,t0,v1
80002bb8:	01b39821 	addu	s3,t5,s3
80002bbc:	02674021 	addu	t0,s3,a3
80002bc0:	25ef000c 	addiu	t7,t7,12
80002bc4:	02e06825 	move	t5,s7
80002bc8:	00853825 	or	a3,a0,a1
80002bcc:	00082082 	srl	a0,t0,0x2
80002bd0:	0008c780 	sll	t8,t0,0x1e
80002bd4:	0304b825 	or	s7,t8,a0
80002bd8:	00082940 	sll	a1,t0,0x5
80002bdc:	000826c2 	srl	a0,t0,0x1b
80002be0:	00a41825 	or	v1,a1,a0
80002be4:	8df20000 	lw	s2,0(t7)
80002be8:	00eda025 	or	s4,a3,t5
80002bec:	0286c024 	and	t8,s4,a2
80002bf0:	00792821 	addu	a1,v1,t9
80002bf4:	00edf824 	and	ra,a3,t5
80002bf8:	00b22021 	addu	a0,a1,s2
80002bfc:	031f9825 	or	s3,t8,ra
80002c00:	00931821 	addu	v1,a0,s3
80002c04:	00621821 	addu	v1,v1,v0
80002c08:	0006f082 	srl	s8,a2,0x2
80002c0c:	00069780 	sll	s2,a2,0x1e
80002c10:	0003f940 	sll	ra,v1,0x5
80002c14:	000316c2 	srl	v0,v1,0x1b
80002c18:	03e28825 	or	s1,ra,v0
80002c1c:	025e1025 	or	v0,s2,s8
80002c20:	0047a025 	or	s4,v0,a3
80002c24:	02e2f825 	or	ra,s7,v0
80002c28:	02889824 	and	s3,s4,t0
80002c2c:	0239c021 	addu	t8,s1,t9
80002c30:	0047f024 	and	s8,v0,a3
80002c34:	03e38824 	and	s1,ra,v1
80002c38:	02e2a024 	and	s4,s7,v0
80002c3c:	25e60004 	addiu	a2,t7,4
80002c40:	027e9025 	or	s2,s3,s8
80002c44:	00032882 	srl	a1,v1,0x2
80002c48:	00032780 	sll	a0,v1,0x1e
80002c4c:	1606ffd0 	bne	s0,a2,80002b90 <sha_stream+0x1930>
80002c50:	02349825 	or	s3,s1,s4
80002c54:	3c0fca62 	lui	t7,0xca62
80002c58:	00038140 	sll	s0,v1,0x5
80002c5c:	0003cec2 	srl	t9,v1,0x1b
80002c60:	35e5c1d6 	ori	a1,t7,0xc1d6
80002c64:	0102b826 	xor	s7,t0,v0
80002c68:	0219c025 	or	t8,s0,t9
80002c6c:	03052021 	addu	a0,t8,a1
80002c70:	8fbe0300 	lw	s8,768(sp)
80002c74:	02e73026 	xor	a2,s7,a3
80002c78:	00c49021 	addu	s2,a2,a0
80002c7c:	00088882 	srl	s1,t0,0x2
80002c80:	025ef821 	addu	ra,s2,s8
80002c84:	00084780 	sll	t0,t0,0x1e
80002c88:	26b80140 	addiu	t8,s5,320
80002c8c:	27af0304 	addiu	t7,sp,772
80002c90:	01114025 	or	t0,t0,s1
80002c94:	10000035 	b	80002d6c <sha_stream+0x1b0c>
80002c98:	03ed6821 	addu	t5,ra,t5
80002c9c:	00000000 	nop
80002ca0:	8ded0004 	lw	t5,4(t7)
80002ca4:	8de70008 	lw	a3,8(t7)
80002ca8:	032d3021 	addu	a2,t9,t5
80002cac:	00c21021 	addu	v0,a2,v0
80002cb0:	00029140 	sll	s2,v0,0x5
80002cb4:	0002fec2 	srl	ra,v0,0x1b
80002cb8:	025f2025 	or	a0,s2,ra
80002cbc:	00858821 	addu	s1,a0,a1
80002cc0:	02711821 	addu	v1,s3,s1
80002cc4:	00678021 	addu	s0,v1,a3
80002cc8:	02084021 	addu	t0,s0,t0
80002ccc:	0008c940 	sll	t9,t0,0x5
80002cd0:	00089ec2 	srl	s3,t0,0x1b
80002cd4:	03333825 	or	a3,t9,s3
80002cd8:	0055f026 	xor	s8,v0,s5
80002cdc:	03d73026 	xor	a2,s8,s7
80002ce0:	8ded000c 	lw	t5,12(t7)
80002ce4:	00e59021 	addu	s2,a3,a1
80002ce8:	00d2f821 	addu	ra,a2,s2
80002cec:	03ed2021 	addu	a0,ra,t5
80002cf0:	0094a021 	addu	s4,a0,s4
80002cf4:	00028882 	srl	s1,v0,0x2
80002cf8:	00021780 	sll	v0,v0,0x1e
80002cfc:	00513825 	or	a3,v0,s1
80002d00:	00148140 	sll	s0,s4,0x5
80002d04:	0014cec2 	srl	t9,s4,0x1b
80002d08:	02199825 	or	s3,s0,t9
80002d0c:	01071826 	xor	v1,t0,a3
80002d10:	8dfe0010 	lw	s8,16(t7)
80002d14:	00756826 	xor	t5,v1,s5
80002d18:	02653021 	addu	a2,s3,a1
80002d1c:	01a69021 	addu	s2,t5,a2
80002d20:	025ef821 	addu	ra,s2,s8
80002d24:	03f71821 	addu	v1,ra,s7
80002d28:	0008b882 	srl	s7,t0,0x2
80002d2c:	00084780 	sll	t0,t0,0x1e
80002d30:	01171025 	or	v0,t0,s7
80002d34:	00032140 	sll	a0,v1,0x5
80002d38:	00038ec2 	srl	s1,v1,0x1b
80002d3c:	02828026 	xor	s0,s4,v0
80002d40:	0091c825 	or	t9,a0,s1
80002d44:	8df30014 	lw	s3,20(t7)
80002d48:	03256821 	addu	t5,t9,a1
80002d4c:	0207f026 	xor	s8,s0,a3
80002d50:	03cd3021 	addu	a2,s8,t5
80002d54:	0014f882 	srl	ra,s4,0x2
80002d58:	00d39021 	addu	s2,a2,s3
80002d5c:	0014a780 	sll	s4,s4,0x1e
80002d60:	25ef0018 	addiu	t7,t7,24
80002d64:	029f4025 	or	t0,s4,ra
80002d68:	02556821 	addu	t5,s2,s5
80002d6c:	000d8140 	sll	s0,t5,0x5
80002d70:	000dcec2 	srl	t9,t5,0x1b
80002d74:	02199025 	or	s2,s0,t9
80002d78:	00689826 	xor	s3,v1,t0
80002d7c:	02622026 	xor	a0,s3,v0
80002d80:	02458821 	addu	s1,s2,a1
80002d84:	8dff0000 	lw	ra,0(t7)
80002d88:	000da882 	srl	s5,t5,0x2
80002d8c:	000da780 	sll	s4,t5,0x1e
80002d90:	0295b825 	or	s7,s4,s5
80002d94:	0091a821 	addu	s5,a0,s1
80002d98:	02bf8021 	addu	s0,s5,ra
80002d9c:	02073821 	addu	a3,s0,a3
80002da0:	0003a082 	srl	s4,v1,0x2
80002da4:	00031f80 	sll	v1,v1,0x1e
80002da8:	0007c940 	sll	t9,a3,0x5
80002dac:	00079ec2 	srl	s3,a3,0x1b
80002db0:	0074a025 	or	s4,v1,s4
80002db4:	03333025 	or	a2,t9,s3
80002db8:	01b41826 	xor	v1,t5,s4
80002dbc:	00c59021 	addu	s2,a2,a1
80002dc0:	00f7f826 	xor	ra,a3,s7
80002dc4:	00072082 	srl	a0,a3,0x2
80002dc8:	00078f80 	sll	s1,a3,0x1e
80002dcc:	00688026 	xor	s0,v1,t0
80002dd0:	25fe0004 	addiu	s8,t7,4
80002dd4:	0224a825 	or	s5,s1,a0
80002dd8:	0212c821 	addu	t9,s0,s2
80002ddc:	171effb0 	bne	t8,s8,80002ca0 <sha_stream+0x1a40>
80002de0:	03f49826 	xor	s3,ra,s4
80002de4:	8fbf038c 	lw	ra,908(sp)
80002de8:	01946021 	addu	t4,t4,s4
80002dec:	01675821 	addu	t3,t3,a3
80002df0:	014d5021 	addu	t2,t2,t5
80002df4:	01284821 	addu	t1,t1,t0
80002df8:	01c27021 	addu	t6,t6,v0
80002dfc:	8fbe0388 	lw	s8,904(sp)
80002e00:	8fb70384 	lw	s7,900(sp)
80002e04:	8fb5037c 	lw	s5,892(sp)
80002e08:	8fb40378 	lw	s4,888(sp)
80002e0c:	8fb30374 	lw	s3,884(sp)
80002e10:	8fb20370 	lw	s2,880(sp)
80002e14:	8fb1036c 	lw	s1,876(sp)
80002e18:	8fb00368 	lw	s0,872(sp)
80002e1c:	aecb0000 	sw	t3,0(s6)
80002e20:	aeca0004 	sw	t2,4(s6)
80002e24:	aecc0008 	sw	t4,8(s6)
80002e28:	aec9000c 	sw	t1,12(s6)
80002e2c:	aece0010 	sw	t6,16(s6)
80002e30:	8fb60380 	lw	s6,896(sp)
80002e34:	03e00008 	jr	ra
80002e38:	27bd0390 	addiu	sp,sp,912
80002e3c:	00000000 	nop
80002e40:	241f0038 	li	ra,56
80002e44:	03f43023 	subu	a2,ra,s4
80002e48:	0c000d9e 	jal	80003678 <memset>
80002e4c:	00002825 	move	a1,zero
80002e50:	1000fde2 	b	800025dc <sha_stream+0x137c>
80002e54:	00000000 	nop
	...

80002e60 <sha_print>:
sha_print():
80002e60:	8c830010 	lw	v1,16(a0)
80002e64:	8c82000c 	lw	v0,12(a0)
80002e68:	27bdffe0 	addiu	sp,sp,-32
80002e6c:	8c870008 	lw	a3,8(a0)
80002e70:	8c860004 	lw	a2,4(a0)
80002e74:	8c850000 	lw	a1,0(a0)
80002e78:	3c048000 	lui	a0,0x8000
80002e7c:	afa30014 	sw	v1,20(sp)
80002e80:	afa20010 	sw	v0,16(sp)
80002e84:	afbf001c 	sw	ra,28(sp)
80002e88:	0c000bc0 	jal	80002f00 <printf>
80002e8c:	24844224 	addiu	a0,a0,16932
80002e90:	8fbf001c 	lw	ra,28(sp)
80002e94:	00000000 	nop
80002e98:	03e00008 	jr	ra
80002e9c:	27bd0020 	addiu	sp,sp,32

80002ea0 <get_epc>:
get_epc():
80002ea0:	40027000 	mfc0	v0,c0_epc
80002ea4:	03e00008 	jr	ra
80002ea8:	00000000 	nop

80002eac <get_cause>:
get_cause():
80002eac:	40026800 	mfc0	v0,c0_cause
80002eb0:	03e00008 	jr	ra
80002eb4:	00000000 	nop

80002eb8 <exception>:
exception():
80002eb8:	3c048000 	lui	a0,0x8000
80002ebc:	27bdffe8 	addiu	sp,sp,-24
80002ec0:	afbf0014 	sw	ra,20(sp)
80002ec4:	0c000bc0 	jal	80002f00 <printf>
80002ec8:	24844244 	addiu	a0,a0,16964
80002ecc:	3c048000 	lui	a0,0x8000
80002ed0:	24844260 	addiu	a0,a0,16992
80002ed4:	40057000 	mfc0	a1,c0_epc
80002ed8:	0c000bc0 	jal	80002f00 <printf>
80002edc:	00000000 	nop
80002ee0:	8fbf0014 	lw	ra,20(sp)
80002ee4:	3c048000 	lui	a0,0x8000
80002ee8:	24844270 	addiu	a0,a0,17008
80002eec:	27bd0018 	addiu	sp,sp,24
80002ef0:	40056800 	mfc0	a1,c0_cause
80002ef4:	08000bc0 	j	80002f00 <printf>
80002ef8:	00000000 	nop
80002efc:	00000000 	nop

80002f00 <printf>:
printf():
80002f00:	27bdffd0 	addiu	sp,sp,-48
80002f04:	afb30024 	sw	s3,36(sp)
80002f08:	afbf002c 	sw	ra,44(sp)
80002f0c:	afb40028 	sw	s4,40(sp)
80002f10:	afb20020 	sw	s2,32(sp)
80002f14:	afb1001c 	sw	s1,28(sp)
80002f18:	afb00018 	sw	s0,24(sp)
80002f1c:	80900000 	lb	s0,0(a0)
80002f20:	27b30034 	addiu	s3,sp,52
80002f24:	afa50034 	sw	a1,52(sp)
80002f28:	afa60038 	sw	a2,56(sp)
80002f2c:	afa7003c 	sw	a3,60(sp)
80002f30:	12000024 	beqz	s0,80002fc4 <printf+0xc4>
80002f34:	afb30010 	sw	s3,16(sp)
80002f38:	3c148000 	lui	s4,0x8000
80002f3c:	00809025 	move	s2,a0
80002f40:	00008825 	move	s1,zero
80002f44:	10000009 	b	80002f6c <printf+0x6c>
80002f48:	26944290 	addiu	s4,s4,17040
80002f4c:	0c000c50 	jal	80003140 <putchar>
80002f50:	02002025 	move	a0,s0
80002f54:	26310001 	addiu	s1,s1,1
80002f58:	02511021 	addu	v0,s2,s1
80002f5c:	80500000 	lb	s0,0(v0)
80002f60:	00000000 	nop
80002f64:	12000017 	beqz	s0,80002fc4 <printf+0xc4>
80002f68:	00000000 	nop
80002f6c:	24020025 	li	v0,37
80002f70:	12020007 	beq	s0,v0,80002f90 <printf+0x90>
80002f74:	2402000a 	li	v0,10
80002f78:	1602fff4 	bne	s0,v0,80002f4c <printf+0x4c>
80002f7c:	00000000 	nop
80002f80:	0c000c50 	jal	80003140 <putchar>
80002f84:	2404000d 	li	a0,13
80002f88:	1000fff0 	b	80002f4c <printf+0x4c>
80002f8c:	00000000 	nop
80002f90:	02511021 	addu	v0,s2,s1
80002f94:	80440001 	lb	a0,1(v0)
80002f98:	24050001 	li	a1,1
80002f9c:	2482ffdb 	addiu	v0,a0,-37
80002fa0:	304200ff 	andi	v0,v0,0xff
80002fa4:	2c430054 	sltiu	v1,v0,84
80002fa8:	10600028 	beqz	v1,8000304c <printf+0x14c>
80002fac:	00021080 	sll	v0,v0,0x2
80002fb0:	02821021 	addu	v0,s4,v0
80002fb4:	8c420000 	lw	v0,0(v0)
80002fb8:	00000000 	nop
80002fbc:	00400008 	jr	v0
80002fc0:	00000000 	nop
80002fc4:	8fbf002c 	lw	ra,44(sp)
80002fc8:	8fb40028 	lw	s4,40(sp)
80002fcc:	8fb30024 	lw	s3,36(sp)
80002fd0:	8fb20020 	lw	s2,32(sp)
80002fd4:	8fb1001c 	lw	s1,28(sp)
80002fd8:	8fb00018 	lw	s0,24(sp)
80002fdc:	00001025 	move	v0,zero
80002fe0:	03e00008 	jr	ra
80002fe4:	27bd0030 	addiu	sp,sp,48
80002fe8:	02511021 	addu	v0,s2,s1
80002fec:	80440002 	lb	a0,2(v0)
80002ff0:	26310001 	addiu	s1,s1,1
80002ff4:	2482ffcf 	addiu	v0,a0,-49
80002ff8:	304200ff 	andi	v0,v0,0xff
80002ffc:	2c420009 	sltiu	v0,v0,9
80003000:	1040ffe6 	beqz	v0,80002f9c <printf+0x9c>
80003004:	00002825 	move	a1,zero
80003008:	26310001 	addiu	s1,s1,1
8000300c:	02511021 	addu	v0,s2,s1
80003010:	2486ffd0 	addiu	a2,a0,-48
80003014:	80440001 	lb	a0,1(v0)
80003018:	00051880 	sll	v1,a1,0x2
8000301c:	2482ffcf 	addiu	v0,a0,-49
80003020:	00652821 	addu	a1,v1,a1
80003024:	304200ff 	andi	v0,v0,0xff
80003028:	00052840 	sll	a1,a1,0x1
8000302c:	2c420009 	sltiu	v0,v0,9
80003030:	1440fff5 	bnez	v0,80003008 <printf+0x108>
80003034:	00c52821 	addu	a1,a2,a1
80003038:	2482ffdb 	addiu	v0,a0,-37
8000303c:	304200ff 	andi	v0,v0,0xff
80003040:	2c430054 	sltiu	v1,v0,84
80003044:	1460ffda 	bnez	v1,80002fb0 <printf+0xb0>
80003048:	00021080 	sll	v0,v0,0x2
8000304c:	0c000c50 	jal	80003140 <putchar>
80003050:	24040025 	li	a0,37
80003054:	1000ffc0 	b	80002f58 <printf+0x58>
80003058:	26310001 	addiu	s1,s1,1
8000305c:	8e640000 	lw	a0,0(s3)
80003060:	00003825 	move	a3,zero
80003064:	0c000e28 	jal	800038a0 <printbase>
80003068:	24060010 	li	a2,16
8000306c:	26730004 	addiu	s3,s3,4
80003070:	1000ffb8 	b	80002f54 <printf+0x54>
80003074:	26310001 	addiu	s1,s1,1
80003078:	8e640000 	lw	a0,0(s3)
8000307c:	0c000c68 	jal	800031a0 <putstring>
80003080:	26310001 	addiu	s1,s1,1
80003084:	1000ffb3 	b	80002f54 <printf+0x54>
80003088:	26730004 	addiu	s3,s3,4
8000308c:	8e640000 	lw	a0,0(s3)
80003090:	0c000c50 	jal	80003140 <putchar>
80003094:	26310001 	addiu	s1,s1,1
80003098:	1000ffae 	b	80002f54 <printf+0x54>
8000309c:	26730004 	addiu	s3,s3,4
800030a0:	8e640000 	lw	a0,0(s3)
800030a4:	24070001 	li	a3,1
800030a8:	0c000e28 	jal	800038a0 <printbase>
800030ac:	2406000a 	li	a2,10
800030b0:	26730004 	addiu	s3,s3,4
800030b4:	1000ffa7 	b	80002f54 <printf+0x54>
800030b8:	26310001 	addiu	s1,s1,1
800030bc:	8e640000 	lw	a0,0(s3)
800030c0:	00003825 	move	a3,zero
800030c4:	0c000e28 	jal	800038a0 <printbase>
800030c8:	24060002 	li	a2,2
800030cc:	26730004 	addiu	s3,s3,4
800030d0:	1000ffa0 	b	80002f54 <printf+0x54>
800030d4:	26310001 	addiu	s1,s1,1
800030d8:	8e640000 	lw	a0,0(s3)
800030dc:	00003825 	move	a3,zero
800030e0:	0c000e28 	jal	800038a0 <printbase>
800030e4:	2406000a 	li	a2,10
800030e8:	26730004 	addiu	s3,s3,4
800030ec:	1000ff99 	b	80002f54 <printf+0x54>
800030f0:	26310001 	addiu	s1,s1,1
800030f4:	8e640000 	lw	a0,0(s3)
800030f8:	00003825 	move	a3,zero
800030fc:	0c000e28 	jal	800038a0 <printbase>
80003100:	2406000a 	li	a2,10
80003104:	26730004 	addiu	s3,s3,4
80003108:	1000ff92 	b	80002f54 <printf+0x54>
8000310c:	26310002 	addiu	s1,s1,2
80003110:	8e640000 	lw	a0,0(s3)
80003114:	00003825 	move	a3,zero
80003118:	0c000e28 	jal	800038a0 <printbase>
8000311c:	24060008 	li	a2,8
80003120:	26730004 	addiu	s3,s3,4
80003124:	1000ff8b 	b	80002f54 <printf+0x54>
80003128:	26310001 	addiu	s1,s1,1
8000312c:	0c000c50 	jal	80003140 <putchar>
80003130:	24040025 	li	a0,37
80003134:	1000ff87 	b	80002f54 <printf+0x54>
80003138:	26310001 	addiu	s1,s1,1
8000313c:	00000000 	nop

80003140 <putchar>:
putchar():
80003140:	3c03a300 	lui	v1,0xa300
80003144:	8c620000 	lw	v0,0(v1)
80003148:	00000000 	nop
8000314c:	30420001 	andi	v0,v0,0x1
80003150:	1040fffc 	beqz	v0,80003144 <putchar+0x4>
80003154:	00000000 	nop
80003158:	10800002 	beqz	a0,80003164 <putchar+0x24>
8000315c:	00000000 	nop
80003160:	ac640004 	sw	a0,4(v1)
80003164:	03e00008 	jr	ra
80003168:	00001025 	move	v0,zero

8000316c <tgt_putchar>:
tgt_putchar():
8000316c:	3c03a300 	lui	v1,0xa300
80003170:	8c620000 	lw	v0,0(v1)
80003174:	00000000 	nop
80003178:	30420001 	andi	v0,v0,0x1
8000317c:	1040fffc 	beqz	v0,80003170 <tgt_putchar+0x4>
80003180:	00000000 	nop
80003184:	10800002 	beqz	a0,80003190 <tgt_putchar+0x24>
80003188:	00000000 	nop
8000318c:	ac640004 	sw	a0,4(v1)
80003190:	03e00008 	jr	ra
80003194:	00000000 	nop
	...

800031a0 <putstring>:
putstring():
800031a0:	27bdffe0 	addiu	sp,sp,-32
800031a4:	afbf001c 	sw	ra,28(sp)
800031a8:	afb20018 	sw	s2,24(sp)
800031ac:	afb10014 	sw	s1,20(sp)
800031b0:	afb00010 	sw	s0,16(sp)
800031b4:	80900000 	lb	s0,0(a0)
800031b8:	00000000 	nop
800031bc:	12000013 	beqz	s0,8000320c <putstring+0x6c>
800031c0:	00808825 	move	s1,a0
800031c4:	10000007 	b	800031e4 <putstring+0x44>
800031c8:	2412000a 	li	s2,10
800031cc:	0c000c50 	jal	80003140 <putchar>
800031d0:	02002025 	move	a0,s0
800031d4:	82300000 	lb	s0,0(s1)
800031d8:	00000000 	nop
800031dc:	1200000b 	beqz	s0,8000320c <putstring+0x6c>
800031e0:	00000000 	nop
800031e4:	1612fff9 	bne	s0,s2,800031cc <putstring+0x2c>
800031e8:	26310001 	addiu	s1,s1,1
800031ec:	0c000c50 	jal	80003140 <putchar>
800031f0:	2404000d 	li	a0,13
800031f4:	0c000c50 	jal	80003140 <putchar>
800031f8:	02002025 	move	a0,s0
800031fc:	82300000 	lb	s0,0(s1)
80003200:	00000000 	nop
80003204:	1600fff7 	bnez	s0,800031e4 <putstring+0x44>
80003208:	00000000 	nop
8000320c:	8fbf001c 	lw	ra,28(sp)
80003210:	8fb20018 	lw	s2,24(sp)
80003214:	8fb10014 	lw	s1,20(sp)
80003218:	8fb00010 	lw	s0,16(sp)
8000321c:	00001025 	move	v0,zero
80003220:	03e00008 	jr	ra
80003224:	27bd0020 	addiu	sp,sp,32

80003228 <puts>:
puts():
80003228:	27bdffe8 	addiu	sp,sp,-24
8000322c:	afbf0014 	sw	ra,20(sp)
80003230:	0c000c68 	jal	800031a0 <putstring>
80003234:	00000000 	nop
80003238:	0c000c50 	jal	80003140 <putchar>
8000323c:	2404000d 	li	a0,13
80003240:	0c000c50 	jal	80003140 <putchar>
80003244:	2404000a 	li	a0,10
80003248:	8fbf0014 	lw	ra,20(sp)
8000324c:	00001025 	move	v0,zero
80003250:	03e00008 	jr	ra
80003254:	27bd0018 	addiu	sp,sp,24
	...

80003260 <fopen>:
fopen():
80003260:	3c028000 	lui	v0,0x8000
80003264:	24425010 	addiu	v0,v0,20496
80003268:	00402825 	move	a1,v0
8000326c:	00001825 	move	v1,zero
80003270:	2407000a 	li	a3,10
80003274:	8ca60000 	lw	a2,0(a1)
80003278:	00000000 	nop
8000327c:	10c0000b 	beqz	a2,800032ac <fopen+0x4c>
80003280:	24a50008 	addiu	a1,a1,8
80003284:	24630001 	addiu	v1,v1,1
80003288:	1467fffa 	bne	v1,a3,80003274 <fopen+0x14>
8000328c:	00000000 	nop
80003290:	000318c0 	sll	v1,v1,0x3
80003294:	00431821 	addu	v1,v0,v1
80003298:	24050050 	li	a1,80
8000329c:	ac640000 	sw	a0,0(v1)
800032a0:	ac600004 	sw	zero,4(v1)
800032a4:	03e00008 	jr	ra
800032a8:	00451021 	addu	v0,v0,a1
800032ac:	000318c0 	sll	v1,v1,0x3
800032b0:	00602825 	move	a1,v1
800032b4:	00431821 	addu	v1,v0,v1
800032b8:	ac640000 	sw	a0,0(v1)
800032bc:	ac600004 	sw	zero,4(v1)
800032c0:	03e00008 	jr	ra
800032c4:	00451021 	addu	v0,v0,a1

800032c8 <fread>:
fread():
800032c8:	27bdffd8 	addiu	sp,sp,-40
800032cc:	afb3001c 	sw	s3,28(sp)
800032d0:	8cf30000 	lw	s3,0(a3)
800032d4:	afb20018 	sw	s2,24(sp)
800032d8:	afb00010 	sw	s0,16(sp)
800032dc:	00809025 	move	s2,a0
800032e0:	00e08025 	move	s0,a3
800032e4:	02602025 	move	a0,s3
800032e8:	afb40020 	sw	s4,32(sp)
800032ec:	afb10014 	sw	s1,20(sp)
800032f0:	afbf0024 	sw	ra,36(sp)
800032f4:	00a08825 	move	s1,a1
800032f8:	0c000d24 	jal	80003490 <strlen>
800032fc:	00c0a025 	move	s4,a2
80003300:	8e030004 	lw	v1,4(s0)
80003304:	00000000 	nop
80003308:	10620019 	beq	v1,v0,80003370 <fread+0xa8>
8000330c:	02340018 	mult	s1,s4
80003310:	00403825 	move	a3,v0
80003314:	00003012 	mflo	a2
80003318:	1000000a 	b	80003344 <fread+0x7c>
8000331c:	00001025 	move	v0,zero
80003320:	ae050004 	sw	a1,4(s0)
80003324:	80650000 	lb	a1,0(v1)
80003328:	24420001 	addiu	v0,v0,1
8000332c:	02421821 	addu	v1,s2,v0
80003330:	a065ffff 	sb	a1,-1(v1)
80003334:	8e030004 	lw	v1,4(s0)
80003338:	00000000 	nop
8000333c:	10670004 	beq	v1,a3,80003350 <fread+0x88>
80003340:	00000000 	nop
80003344:	24650001 	addiu	a1,v1,1
80003348:	14c2fff5 	bne	a2,v0,80003320 <fread+0x58>
8000334c:	02631821 	addu	v1,s3,v1
80003350:	8fbf0024 	lw	ra,36(sp)
80003354:	8fb40020 	lw	s4,32(sp)
80003358:	8fb3001c 	lw	s3,28(sp)
8000335c:	8fb20018 	lw	s2,24(sp)
80003360:	8fb10014 	lw	s1,20(sp)
80003364:	8fb00010 	lw	s0,16(sp)
80003368:	03e00008 	jr	ra
8000336c:	27bd0028 	addiu	sp,sp,40
80003370:	8fbf0024 	lw	ra,36(sp)
80003374:	8fb40020 	lw	s4,32(sp)
80003378:	8fb3001c 	lw	s3,28(sp)
8000337c:	8fb20018 	lw	s2,24(sp)
80003380:	8fb10014 	lw	s1,20(sp)
80003384:	8fb00010 	lw	s0,16(sp)
80003388:	00001025 	move	v0,zero
8000338c:	03e00008 	jr	ra
80003390:	27bd0028 	addiu	sp,sp,40

80003394 <fclose>:
fclose():
80003394:	ac800000 	sw	zero,0(a0)
80003398:	03e00008 	jr	ra
8000339c:	ac800004 	sw	zero,4(a0)

800033a0 <fgets>:
fgets():
800033a0:	27bdffe0 	addiu	sp,sp,-32
800033a4:	afb20018 	sw	s2,24(sp)
800033a8:	8cd20000 	lw	s2,0(a2)
800033ac:	afb10014 	sw	s1,20(sp)
800033b0:	afb00010 	sw	s0,16(sp)
800033b4:	00c08825 	move	s1,a2
800033b8:	00808025 	move	s0,a0
800033bc:	afbf001c 	sw	ra,28(sp)
800033c0:	0c000d24 	jal	80003490 <strlen>
800033c4:	02402025 	move	a0,s2
800033c8:	8e230004 	lw	v1,4(s1)
800033cc:	00000000 	nop
800033d0:	10620012 	beq	v1,v0,8000341c <fgets+0x7c>
800033d4:	02002025 	move	a0,s0
800033d8:	10000008 	b	800033fc <fgets+0x5c>
800033dc:	2407000a 	li	a3,10
800033e0:	80a30000 	lb	v1,0(a1)
800033e4:	24840001 	addiu	a0,a0,1
800033e8:	a083ffff 	sb	v1,-1(a0)
800033ec:	8e230004 	lw	v1,4(s1)
800033f0:	00000000 	nop
800033f4:	10620009 	beq	v1,v0,8000341c <fgets+0x7c>
800033f8:	00000000 	nop
800033fc:	02432821 	addu	a1,s2,v1
80003400:	80a60000 	lb	a2,0(a1)
80003404:	24630001 	addiu	v1,v1,1
80003408:	14c7fff5 	bne	a2,a3,800033e0 <fgets+0x40>
8000340c:	ae230004 	sw	v1,4(s1)
80003410:	80a20000 	lb	v0,0(a1)
80003414:	00000000 	nop
80003418:	a0820000 	sb	v0,0(a0)
8000341c:	8fbf001c 	lw	ra,28(sp)
80003420:	8fb20018 	lw	s2,24(sp)
80003424:	8fb10014 	lw	s1,20(sp)
80003428:	8fb00010 	lw	s0,16(sp)
8000342c:	00001025 	move	v0,zero
80003430:	03e00008 	jr	ra
80003434:	27bd0020 	addiu	sp,sp,32

80003438 <getc>:
getc():
80003438:	27bdffe0 	addiu	sp,sp,-32
8000343c:	afb10018 	sw	s1,24(sp)
80003440:	8c910000 	lw	s1,0(a0)
80003444:	afb00014 	sw	s0,20(sp)
80003448:	00808025 	move	s0,a0
8000344c:	afbf001c 	sw	ra,28(sp)
80003450:	0c000d24 	jal	80003490 <strlen>
80003454:	02202025 	move	a0,s1
80003458:	8e040004 	lw	a0,4(s0)
8000345c:	00000000 	nop
80003460:	10820009 	beq	a0,v0,80003488 <getc+0x50>
80003464:	02248821 	addu	s1,s1,a0
80003468:	24820001 	addiu	v0,a0,1
8000346c:	ae020004 	sw	v0,4(s0)
80003470:	92220000 	lbu	v0,0(s1)
80003474:	8fbf001c 	lw	ra,28(sp)
80003478:	8fb10018 	lw	s1,24(sp)
8000347c:	8fb00014 	lw	s0,20(sp)
80003480:	03e00008 	jr	ra
80003484:	27bd0020 	addiu	sp,sp,32
80003488:	1000fffa 	b	80003474 <getc+0x3c>
8000348c:	2402ffff 	li	v0,-1

80003490 <strlen>:
strlen():
80003490:	80820000 	lb	v0,0(a0)
80003494:	00000000 	nop
80003498:	1040000a 	beqz	v0,800034c4 <strlen+0x34>
8000349c:	00000000 	nop
800034a0:	00001025 	move	v0,zero
800034a4:	24420001 	addiu	v0,v0,1
800034a8:	00821821 	addu	v1,a0,v0
800034ac:	80630000 	lb	v1,0(v1)
800034b0:	00000000 	nop
800034b4:	1460fffb 	bnez	v1,800034a4 <strlen+0x14>
800034b8:	00000000 	nop
800034bc:	03e00008 	jr	ra
800034c0:	00000000 	nop
800034c4:	03e00008 	jr	ra
800034c8:	00001025 	move	v0,zero

800034cc <strnlen>:
strnlen():
800034cc:	14a00005 	bnez	a1,800034e4 <strnlen+0x18>
800034d0:	00001025 	move	v0,zero
800034d4:	1000000a 	b	80003500 <strnlen+0x34>
800034d8:	00000000 	nop
800034dc:	10a20008 	beq	a1,v0,80003500 <strnlen+0x34>
800034e0:	00000000 	nop
800034e4:	00821821 	addu	v1,a0,v0
800034e8:	80630000 	lb	v1,0(v1)
800034ec:	00000000 	nop
800034f0:	1460fffa 	bnez	v1,800034dc <strnlen+0x10>
800034f4:	24420001 	addiu	v0,v0,1
800034f8:	03e00008 	jr	ra
800034fc:	2442ffff 	addiu	v0,v0,-1
80003500:	03e00008 	jr	ra
80003504:	00000000 	nop

80003508 <strcpy>:
strcpy():
80003508:	00801025 	move	v0,a0
8000350c:	00801825 	move	v1,a0
80003510:	80a60000 	lb	a2,0(a1)
80003514:	24630001 	addiu	v1,v1,1
80003518:	24a50001 	addiu	a1,a1,1
8000351c:	14c0fffc 	bnez	a2,80003510 <strcpy+0x8>
80003520:	a066ffff 	sb	a2,-1(v1)
80003524:	03e00008 	jr	ra
80003528:	00000000 	nop

8000352c <strncpy>:
strncpy():
8000352c:	10c0000a 	beqz	a2,80003558 <strncpy+0x2c>
80003530:	00801025 	move	v0,a0
80003534:	00863821 	addu	a3,a0,a2
80003538:	00801825 	move	v1,a0
8000353c:	80a60000 	lb	a2,0(a1)
80003540:	24630001 	addiu	v1,v1,1
80003544:	10c00002 	beqz	a2,80003550 <strncpy+0x24>
80003548:	a066ffff 	sb	a2,-1(v1)
8000354c:	24a50001 	addiu	a1,a1,1
80003550:	1467fffa 	bne	v1,a3,8000353c <strncpy+0x10>
80003554:	00000000 	nop
80003558:	03e00008 	jr	ra
8000355c:	00000000 	nop

80003560 <strcmp>:
strcmp():
80003560:	80820000 	lb	v0,0(a0)
80003564:	80a30000 	lb	v1,0(a1)
80003568:	14400008 	bnez	v0,8000358c <strcmp+0x2c>
8000356c:	24840001 	addiu	a0,a0,1
80003570:	2484ffff 	addiu	a0,a0,-1
80003574:	10000009 	b	8000359c <strcmp+0x3c>
80003578:	306300ff 	andi	v1,v1,0xff
8000357c:	80820000 	lb	v0,0(a0)
80003580:	80a30000 	lb	v1,0(a1)
80003584:	10400007 	beqz	v0,800035a4 <strcmp+0x44>
80003588:	24840001 	addiu	a0,a0,1
8000358c:	1043fffb 	beq	v0,v1,8000357c <strcmp+0x1c>
80003590:	24a50001 	addiu	a1,a1,1
80003594:	304200ff 	andi	v0,v0,0xff
80003598:	306300ff 	andi	v1,v1,0xff
8000359c:	03e00008 	jr	ra
800035a0:	00431023 	subu	v0,v0,v1
800035a4:	306300ff 	andi	v1,v1,0xff
800035a8:	00001025 	move	v0,zero
800035ac:	03e00008 	jr	ra
800035b0:	00431023 	subu	v0,v0,v1

800035b4 <strncmp>:
strncmp():
800035b4:	10c00010 	beqz	a2,800035f8 <strncmp+0x44>
800035b8:	00a63021 	addu	a2,a1,a2
800035bc:	10000005 	b	800035d4 <strncmp+0x20>
800035c0:	00000000 	nop
800035c4:	14430008 	bne	v0,v1,800035e8 <strncmp+0x34>
800035c8:	00000000 	nop
800035cc:	10a6000a 	beq	a1,a2,800035f8 <strncmp+0x44>
800035d0:	24840001 	addiu	a0,a0,1
800035d4:	80820000 	lb	v0,0(a0)
800035d8:	24a50001 	addiu	a1,a1,1
800035dc:	80a3ffff 	lb	v1,-1(a1)
800035e0:	1440fff8 	bnez	v0,800035c4 <strncmp+0x10>
800035e4:	00000000 	nop
800035e8:	306300ff 	andi	v1,v1,0xff
800035ec:	304200ff 	andi	v0,v0,0xff
800035f0:	03e00008 	jr	ra
800035f4:	00431023 	subu	v0,v0,v1
800035f8:	03e00008 	jr	ra
800035fc:	00001025 	move	v0,zero

80003600 <strchr>:
strchr():
80003600:	80820000 	lb	v0,0(a0)
80003604:	00000000 	nop
80003608:	14400007 	bnez	v0,80003628 <strchr+0x28>
8000360c:	00000000 	nop
80003610:	03e00008 	jr	ra
80003614:	00001025 	move	v0,zero
80003618:	80820001 	lb	v0,1(a0)
8000361c:	00000000 	nop
80003620:	10400003 	beqz	v0,80003630 <strchr+0x30>
80003624:	24840001 	addiu	a0,a0,1
80003628:	14a2fffb 	bne	a1,v0,80003618 <strchr+0x18>
8000362c:	00801025 	move	v0,a0
80003630:	03e00008 	jr	ra
80003634:	00000000 	nop
80003638:	03e00008 	jr	ra
8000363c:	00000000 	nop

80003640 <strfind>:
strfind():
80003640:	80830000 	lb	v1,0(a0)
80003644:	00000000 	nop
80003648:	14600007 	bnez	v1,80003668 <strfind+0x28>
8000364c:	00801025 	move	v0,a0
80003650:	10000007 	b	80003670 <strfind+0x30>
80003654:	00000000 	nop
80003658:	80430001 	lb	v1,1(v0)
8000365c:	00000000 	nop
80003660:	10600003 	beqz	v1,80003670 <strfind+0x30>
80003664:	24420001 	addiu	v0,v0,1
80003668:	14a3fffb 	bne	a1,v1,80003658 <strfind+0x18>
8000366c:	00000000 	nop
80003670:	03e00008 	jr	ra
80003674:	00000000 	nop

80003678 <memset>:
memset():
80003678:	10c00006 	beqz	a2,80003694 <memset+0x1c>
8000367c:	00801025 	move	v0,a0
80003680:	00863021 	addu	a2,a0,a2
80003684:	00801825 	move	v1,a0
80003688:	24630001 	addiu	v1,v1,1
8000368c:	1466fffe 	bne	v1,a2,80003688 <memset+0x10>
80003690:	a065ffff 	sb	a1,-1(v1)
80003694:	03e00008 	jr	ra
80003698:	00000000 	nop

8000369c <memcpy>:
memcpy():
8000369c:	10c00008 	beqz	a2,800036c0 <memcpy+0x24>
800036a0:	00801025 	move	v0,a0
800036a4:	00a63821 	addu	a3,a1,a2
800036a8:	00801825 	move	v1,a0
800036ac:	80a60000 	lb	a2,0(a1)
800036b0:	24a50001 	addiu	a1,a1,1
800036b4:	24630001 	addiu	v1,v1,1
800036b8:	14a7fffc 	bne	a1,a3,800036ac <memcpy+0x10>
800036bc:	a066ffff 	sb	a2,-1(v1)
800036c0:	03e00008 	jr	ra
800036c4:	00000000 	nop

800036c8 <memmove>:
memmove():
800036c8:	00a4182b 	sltu	v1,a1,a0
800036cc:	10600005 	beqz	v1,800036e4 <memmove+0x1c>
800036d0:	00801025 	move	v0,a0
800036d4:	00a61821 	addu	v1,a1,a2
800036d8:	0083202b 	sltu	a0,a0,v1
800036dc:	1480000b 	bnez	a0,8000370c <memmove+0x44>
800036e0:	00000000 	nop
800036e4:	10c00007 	beqz	a2,80003704 <memmove+0x3c>
800036e8:	00a63821 	addu	a3,a1,a2
800036ec:	00401825 	move	v1,v0
800036f0:	80a60000 	lb	a2,0(a1)
800036f4:	24a50001 	addiu	a1,a1,1
800036f8:	24630001 	addiu	v1,v1,1
800036fc:	14a7fffc 	bne	a1,a3,800036f0 <memmove+0x28>
80003700:	a066ffff 	sb	a2,-1(v1)
80003704:	03e00008 	jr	ra
80003708:	00000000 	nop
8000370c:	10c0fffd 	beqz	a2,80003704 <memmove+0x3c>
80003710:	00462021 	addu	a0,v0,a2
80003714:	8066ffff 	lb	a2,-1(v1)
80003718:	2463ffff 	addiu	v1,v1,-1
8000371c:	2484ffff 	addiu	a0,a0,-1
80003720:	14a3fffc 	bne	a1,v1,80003714 <memmove+0x4c>
80003724:	a0860000 	sb	a2,0(a0)
80003728:	03e00008 	jr	ra
8000372c:	00000000 	nop

80003730 <memcmp>:
memcmp():
80003730:	10c0000e 	beqz	a2,8000376c <memcmp+0x3c>
80003734:	00a63021 	addu	a2,a1,a2
80003738:	10000003 	b	80003748 <memcmp+0x18>
8000373c:	00000000 	nop
80003740:	10a6000a 	beq	a1,a2,8000376c <memcmp+0x3c>
80003744:	24840001 	addiu	a0,a0,1
80003748:	80a30000 	lb	v1,0(a1)
8000374c:	80820000 	lb	v0,0(a0)
80003750:	00000000 	nop
80003754:	1043fffa 	beq	v0,v1,80003740 <memcmp+0x10>
80003758:	24a50001 	addiu	a1,a1,1
8000375c:	306300ff 	andi	v1,v1,0xff
80003760:	304200ff 	andi	v0,v0,0xff
80003764:	03e00008 	jr	ra
80003768:	00431023 	subu	v0,v0,v1
8000376c:	03e00008 	jr	ra
80003770:	00001025 	move	v0,zero

80003774 <bzero>:
bzero():
80003774:	10a00004 	beqz	a1,80003788 <bzero+0x14>
80003778:	00852821 	addu	a1,a0,a1
8000377c:	24840001 	addiu	a0,a0,1
80003780:	1485fffe 	bne	a0,a1,8000377c <bzero+0x8>
80003784:	a080ffff 	sb	zero,-1(a0)
80003788:	03e00008 	jr	ra
8000378c:	00000000 	nop

80003790 <_get_count>:
_get_count():
80003790:	3c02a400 	lui	v0,0xa400
80003794:	8c420004 	lw	v0,4(v0)
80003798:	03e00008 	jr	ra
8000379c:	00000000 	nop

800037a0 <get_count>:
get_count():
800037a0:	3c02a400 	lui	v0,0xa400
800037a4:	8c420004 	lw	v0,4(v0)
800037a8:	03e00008 	jr	ra
800037ac:	00000000 	nop

800037b0 <clock_gettime>:
clock_gettime():
800037b0:	3c02a400 	lui	v0,0xa400
800037b4:	8c440004 	lw	a0,4(v0)
800037b8:	240203e8 	li	v0,1000
800037bc:	14400002 	bnez	v0,800037c8 <clock_gettime+0x18>
800037c0:	0082001b 	divu	zero,a0,v0
800037c4:	0007000d 	break	0x7
800037c8:	00043840 	sll	a3,a0,0x1
800037cc:	27bdffe8 	addiu	sp,sp,-24
800037d0:	00a04025 	move	t0,a1
800037d4:	afbf0014 	sw	ra,20(sp)
800037d8:	aca00000 	sw	zero,0(a1)
800037dc:	3c048000 	lui	a0,0x8000
800037e0:	00003025 	move	a2,zero
800037e4:	248443e0 	addiu	a0,a0,17376
800037e8:	00001812 	mflo	v1
800037ec:	00031840 	sll	v1,v1,0x1
800037f0:	00000000 	nop
800037f4:	14400002 	bnez	v0,80003800 <clock_gettime+0x50>
800037f8:	0062001b 	divu	zero,v1,v0
800037fc:	0007000d 	break	0x7
80003800:	00004810 	mfhi	t1
80003804:	ad090008 	sw	t1,8(t0)
80003808:	00001812 	mflo	v1
	...
80003814:	14400002 	bnez	v0,80003820 <clock_gettime+0x70>
80003818:	00e2001b 	divu	zero,a3,v0
8000381c:	0007000d 	break	0x7
80003820:	00002810 	mfhi	a1
80003824:	ad050004 	sw	a1,4(t0)
80003828:	00000000 	nop
8000382c:	14400002 	bnez	v0,80003838 <clock_gettime+0x88>
80003830:	0062001b 	divu	zero,v1,v0
80003834:	0007000d 	break	0x7
80003838:	00001010 	mfhi	v0
8000383c:	0c000bc0 	jal	80002f00 <printf>
80003840:	ad02000c 	sw	v0,12(t0)
80003844:	8fbf0014 	lw	ra,20(sp)
80003848:	00001025 	move	v0,zero
8000384c:	03e00008 	jr	ra
80003850:	27bd0018 	addiu	sp,sp,24

80003854 <get_clock>:
get_clock():
80003854:	3c02a400 	lui	v0,0xa400
80003858:	8c420004 	lw	v0,4(v0)
8000385c:	03e00008 	jr	ra
80003860:	00021040 	sll	v0,v0,0x1

80003864 <get_us>:
get_us():
80003864:	3c02a400 	lui	v0,0xa400
80003868:	8c420000 	lw	v0,0(v0)
8000386c:	03e00008 	jr	ra
80003870:	00000000 	nop

80003874 <get_ns>:
get_ns():
80003874:	3c02a400 	lui	v0,0xa400
80003878:	8c430000 	lw	v1,0(v0)
8000387c:	00000000 	nop
80003880:	00031140 	sll	v0,v1,0x5
80003884:	00431023 	subu	v0,v0,v1
80003888:	00021080 	sll	v0,v0,0x2
8000388c:	00431021 	addu	v0,v0,v1
80003890:	03e00008 	jr	ra
80003894:	000210c0 	sll	v0,v0,0x3
	...

800038a0 <printbase>:
printbase():
800038a0:	27bdffa0 	addiu	sp,sp,-96
800038a4:	afb00054 	sw	s0,84(sp)
800038a8:	afbf005c 	sw	ra,92(sp)
800038ac:	afb10058 	sw	s1,88(sp)
800038b0:	10e00003 	beqz	a3,800038c0 <printbase+0x20>
800038b4:	00808025 	move	s0,a0
800038b8:	04800032 	bltz	a0,80003984 <printbase+0xe4>
800038bc:	2404002d 	li	a0,45
800038c0:	12000038 	beqz	s0,800039a4 <printbase+0x104>
800038c4:	27a20010 	addiu	v0,sp,16
800038c8:	24070001 	li	a3,1
800038cc:	00e23823 	subu	a3,a3,v0
800038d0:	14c00002 	bnez	a2,800038dc <printbase+0x3c>
800038d4:	0206001b 	divu	zero,s0,a2
800038d8:	0007000d 	break	0x7
800038dc:	00e28821 	addu	s1,a3,v0
800038e0:	0206202b 	sltu	a0,s0,a2
800038e4:	24420001 	addiu	v0,v0,1
800038e8:	00001810 	mfhi	v1
800038ec:	00008012 	mflo	s0
800038f0:	1080fff7 	beqz	a0,800038d0 <printbase+0x30>
800038f4:	a043ffff 	sb	v1,-1(v0)
800038f8:	00b1102a 	slt	v0,a1,s1
800038fc:	1440001f 	bnez	v0,8000397c <printbase+0xdc>
80003900:	00000000 	nop
80003904:	1000000b 	b	80003934 <printbase+0x94>
80003908:	00a08025 	move	s0,a1
8000390c:	8064ffff 	lb	a0,-1(v1)
80003910:	00000000 	nop
80003914:	2882000a 	slti	v0,a0,10
80003918:	10400016 	beqz	v0,80003974 <printbase+0xd4>
8000391c:	00000000 	nop
80003920:	24840030 	addiu	a0,a0,48
80003924:	0c000c50 	jal	80003140 <putchar>
80003928:	2610ffff 	addiu	s0,s0,-1
8000392c:	1200000b 	beqz	s0,8000395c <printbase+0xbc>
80003930:	00000000 	nop
80003934:	27a20010 	addiu	v0,sp,16
80003938:	00501821 	addu	v1,v0,s0
8000393c:	0230102a 	slt	v0,s1,s0
80003940:	1040fff2 	beqz	v0,8000390c <printbase+0x6c>
80003944:	00000000 	nop
80003948:	2610ffff 	addiu	s0,s0,-1
8000394c:	0c000c50 	jal	80003140 <putchar>
80003950:	24040030 	li	a0,48
80003954:	1600fff8 	bnez	s0,80003938 <printbase+0x98>
80003958:	27a20010 	addiu	v0,sp,16
8000395c:	8fbf005c 	lw	ra,92(sp)
80003960:	8fb10058 	lw	s1,88(sp)
80003964:	8fb00054 	lw	s0,84(sp)
80003968:	00001025 	move	v0,zero
8000396c:	03e00008 	jr	ra
80003970:	27bd0060 	addiu	sp,sp,96
80003974:	1000ffeb 	b	80003924 <printbase+0x84>
80003978:	24840057 	addiu	a0,a0,87
8000397c:	1000ffe1 	b	80003904 <printbase+0x64>
80003980:	02202825 	move	a1,s1
80003984:	afa60068 	sw	a2,104(sp)
80003988:	afa50064 	sw	a1,100(sp)
8000398c:	0c000c50 	jal	80003140 <putchar>
80003990:	00108023 	negu	s0,s0
80003994:	8fa50064 	lw	a1,100(sp)
80003998:	8fa60068 	lw	a2,104(sp)
8000399c:	1000ffca 	b	800038c8 <printbase+0x28>
800039a0:	27a20010 	addiu	v0,sp,16
800039a4:	18a0ffed 	blez	a1,8000395c <printbase+0xbc>
800039a8:	00008825 	move	s1,zero
800039ac:	1000ffe1 	b	80003934 <printbase+0x94>
800039b0:	00a08025 	move	s0,a1
	...
800039c0:	20656854 	addi	a1,v1,26708
800039c4:	75736572 	jalx	85cd95c8 <_stack+0x5bd45e8>
800039c8:	6920746c 	0x6920746c
800039cc:	69722073 	0x69722073
800039d0:	0a746867 	j	89d1a19c <_stack+0x9c151bc>
800039d4:	00000000 	nop
800039d8:	20656854 	addi	a1,v1,26708
800039dc:	75736572 	jalx	85cd95c8 <_stack+0x5bd45e8>
800039e0:	6920746c 	0x6920746c
800039e4:	72772073 	0x72772073
800039e8:	0a676e6f 	j	899db9bc <_stack+0x98d69dc>
800039ec:	00000000 	nop
800039f0:	656d6954 	0x656d6954
800039f4:	7525203a 	jalx	849480e8 <_stack+0x4843108>
800039f8:	63796320 	0x63796320
800039fc:	2c73656c 	sltiu	s3,v1,25964
80003a00:	20752520 	addi	s5,v1,9504
80003a04:	00007375 	0x7375
80003a08:	20756c25 	addi	s5,v1,27685
80003a0c:	6c25203a 	0x6c25203a
80003a10:	00000a75 	0xa75
80003a14:	7373616c 	0x7373616c
80003a18:	3739666f 	ori	t9,t9,0x666f
80003a1c:	72616557 	0x72616557
80003a20:	736e7573 	0x736e7573
80003a24:	65657263 	0x65657263
80003a28:	4966496e 	0x4966496e
80003a2c:	6c756f63 	0x6c756f63
80003a30:	66666f64 	0x66666f64
80003a34:	6f797265 	0x6f797265
80003a38:	6c6e6f75 	0x6c6e6f75
80003a3c:	656e6f79 	0x656e6f79
80003a40:	66706974 	0x66706974
80003a44:	6874726f 	0x6874726f
80003a48:	74756665 	jalx	81d59994 <_stack+0x1c549b4>
80003a4c:	4b657275 	c2	0x1657275
80003a50:	56747275 	0x56747275
80003a54:	656e6e6f 	0x656e6e6f
80003a58:	73747567 	0x73747567
80003a5c:	6d6d6f43 	0x6d6d6f43
80003a60:	65636e65 	0x65636e65
80003a64:	746e656d 	jalx	81b995b4 <_stack+0x1a945d4>
80003a68:	72646441 	0x72646441
80003a6c:	61737365 	0x61737365
80003a70:	54494d74 	0x54494d74
80003a74:	6964614c 	0x6964614c
80003a78:	6e617365 	0x6e617365
80003a7c:	6e656764 	0x6e656764
80003a80:	6d656c74 	0x6d656c74
80003a84:	666f6e65 	0x666f6e65
80003a88:	63656874 	0x63656874
80003a8c:	7373616c 	0x7373616c
80003a90:	3739666f 	ori	t9,t9,0x666f
80003a94:	72616557 	0x72616557
80003a98:	736e7573 	0x736e7573
80003a9c:	65657263 	0x65657263
80003aa0:	4966496e 	0x4966496e
80003aa4:	6c756f63 	0x6c756f63
80003aa8:	66666f64 	0x66666f64
80003aac:	6f797265 	0x6f797265
80003ab0:	6c6e6f75 	0x6c6e6f75
80003ab4:	656e6f79 	0x656e6f79
80003ab8:	66706974 	0x66706974
80003abc:	6874726f 	0x6874726f
80003ac0:	74756665 	jalx	81d59994 <_stack+0x1c549b4>
80003ac4:	73657275 	0x73657275
80003ac8:	63736e75 	0x63736e75
80003acc:	6e656572 	0x6e656572
80003ad0:	6c756f77 	0x6c756f77
80003ad4:	69656264 	0x69656264
80003ad8:	65685474 	0x65685474
80003adc:	676e6f6c 	0x676e6f6c
80003ae0:	6d726574 	0x6d726574
80003ae4:	656e6562 	0x656e6562
80003ae8:	73746966 	0x73746966
80003aec:	7573666f 	jalx	85cd99bc <_stack+0x5bd49dc>
80003af0:	7263736e 	0x7263736e
80003af4:	686e6565 	0x686e6565
80003af8:	62657661 	0x62657661
80003afc:	706e6565 	0x706e6565
80003b00:	65766f72 	0x65766f72
80003b04:	73796264 	0x73796264
80003b08:	6e656963 	0x6e656963
80003b0c:	74736974 	jalx	81cda5d0 <_stack+0x1bd55f0>
80003b10:	65687773 	0x65687773
80003b14:	73616572 	0x73616572
80003b18:	72656874 	0x72656874
80003b1c:	6f747365 	0x6f747365
80003b20:	61796d66 	0x61796d66
80003b24:	63697664 	0x63697664
80003b28:	73616865 	0x73616865
80003b2c:	61626f6e 	0x61626f6e
80003b30:	6d736973 	0x6d736973
80003b34:	7265726f 	0x7265726f
80003b38:	61696c65 	0x61696c65
80003b3c:	74656c62 	jalx	8195b188 <_stack+0x18561a8>
80003b40:	6d6e6168 	0x6d6e6168
80003b44:	6e776f79 	0x6e776f79
80003b48:	6e61656d 	0x6e61656d
80003b4c:	69726564 	0x69726564
80003b50:	7865676e 	0x7865676e
80003b54:	69726570 	0x69726570
80003b58:	65636e65 	0x65636e65
80003b5c:	6c697749 	0x6c697749
80003b60:	7369646c 	0x7369646c
80003b64:	736e6570 	0x736e6570
80003b68:	69687465 	0x69687465
80003b6c:	76646173 	jalx	899185cc <_stack+0x98135ec>
80003b70:	6e656369 	0x6e656369
80003b74:	6e45776f 	0x6e45776f
80003b78:	74796f6a 	jalx	81e5bda8 <_stack+0x1d56dc8>
80003b7c:	6f706568 	0x6f706568
80003b80:	61726577 	0x61726577
80003b84:	6562646e 	0x6562646e
80003b88:	79747561 	0x79747561
80003b8c:	6f79666f 	0x6f79666f
80003b90:	6f797275 	0x6f797275
80003b94:	4f687475 	c3	0x1687475
80003b98:	76656e68 	jalx	8995b9a0 <_stack+0x98569c0>
80003b9c:	696d7265 	0x696d7265
80003ba0:	6f59646e 	0x6f59646e
80003ba4:	6c697775 	0x6c697775
80003ba8:	746f6e6c 	jalx	81bdb9b0 <_stack+0x1ad69d0>
80003bac:	65646e75 	0x65646e75
80003bb0:	61747372 	0x61747372
80003bb4:	6874646e 	0x6874646e
80003bb8:	776f7065 	jalx	8dbdc194 <_stack+0xdad71b4>
80003bbc:	6e617265 	0x6e617265
80003bc0:	61656264 	0x61656264
80003bc4:	6f797475 	0x6f797475
80003bc8:	756f7966 	jalx	85bde598 <_stack+0x5ad95b8>
80003bcc:	756f7972 	jalx	85bde5c8 <_stack+0x5ad95e8>
80003bd0:	6e756874 	0x6e756874
80003bd4:	746c6974 	jalx	81b1a5d0 <_stack+0x1a155f0>
80003bd8:	76796568 	jalx	89e595a0 <_stack+0x9d545c0>
80003bdc:	64616665 	0x64616665
80003be0:	75426465 	jalx	85099194 <_stack+0x4f941b4>
80003be4:	75727474 	jalx	85c9d1d0 <_stack+0x5b981f0>
80003be8:	656d7473 	0x656d7473
80003bec:	30326e69 	andi	s2,at,0x6e69
80003bf0:	72616579 	0x72616579
80003bf4:	756f7973 	jalx	85bde5cc <_stack+0x5ad95ec>
80003bf8:	6f6c6c6c 	0x6f6c6c6c
80003bfc:	61626b6f 	0x61626b6f
80003c00:	74616b63 	jalx	8185ad8c <_stack+0x1755dac>
80003c04:	746f6870 	jalx	81bda1c0 <_stack+0x1ad51e0>
80003c08:	666f736f 	0x666f736f
80003c0c:	72756f79 	0x72756f79
80003c10:	666c6573 	0x666c6573
80003c14:	72646e61 	0x72646e61
80003c18:	6c616365 	0x6c616365
80003c1c:	616e696c 	0x616e696c
80003c20:	79796177 	0x79796177
80003c24:	6163756f 	0x6163756f
80003c28:	7267746e 	0x7267746e
80003c2c:	6e707361 	0x6e707361
80003c30:	6f68776f 	0x6f68776f
80003c34:	63756d77 	0x63756d77
80003c38:	736f7068 	0x736f7068
80003c3c:	69626973 	0x69626973
80003c40:	7974696c 	0x7974696c
80003c44:	6279616c 	0x6279616c
80003c48:	726f6665 	0x726f6665
80003c4c:	756f7965 	jalx	85bde594 <_stack+0x5ad95b4>
80003c50:	68646e61 	0x68646e61
80003c54:	6166776f 	0x6166776f
80003c58:	6f6c7562 	0x6f6c7562
80003c5c:	6f797375 	0x6f797375
80003c60:	61657275 	0x61657275
80003c64:	6c796c6c 	0x6c796c6c
80003c68:	656b6f6f 	0x656b6f6f
80003c6c:	756f5964 	jalx	85bd6590 <_stack+0x5ad15b0>
80003c70:	6e657261 	0x6e657261
80003c74:	7361746f 	0x7361746f
80003c78:	61746166 	0x61746166
80003c7c:	756f7973 	jalx	85bde5cc <_stack+0x5ad95ec>
80003c80:	67616d69 	0x67616d69
80003c84:	44656e69 	0x44656e69
80003c88:	77746e6f 	jalx	8dd1b9bc <_stack+0xdc169dc>
80003c8c:	7972726f 	0x7972726f
80003c90:	756f6261 	jalx	85bd8984 <_stack+0x5ad39a4>
80003c94:	65687474 	0x65687474
80003c98:	75747566 	jalx	85d1d598 <_stack+0x5c185b8>
80003c9c:	724f6572 	0x724f6572
80003ca0:	72726f77 	0x72726f77
80003ca4:	74756279 	jalx	81d589e4 <_stack+0x1c53a04>
80003ca8:	776f6e6b 	jalx	8dbdb9ac <_stack+0xdad69cc>
80003cac:	74616874 	jalx	8185a1d0 <_stack+0x17551f0>
80003cb0:	7472754b 	jalx	81c9d52c <_stack+0x1b9854c>
80003cb4:	6e6e6f56 	0x6e6e6f56
80003cb8:	74756765 	jalx	81d59d94 <_stack+0x1c54db4>
80003cbc:	6d6f4373 	0x6d6f4373
80003cc0:	636e656d 	0x636e656d
80003cc4:	6e656d65 	0x6e656d65
80003cc8:	64644174 	0x64644174
80003ccc:	73736572 	0x73736572
80003cd0:	494d7461 	0x494d7461
80003cd4:	64614c54 	0x64614c54
80003cd8:	61736569 	0x61736569
80003cdc:	6567646e 	0x6567646e
80003ce0:	656c746e 	0x656c746e
80003ce4:	6f6e656d 	0x6f6e656d
80003ce8:	65687466 	0x65687466
80003cec:	73616c63 	0x73616c63
80003cf0:	39666f73 	xori	a2,t3,0x6f73
80003cf4:	61655737 	0x61655737
80003cf8:	6e757372 	0x6e757372
80003cfc:	65726373 	0x65726373
80003d00:	66496e65 	0x66496e65
80003d04:	756f6349 	jalx	85bd8d24 <_stack+0x5ad3d44>
80003d08:	666f646c 	0x666f646c
80003d0c:	79726566 	0x79726566
80003d10:	6e6f756f 	0x6e6f756f
80003d14:	6e6f796c 	0x6e6f796c
80003d18:	70697465 	0x70697465
80003d1c:	74726f66 	jalx	81c9bd98 <_stack+0x1b96db8>
80003d20:	75666568 	jalx	859995a0 <_stack+0x58945c0>
80003d24:	65727574 	0x65727574
80003d28:	736e7573 	0x736e7573
80003d2c:	65657263 	0x65657263
80003d30:	756f776e 	jalx	85bdddb8 <_stack+0x5ad8dd8>
80003d34:	6562646c 	0x6562646c
80003d38:	68547469 	0x68547469
80003d3c:	6e6f6c65 	0x6e6f6c65
80003d40:	72657467 	0x72657467
80003d44:	6e65626d 	0x6e65626d
80003d48:	74696665 	jalx	81a59994 <_stack+0x19549b4>
80003d4c:	73666f73 	0x73666f73
80003d50:	63736e75 	0x63736e75
80003d54:	6e656572 	0x6e656572
80003d58:	65766168 	0x65766168
80003d5c:	6e656562 	0x6e656562
80003d60:	766f7270 	jalx	89bdc9c0 <_stack+0x9ad79e0>
80003d64:	79626465 	0x79626465
80003d68:	65696373 	0x65696373
80003d6c:	7369746e 	0x7369746e
80003d70:	68777374 	0x68777374
80003d74:	61657265 	0x61657265
80003d78:	65687473 	0x65687473
80003d7c:	74736572 	jalx	81cd95c8 <_stack+0x1bd45e8>
80003d80:	796d666f 	0x796d666f
80003d84:	69766461 	0x69766461
80003d88:	61686563 	0x61686563
80003d8c:	626f6e73 	0x626f6e73
80003d90:	73697361 	0x73697361
80003d94:	65726f6d 	0x65726f6d
80003d98:	696c6572 	0x696c6572
80003d9c:	656c6261 	0x656c6261
80003da0:	6e616874 	0x6e616874
80003da4:	776f796d 	jalx	8dbde5b4 <_stack+0xdad95d4>
80003da8:	61656d6e 	0x61656d6e
80003dac:	7265646e 	0x7265646e
80003db0:	65676e69 	0x65676e69
80003db4:	72657078 	0x72657078
80003db8:	636e6569 	0x636e6569
80003dbc:	69774965 	0x69774965
80003dc0:	69646c6c 	0x69646c6c
80003dc4:	6e657073 	0x6e657073
80003dc8:	68746573 	0x68746573
80003dcc:	64617369 	0x64617369
80003dd0:	65636976 	0x65636976
80003dd4:	45776f6e 	0x45776f6e
80003dd8:	796f6a6e 	0x796f6a6e
80003ddc:	70656874 	0x70656874
80003de0:	7265776f 	0x7265776f
80003de4:	62646e61 	0x62646e61
80003de8:	74756165 	jalx	81d58594 <_stack+0x1c535b4>
80003dec:	79666f79 	0x79666f79
80003df0:	7972756f 	0x7972756f
80003df4:	6874756f 	0x6874756f
80003df8:	656e684f 	0x656e684f
80003dfc:	6d726576 	0x6d726576
80003e00:	59646e69 	0x59646e69
80003e04:	6977756f 	0x6977756f
80003e08:	6f6e6c6c 	0x6f6e6c6c
80003e0c:	646e7574 	0x646e7574
80003e10:	74737265 	jalx	81cdc994 <_stack+0x1bd79b4>
80003e14:	74646e61 	jalx	8191b984 <_stack+0x18169a4>
80003e18:	6f706568 	0x6f706568
80003e1c:	61726577 	0x61726577
80003e20:	6562646e 	0x6562646e
80003e24:	79747561 	0x79747561
80003e28:	6f79666f 	0x6f79666f
80003e2c:	6f797275 	0x6f797275
80003e30:	75687475 	jalx	85a1d1d4 <_stack+0x59181f4>
80003e34:	6c69746e 	0x6c69746e
80003e38:	79656874 	0x79656874
80003e3c:	61666576 	0x61666576
80003e40:	42646564 	c0	0x646564
80003e44:	72747475 	0x72747475
80003e48:	6d747375 	0x6d747375
80003e4c:	326e6965 	andi	t6,s3,0x6965
80003e50:	61657930 	0x61657930
80003e54:	6f797372 	0x6f797372
80003e58:	6c6c6c75 	0x6c6c6c75
80003e5c:	626b6f6f 	0x626b6f6f
80003e60:	616b6361 	0x616b6361
80003e64:	6f687074 	0x6f687074
80003e68:	6f736f74 	0x6f736f74
80003e6c:	756f7966 	jalx	85bde598 <_stack+0x5ad95b8>
80003e70:	6c657372 	0x6c657372
80003e74:	646e6166 	0x646e6166
80003e78:	61636572 	0x61636572
80003e7c:	6e696c6c 	0x6e696c6c
80003e80:	79617761 	0x79617761
80003e84:	63756f79 	0x63756f79
80003e88:	67746e61 	0x67746e61
80003e8c:	70736172 	0x70736172
80003e90:	68776f6e 	0x68776f6e
80003e94:	756d776f 	jalx	85b5ddbc <_stack+0x5a58ddc>
80003e98:	6f706863 	0x6f706863
80003e9c:	62697373 	0x62697373
80003ea0:	74696c69 	jalx	81a5b1a4 <_stack+0x19561c4>
80003ea4:	79616c79 	0x79616c79
80003ea8:	6f666562 	0x6f666562
80003eac:	6f796572 	0x6f796572
80003eb0:	646e6175 	0x646e6175
80003eb4:	66776f68 	0x66776f68
80003eb8:	6c756261 	0x6c756261
80003ebc:	7973756f 	0x7973756f
80003ec0:	6572756f 	0x6572756f
80003ec4:	796c6c61 	0x796c6c61
80003ec8:	6b6f6f6c 	0x6b6f6f6c
80003ecc:	6f596465 	0x6f596465
80003ed0:	65726175 	0x65726175
80003ed4:	61746f6e 	0x61746f6e
80003ed8:	74616673 	jalx	818599cc <_stack+0x17549ec>
80003edc:	6f797361 	0x6f797361
80003ee0:	616d6975 	0x616d6975
80003ee4:	656e6967 	0x656e6967
80003ee8:	746e6f44 	jalx	81b9bd10 <_stack+0x1a96d30>
80003eec:	72726f77 	0x72726f77
80003ef0:	6f626179 	0x6f626179
80003ef4:	68747475 	0x68747475
80003ef8:	74756665 	jalx	81d59994 <_stack+0x1c549b4>
80003efc:	4f657275 	c3	0x1657275
80003f00:	726f7772 	0x726f7772
80003f04:	75627972 	jalx	8589e5c8 <_stack+0x57995e8>
80003f08:	6f6e6b74 	0x6f6e6b74
80003f0c:	61687477 	0x61687477
80003f10:	72754b74 	0x72754b74
80003f14:	6e6f5674 	0x6e6f5674
80003f18:	7567656e 	jalx	859d95b8 <_stack+0x58d45d8>
80003f1c:	6f437374 	0x6f437374
80003f20:	6e656d6d 	0x6e656d6d
80003f24:	656d6563 	0x656d6563
80003f28:	6441746e 	0x6441746e
80003f2c:	73657264 	0x73657264
80003f30:	4d746173 	0x4d746173
80003f34:	614c5449 	0x614c5449
80003f38:	73656964 	0x73656964
80003f3c:	67646e61 	0x67646e61
80003f40:	6c746e65 	0x6c746e65
80003f44:	6e656d65 	0x6e656d65
80003f48:	6874666f 	0x6874666f
80003f4c:	616c6365 	0x616c6365
80003f50:	666f7373 	0x666f7373
80003f54:	65573739 	0x65573739
80003f58:	75737261 	jalx	85cdc984 <_stack+0x5bd79a4>
80003f5c:	7263736e 	0x7263736e
80003f60:	496e6565 	0x496e6565
80003f64:	6f634966 	0x6f634966
80003f68:	6f646c75 	0x6f646c75
80003f6c:	72656666 	0x72656666
80003f70:	6f756f79 	0x6f756f79
80003f74:	6f796c6e 	0x6f796c6e
80003f78:	6974656e 	0x6974656e
80003f7c:	726f6670 	0x726f6670
80003f80:	66656874 	0x66656874
80003f84:	72757475 	0x72757475
80003f88:	6e757365 	0x6e757365
80003f8c:	65726373 	0x65726373
80003f90:	6f776e65 	0x6f776e65
80003f94:	62646c75 	0x62646c75
80003f98:	54746965 	0x54746965
80003f9c:	6f6c6568 	0x6f6c6568
80003fa0:	6574676e 	0x6574676e
80003fa4:	65626d72 	0x65626d72
80003fa8:	6966656e 	0x6966656e
80003fac:	666f7374 	0x666f7374
80003fb0:	736e7573 	0x736e7573
80003fb4:	65657263 	0x65657263
80003fb8:	7661686e 	jalx	8985a1b8 <_stack+0x97551d8>
80003fbc:	65656265 	0x65656265
80003fc0:	6f72706e 	0x6f72706e
80003fc4:	62646576 	0x62646576
80003fc8:	69637379 	0x69637379
80003fcc:	69746e65 	0x69746e65
80003fd0:	77737473 	jalx	8dcdd1cc <_stack+0xdbd81ec>
80003fd4:	65726568 	0x65726568
80003fd8:	68747361 	0x68747361
80003fdc:	73657265 	0x73657265
80003fe0:	6d666f74 	0x6d666f74
80003fe4:	76646179 	jalx	899185e4 <_stack+0x9813604>
80003fe8:	68656369 	0x68656369
80003fec:	6f6e7361 	0x6f6e7361
80003ff0:	69736162 	0x69736162
80003ff4:	726f6d73 	0x726f6d73
80003ff8:	6c657265 	0x6c657265
80003ffc:	6c626169 	0x6c626169
80004000:	61687465 	0x61687465
80004004:	6f796d6e 	0x6f796d6e
80004008:	656d6e77 	0x656d6e77
8000400c:	65646e61 	0x65646e61
80004010:	676e6972 	0x676e6972
80004014:	65707865 	0x65707865
80004018:	6e656972 	0x6e656972
8000401c:	77496563 	jalx	8d25958c <_stack+0xd1545ac>
80004020:	646c6c69 	0x646c6c69
80004024:	65707369 	0x65707369
80004028:	7465736e 	jalx	8195cdb8 <_stack+0x1857dd8>
8000402c:	61736968 	0x61736968
80004030:	63697664 	0x63697664
80004034:	776f6e65 	jalx	8dbdb994 <_stack+0xdad69b4>
80004038:	6f6a6e45 	0x6f6a6e45
8000403c:	65687479 	0x65687479
80004040:	65776f70 	0x65776f70
80004044:	646e6172 	0x646e6172
80004048:	75616562 	jalx	85859588 <_stack+0x57545a8>
8000404c:	666f7974 	0x666f7974
80004050:	72756f79 	0x72756f79
80004054:	74756f79 	jalx	81d5bde4 <_stack+0x1c56e04>
80004058:	6e684f68 	0x6e684f68
8000405c:	72657665 	0x72657665
80004060:	646e696d 	0x646e696d
80004064:	77756f59 	jalx	8dd5bd64 <_stack+0xdc56d84>
80004068:	6e6c6c69 	0x6e6c6c69
8000406c:	6e75746f 	0x6e75746f
80004070:	73726564 	0x73726564
80004074:	646e6174 	0x646e6174
80004078:	70656874 	0x70656874
8000407c:	7265776f 	0x7265776f
80004080:	62646e61 	0x62646e61
80004084:	74756165 	jalx	81d58594 <_stack+0x1c535b4>
80004088:	79666f79 	0x79666f79
8000408c:	7972756f 	0x7972756f
80004090:	6874756f 	0x6874756f
80004094:	69746e75 	0x69746e75
80004098:	6568746c 	0x6568746c
8000409c:	66657679 	0x66657679
800040a0:	64656461 	0x64656461
800040a4:	74747542 	jalx	81d1d508 <_stack+0x1c18528>
800040a8:	74737572 	jalx	81cdd5c8 <_stack+0x1bd85e8>
800040ac:	6e69656d 	0x6e69656d
800040b0:	65793032 	0x65793032
800040b4:	79737261 	0x79737261
800040b8:	6c6c756f 	0x6c6c756f
800040bc:	6b6f6f6c 	0x6b6f6f6c
800040c0:	6b636162 	0x6b636162
800040c4:	68707461 	0x68707461
800040c8:	736f746f 	0x736f746f
800040cc:	6f79666f 	0x6f79666f
800040d0:	65737275 	0x65737275
800040d4:	6e61666c 	0x6e61666c
800040d8:	63657264 	0x63657264
800040dc:	696c6c61 	0x696c6c61
800040e0:	6177616e 	0x6177616e
800040e4:	756f7979 	jalx	85bde5e4 <_stack+0x5ad9604>
800040e8:	746e6163 	jalx	81b9858c <_stack+0x1a935ac>
800040ec:	73617267 	0x73617267
800040f0:	776f6e70 	jalx	8dbdb9c0 <_stack+0xdad69e0>
800040f4:	6d776f68 	0x6d776f68
800040f8:	70686375 	0x70686375
800040fc:	6973736f 	0x6973736f
80004100:	696c6962 	0x696c6962
80004104:	616c7974 	0x616c7974
80004108:	66656279 	0x66656279
8000410c:	7965726f 	0x7965726f
80004110:	6e61756f 	0x6e61756f
80004114:	776f6864 	jalx	8dbda190 <_stack+0xdad51b0>
80004118:	75626166 	jalx	85898598 <_stack+0x57935b8>
8000411c:	73756f6c 	0x73756f6c
80004120:	72756f79 	0x72756f79
80004124:	6c6c6165 	0x6c6c6165
80004128:	6f6f6c79 	0x6f6f6c79
8000412c:	5964656b 	0x5964656b
80004130:	7261756f 	0x7261756f
80004134:	746f6e65 	jalx	81bdb994 <_stack+0x1ad69b4>
80004138:	61667361 	0x61667361
8000413c:	79736174 	0x79736174
80004140:	6d69756f 	0x6d69756f
80004144:	6e696761 	0x6e696761
80004148:	6e6f4465 	0x6e6f4465
8000414c:	726f7774 	0x726f7774
80004150:	62617972 	0x62617972
80004154:	7474756f 	jalx	81d1d5bc <_stack+0x1c185dc>
80004158:	75666568 	jalx	859995a0 <_stack+0x58945c0>
8000415c:	65727574 	0x65727574
80004160:	6f77724f 	0x6f77724f
80004164:	62797272 	0x62797272
80004168:	6e6b7475 	0x6e6b7475
8000416c:	6874776f 	0x6874776f
80004170:	75737461 	jalx	85cdd184 <_stack+0x5bd81a4>
80004174:	7263736e 	0x7263736e
80004178:	776e6565 	jalx	8db99594 <_stack+0xda945b4>
8000417c:	646c756f 	0x646c756f
80004180:	74696562 	jalx	81a59588 <_stack+0x19545a8>
80004184:	6c656854 	0x6c656854
80004188:	74676e6f 	jalx	819db9bc <_stack+0x18d69dc>
8000418c:	626d7265 	0x626d7265
80004190:	66656e65 	0x66656e65
80004194:	6f737469 	0x6f737469
80004198:	6e757366 	0x6e757366
8000419c:	65726373 	0x65726373
800041a0:	61686e65 	0x61686e65
800041a4:	65626576 	0x65626576
800041a8:	72706e65 	0x72706e65
800041ac:	6465766f 	0x6465766f
800041b0:	63737962 	0x63737962
800041b4:	746e6569 	jalx	81b995a4 <_stack+0x1a945c4>
800041b8:	73747369 	0x73747369
800041bc:	72656877 	0x72656877
800041c0:	74736165 	jalx	81cd8594 <_stack+0x1bd35b4>
800041c4:	65726568 	0x65726568
800041c8:	666f7473 	0x666f7473
800041cc:	6461796d 	0x6461796d
800041d0:	65636976 	0x65636976
800041d4:	6e736168 	0x6e736168
800041d8:	7361626f 	0x7361626f
800041dc:	6f6d7369 	0x6f6d7369
800041e0:	65726572 	0x65726572
800041e4:	6261696c 	0x6261696c
800041e8:	6874656c 	0x6874656c
800041ec:	796d6e61 	0x796d6e61
800041f0:	6d6e776f 	0x6d6e776f
800041f4:	646e6165 	0x646e6165
800041f8:	6e697265 	0x6e697265
800041fc:	70786567 	0x70786567
80004200:	65697265 	0x65697265
80004204:	4965636e 	0x4965636e
80004208:	6c6c6977 	0x6c6c6977
8000420c:	70736964 	0x70736964
80004210:	65736e65 	0x65736e65
80004214:	00000000 	nop
80004218:	3a6e656c 	xori	t6,s3,0x656c
8000421c:	0a642520 	j	89909480 <_stack+0x98044a0>
80004220:	00000000 	nop
80004224:	6c383025 	0x6c383025
80004228:	30252078 	andi	a1,at,0x2078
8000422c:	20786c38 	addi	t8,v1,27704
80004230:	6c383025 	0x6c383025
80004234:	30252078 	andi	a1,at,0x2078
80004238:	20786c38 	addi	t8,v1,27704
8000423c:	6c383025 	0x6c383025
80004240:	00000a78 	0xa78
80004244:	72656854 	0x72656854
80004248:	73692065 	0x73692065
8000424c:	206e6120 	addi	t6,v1,24864
80004250:	65637865 	0x65637865
80004254:	6f697470 	0x6f697470
80004258:	0a21216e 	j	888485b8 <_stack+0x87435d8>
8000425c:	00000000 	nop
80004260:	20656854 	addi	a1,v1,26708
80004264:	20637065 	addi	v1,v1,28773
80004268:	25207369 	addiu	zero,t1,29545
8000426c:	00000a78 	0xa78
80004270:	20656854 	addi	a1,v1,26708
80004274:	73756163 	0x73756163
80004278:	73692065 	0x73692065
8000427c:	0a782520 	j	89e09480 <_stack+0x9d044a0>
80004280:	00000000 	nop
	...
80004290:	8000312c 	lb	zero,12588(zero)
80004294:	8000304c 	lb	zero,12364(zero)
80004298:	8000304c 	lb	zero,12364(zero)
8000429c:	8000304c 	lb	zero,12364(zero)
800042a0:	8000304c 	lb	zero,12364(zero)
800042a4:	8000304c 	lb	zero,12364(zero)
800042a8:	8000304c 	lb	zero,12364(zero)
800042ac:	8000304c 	lb	zero,12364(zero)
800042b0:	8000304c 	lb	zero,12364(zero)
800042b4:	8000304c 	lb	zero,12364(zero)
800042b8:	8000304c 	lb	zero,12364(zero)
800042bc:	80002fe8 	lb	zero,12264(zero)
800042c0:	80002ff4 	lb	zero,12276(zero)
800042c4:	80002ff4 	lb	zero,12276(zero)
800042c8:	80002ff4 	lb	zero,12276(zero)
800042cc:	80002ff4 	lb	zero,12276(zero)
800042d0:	80002ff4 	lb	zero,12276(zero)
800042d4:	80002ff4 	lb	zero,12276(zero)
800042d8:	80002ff4 	lb	zero,12276(zero)
800042dc:	80002ff4 	lb	zero,12276(zero)
800042e0:	80002ff4 	lb	zero,12276(zero)
800042e4:	8000304c 	lb	zero,12364(zero)
800042e8:	8000304c 	lb	zero,12364(zero)
800042ec:	8000304c 	lb	zero,12364(zero)
800042f0:	8000304c 	lb	zero,12364(zero)
800042f4:	8000304c 	lb	zero,12364(zero)
800042f8:	8000304c 	lb	zero,12364(zero)
800042fc:	8000304c 	lb	zero,12364(zero)
80004300:	8000304c 	lb	zero,12364(zero)
80004304:	8000304c 	lb	zero,12364(zero)
80004308:	8000304c 	lb	zero,12364(zero)
8000430c:	8000304c 	lb	zero,12364(zero)
80004310:	8000304c 	lb	zero,12364(zero)
80004314:	8000304c 	lb	zero,12364(zero)
80004318:	8000304c 	lb	zero,12364(zero)
8000431c:	8000304c 	lb	zero,12364(zero)
80004320:	8000304c 	lb	zero,12364(zero)
80004324:	8000304c 	lb	zero,12364(zero)
80004328:	8000304c 	lb	zero,12364(zero)
8000432c:	8000304c 	lb	zero,12364(zero)
80004330:	8000304c 	lb	zero,12364(zero)
80004334:	8000304c 	lb	zero,12364(zero)
80004338:	8000304c 	lb	zero,12364(zero)
8000433c:	8000304c 	lb	zero,12364(zero)
80004340:	8000304c 	lb	zero,12364(zero)
80004344:	8000304c 	lb	zero,12364(zero)
80004348:	8000304c 	lb	zero,12364(zero)
8000434c:	8000304c 	lb	zero,12364(zero)
80004350:	8000304c 	lb	zero,12364(zero)
80004354:	8000304c 	lb	zero,12364(zero)
80004358:	8000304c 	lb	zero,12364(zero)
8000435c:	8000304c 	lb	zero,12364(zero)
80004360:	8000304c 	lb	zero,12364(zero)
80004364:	8000304c 	lb	zero,12364(zero)
80004368:	8000304c 	lb	zero,12364(zero)
8000436c:	8000304c 	lb	zero,12364(zero)
80004370:	8000304c 	lb	zero,12364(zero)
80004374:	8000304c 	lb	zero,12364(zero)
80004378:	8000304c 	lb	zero,12364(zero)
8000437c:	8000304c 	lb	zero,12364(zero)
80004380:	8000304c 	lb	zero,12364(zero)
80004384:	800030bc 	lb	zero,12476(zero)
80004388:	8000308c 	lb	zero,12428(zero)
8000438c:	800030a0 	lb	zero,12448(zero)
80004390:	8000304c 	lb	zero,12364(zero)
80004394:	8000304c 	lb	zero,12364(zero)
80004398:	8000304c 	lb	zero,12364(zero)
8000439c:	8000304c 	lb	zero,12364(zero)
800043a0:	8000304c 	lb	zero,12364(zero)
800043a4:	8000304c 	lb	zero,12364(zero)
800043a8:	8000304c 	lb	zero,12364(zero)
800043ac:	800030f4 	lb	zero,12532(zero)
800043b0:	8000304c 	lb	zero,12364(zero)
800043b4:	8000304c 	lb	zero,12364(zero)
800043b8:	80003110 	lb	zero,12560(zero)
800043bc:	8000305c 	lb	zero,12380(zero)
800043c0:	8000304c 	lb	zero,12364(zero)
800043c4:	8000304c 	lb	zero,12364(zero)
800043c8:	80003078 	lb	zero,12408(zero)
800043cc:	8000304c 	lb	zero,12364(zero)
800043d0:	800030d8 	lb	zero,12504(zero)
800043d4:	8000304c 	lb	zero,12364(zero)
800043d8:	8000304c 	lb	zero,12364(zero)
800043dc:	8000305c 	lb	zero,12380(zero)
800043e0:	636f6c63 	0x636f6c63
800043e4:	736e206b 	0x736e206b
800043e8:	2c64253d 	sltiu	a0,v1,9533
800043ec:	3d636573 	0x3d636573
800043f0:	000a6425 	0xa6425
800043f4:	b0000602 	0xb0000602
	...
80004410:	00010000 	sll	zero,at,0x0
80004414:	03000001 	0x3000001
	...
