
obj/bubble_sort/main.elf:     file format elf32-tradlittlemips
obj/bubble_sort/main.elf


Disassembly of section .text:

80000000 <_ftext>:
_ftext():
80000000:	3c0a0040 	lui	t2,0x40
80000004:	408a6000 	mtc0	t2,c0_sr
80000008:	40806800 	mtc0	zero,c0_cause
8000000c:	3c1d8010 	lui	sp,0x8010
80000010:	27bd1fe0 	addiu	sp,sp,8160
80000014:	3c1c8001 	lui	gp,0x8001
80000018:	279cbf30 	addiu	gp,gp,-16592
8000001c:	041100dc 	bal	80000390 <shell>
80000020:	00000000 	nop

80000024 <loop>:
loop():
80000024:	08000009 	j	80000024 <loop>

80000028 <exit>:
exit():
80000028:	340900ff 	li	t1,0xff
8000002c:	3c018000 	lui	at,0x8000
80000030:	a0297ffc 	sb	t1,32764(at)
	...
80000380:	0c000242 	jal	80000908 <exception>
80000384:	00000000 	nop
80000388:	0800000a 	j	80000028 <exit>
8000038c:	00000000 	nop

80000390 <shell>:
shell():
80000390:	27bdffd0 	addiu	sp,sp,-48
80000394:	afbf002c 	sw	ra,44(sp)
80000398:	afb30028 	sw	s3,40(sp)
8000039c:	afb20024 	sw	s2,36(sp)
800003a0:	afb10020 	sw	s1,32(sp)
800003a4:	0c000330 	jal	80000cc0 <get_count>
800003a8:	afb0001c 	sw	s0,28(sp)
800003ac:	0c000361 	jal	80000d84 <get_us>
800003b0:	00409025 	move	s2,v0
800003b4:	3c048000 	lui	a0,0x8000
800003b8:	240503e8 	li	a1,1000
800003bc:	24842fa0 	addiu	a0,a0,12192
800003c0:	0c000144 	jal	80000510 <bubble_sort>
800003c4:	00408825 	move	s1,v0
800003c8:	0c000330 	jal	80000cc0 <get_count>
800003cc:	00408025 	move	s0,v0
800003d0:	0c000361 	jal	80000d84 <get_us>
800003d4:	00409825 	move	s3,v0
800003d8:	3c078000 	lui	a3,0x8000
800003dc:	24e82000 	addiu	t0,a3,8192
800003e0:	01001825 	move	v1,t0
800003e4:	02722823 	subu	a1,s3,s2
800003e8:	00513023 	subu	a2,v0,s1
800003ec:	250f0fa0 	addiu	t7,t0,4000
800003f0:	0208c823 	subu	t9,s0,t0
800003f4:	03234821 	addu	t1,t9,v1
800003f8:	8c7f0000 	lw	ra,0(v1)
800003fc:	8d320000 	lw	s2,0(t1)
80000400:	01205025 	move	t2,t1
80000404:	01206025 	move	t4,t1
80000408:	01207025 	move	t6,t1
8000040c:	165f0030 	bne	s2,ra,800004d0 <shell+0x140>
80000410:	0120c025 	move	t8,t1
80000414:	8c640004 	lw	a0,4(v1)
80000418:	8d310004 	lw	s1,4(t1)
8000041c:	00000000 	nop
80000420:	1624002b 	bne	s1,a0,800004d0 <shell+0x140>
80000424:	00000000 	nop
80000428:	8c700008 	lw	s0,8(v1)
8000042c:	8d330008 	lw	s3,8(t1)
80000430:	00000000 	nop
80000434:	16700026 	bne	s3,s0,800004d0 <shell+0x140>
80000438:	00000000 	nop
8000043c:	8c67000c 	lw	a3,12(v1)
80000440:	8d28000c 	lw	t0,12(t1)
80000444:	00000000 	nop
80000448:	15070021 	bne	t0,a3,800004d0 <shell+0x140>
8000044c:	00000000 	nop
80000450:	8c690010 	lw	t1,16(v1)
80000454:	8d4a0010 	lw	t2,16(t2)
80000458:	00000000 	nop
8000045c:	1549001c 	bne	t2,t1,800004d0 <shell+0x140>
80000460:	00000000 	nop
80000464:	8c6b0014 	lw	t3,20(v1)
80000468:	8d8c0014 	lw	t4,20(t4)
8000046c:	00000000 	nop
80000470:	158b0017 	bne	t4,t3,800004d0 <shell+0x140>
80000474:	00000000 	nop
80000478:	8c6d0018 	lw	t5,24(v1)
8000047c:	8dce0018 	lw	t6,24(t6)
80000480:	00000000 	nop
80000484:	15cd0012 	bne	t6,t5,800004d0 <shell+0x140>
80000488:	00000000 	nop
8000048c:	8c62001c 	lw	v0,28(v1)
80000490:	8f18001c 	lw	t8,28(t8)
80000494:	00000000 	nop
80000498:	1702000d 	bne	t8,v0,800004d0 <shell+0x140>
8000049c:	24630020 	addiu	v1,v1,32
800004a0:	146fffd5 	bne	v1,t7,800003f8 <shell+0x68>
800004a4:	03234821 	addu	t1,t9,v1
800004a8:	8fbf002c 	lw	ra,44(sp)
800004ac:	8fb30028 	lw	s3,40(sp)
800004b0:	8fb20024 	lw	s2,36(sp)
800004b4:	8fb10020 	lw	s1,32(sp)
800004b8:	8fb0001c 	lw	s0,28(sp)
800004bc:	3c0f8000 	lui	t7,0x8000
800004c0:	25e40ef4 	addiu	a0,t7,3828
800004c4:	08000254 	j	80000950 <printf>
800004c8:	27bd0030 	addiu	sp,sp,48
800004cc:	00000000 	nop
800004d0:	afa50010 	sw	a1,16(sp)
800004d4:	3c058000 	lui	a1,0x8000
800004d8:	24a40ee0 	addiu	a0,a1,3808
800004dc:	0c000254 	jal	80000950 <printf>
800004e0:	afa60014 	sw	a2,20(sp)
800004e4:	8fa50010 	lw	a1,16(sp)
800004e8:	8fa60014 	lw	a2,20(sp)
800004ec:	8fbf002c 	lw	ra,44(sp)
800004f0:	8fb30028 	lw	s3,40(sp)
800004f4:	8fb20024 	lw	s2,36(sp)
800004f8:	8fb10020 	lw	s1,32(sp)
800004fc:	8fb0001c 	lw	s0,28(sp)
80000500:	3c0f8000 	lui	t7,0x8000
80000504:	25e40ef4 	addiu	a0,t7,3828
80000508:	08000254 	j	80000950 <printf>
8000050c:	27bd0030 	addiu	sp,sp,48

80000510 <bubble_sort>:
bubble_sort():
80000510:	04a000f3 	bltz	a1,800008e0 <bubble_sort+0x3d0>
80000514:	24860004 	addiu	a2,a0,4
80000518:	00054080 	sll	t0,a1,0x2
8000051c:	00c85021 	addu	t2,a2,t0
80000520:	01443823 	subu	a3,t2,a0
80000524:	24e3fffc 	addiu	v1,a3,-4
80000528:	00034882 	srl	t1,v1,0x2
8000052c:	252b0001 	addiu	t3,t1,1
80000530:	3c0c8000 	lui	t4,0x8000
80000534:	25823f40 	addiu	v0,t4,16192
80000538:	316d0007 	andi	t5,t3,0x7
8000053c:	11a00027 	beqz	t5,800005dc <bubble_sort+0xcc>
80000540:	00401825 	move	v1,v0
80000544:	240e0001 	li	t6,1
80000548:	11ae001f 	beq	t5,t6,800005c8 <bubble_sort+0xb8>
8000054c:	240f0002 	li	t7,2
80000550:	11af0019 	beq	t5,t7,800005b8 <bubble_sort+0xa8>
80000554:	24180003 	li	t8,3
80000558:	11b80013 	beq	t5,t8,800005a8 <bubble_sort+0x98>
8000055c:	24190004 	li	t9,4
80000560:	11b9000d 	beq	t5,t9,80000598 <bubble_sort+0x88>
80000564:	24080005 	li	t0,5
80000568:	11a80007 	beq	t5,t0,80000588 <bubble_sort+0x78>
8000056c:	24070006 	li	a3,6
80000570:	15a700d6 	bne	t5,a3,800008cc <bubble_sort+0x3bc>
80000574:	00000000 	nop
80000578:	8c860000 	lw	a2,0(a0)
8000057c:	24630004 	addiu	v1,v1,4
80000580:	ac66fffc 	sw	a2,-4(v1)
80000584:	24840004 	addiu	a0,a0,4
80000588:	8c890000 	lw	t1,0(a0)
8000058c:	24630004 	addiu	v1,v1,4
80000590:	ac69fffc 	sw	t1,-4(v1)
80000594:	24840004 	addiu	a0,a0,4
80000598:	8c8b0000 	lw	t3,0(a0)
8000059c:	24630004 	addiu	v1,v1,4
800005a0:	ac6bfffc 	sw	t3,-4(v1)
800005a4:	24840004 	addiu	a0,a0,4
800005a8:	8c8c0000 	lw	t4,0(a0)
800005ac:	24630004 	addiu	v1,v1,4
800005b0:	ac6cfffc 	sw	t4,-4(v1)
800005b4:	24840004 	addiu	a0,a0,4
800005b8:	8c8d0000 	lw	t5,0(a0)
800005bc:	24630004 	addiu	v1,v1,4
800005c0:	ac6dfffc 	sw	t5,-4(v1)
800005c4:	24840004 	addiu	a0,a0,4
800005c8:	8c8e0000 	lw	t6,0(a0)
800005cc:	24840004 	addiu	a0,a0,4
800005d0:	ac6e0000 	sw	t6,0(v1)
800005d4:	108a0019 	beq	a0,t2,8000063c <bubble_sort+0x12c>
800005d8:	24630004 	addiu	v1,v1,4
800005dc:	8c8f0000 	lw	t7,0(a0)
800005e0:	24840020 	addiu	a0,a0,32
800005e4:	ac6f0000 	sw	t7,0(v1)
800005e8:	8c98ffe4 	lw	t8,-28(a0)
800005ec:	24630020 	addiu	v1,v1,32
800005f0:	ac78ffe4 	sw	t8,-28(v1)
800005f4:	8c99ffe8 	lw	t9,-24(a0)
800005f8:	00000000 	nop
800005fc:	ac79ffe8 	sw	t9,-24(v1)
80000600:	8c88ffec 	lw	t0,-20(a0)
80000604:	00000000 	nop
80000608:	ac68ffec 	sw	t0,-20(v1)
8000060c:	8c87fff0 	lw	a3,-16(a0)
80000610:	00000000 	nop
80000614:	ac67fff0 	sw	a3,-16(v1)
80000618:	8c86fff4 	lw	a2,-12(a0)
8000061c:	00000000 	nop
80000620:	ac66fff4 	sw	a2,-12(v1)
80000624:	8c89fff8 	lw	t1,-8(a0)
80000628:	00000000 	nop
8000062c:	ac69fff8 	sw	t1,-8(v1)
80000630:	8c8bfffc 	lw	t3,-4(a0)
80000634:	148affe9 	bne	a0,t2,800005dc <bubble_sort+0xcc>
80000638:	ac6bfffc 	sw	t3,-4(v1)
8000063c:	18a0009e 	blez	a1,800008b8 <bubble_sort+0x3a8>
80000640:	24a6ffff 	addiu	a2,a1,-1
80000644:	00062880 	sll	a1,a2,0x2
80000648:	00452821 	addu	a1,v0,a1
8000064c:	18c00095 	blez	a2,800008a4 <bubble_sort+0x394>
80000650:	00401825 	move	v1,v0
80000654:	00a25023 	subu	t2,a1,v0
80000658:	2544fffc 	addiu	a0,t2,-4
8000065c:	00046082 	srl	t4,a0,0x2
80000660:	258d0001 	addiu	t5,t4,1
80000664:	31ae0007 	andi	t6,t5,0x7
80000668:	11c0004c 	beqz	t6,8000079c <bubble_sort+0x28c>
8000066c:	240f0001 	li	t7,1
80000670:	11cf003f 	beq	t6,t7,80000770 <bubble_sort+0x260>
80000674:	24180002 	li	t8,2
80000678:	11d80034 	beq	t6,t8,8000074c <bubble_sort+0x23c>
8000067c:	24190003 	li	t9,3
80000680:	11d90029 	beq	t6,t9,80000728 <bubble_sort+0x218>
80000684:	24080004 	li	t0,4
80000688:	11c8001e 	beq	t6,t0,80000704 <bubble_sort+0x1f4>
8000068c:	24070005 	li	a3,5
80000690:	11c70013 	beq	t6,a3,800006e0 <bubble_sort+0x1d0>
80000694:	24090006 	li	t1,6
80000698:	11c90008 	beq	t6,t1,800006bc <bubble_sort+0x1ac>
8000069c:	00000000 	nop
800006a0:	8c430000 	lw	v1,0(v0)
800006a4:	8c4b0004 	lw	t3,4(v0)
800006a8:	00000000 	nop
800006ac:	0163502a 	slt	t2,t3,v1
800006b0:	15400083 	bnez	t2,800008c0 <bubble_sort+0x3b0>
800006b4:	00000000 	nop
800006b8:	24430004 	addiu	v1,v0,4
800006bc:	8c640000 	lw	a0,0(v1)
800006c0:	8c6c0004 	lw	t4,4(v1)
800006c4:	00000000 	nop
800006c8:	0184682a 	slt	t5,t4,a0
800006cc:	11a00003 	beqz	t5,800006dc <bubble_sort+0x1cc>
800006d0:	00000000 	nop
800006d4:	ac6c0000 	sw	t4,0(v1)
800006d8:	ac640004 	sw	a0,4(v1)
800006dc:	24630004 	addiu	v1,v1,4
800006e0:	8c6e0000 	lw	t6,0(v1)
800006e4:	8c6f0004 	lw	t7,4(v1)
800006e8:	00000000 	nop
800006ec:	01eec02a 	slt	t8,t7,t6
800006f0:	13000003 	beqz	t8,80000700 <bubble_sort+0x1f0>
800006f4:	00000000 	nop
800006f8:	ac6f0000 	sw	t7,0(v1)
800006fc:	ac6e0004 	sw	t6,4(v1)
80000700:	24630004 	addiu	v1,v1,4
80000704:	8c790000 	lw	t9,0(v1)
80000708:	8c670004 	lw	a3,4(v1)
8000070c:	00000000 	nop
80000710:	00f9402a 	slt	t0,a3,t9
80000714:	11000003 	beqz	t0,80000724 <bubble_sort+0x214>
80000718:	00000000 	nop
8000071c:	ac670000 	sw	a3,0(v1)
80000720:	ac790004 	sw	t9,4(v1)
80000724:	24630004 	addiu	v1,v1,4
80000728:	8c690000 	lw	t1,0(v1)
8000072c:	8c6b0004 	lw	t3,4(v1)
80000730:	00000000 	nop
80000734:	0169502a 	slt	t2,t3,t1
80000738:	11400003 	beqz	t2,80000748 <bubble_sort+0x238>
8000073c:	00000000 	nop
80000740:	ac6b0000 	sw	t3,0(v1)
80000744:	ac690004 	sw	t1,4(v1)
80000748:	24630004 	addiu	v1,v1,4
8000074c:	8c640000 	lw	a0,0(v1)
80000750:	8c6c0004 	lw	t4,4(v1)
80000754:	00000000 	nop
80000758:	0184682a 	slt	t5,t4,a0
8000075c:	11a00003 	beqz	t5,8000076c <bubble_sort+0x25c>
80000760:	00000000 	nop
80000764:	ac6c0000 	sw	t4,0(v1)
80000768:	ac640004 	sw	a0,4(v1)
8000076c:	24630004 	addiu	v1,v1,4
80000770:	8c6e0000 	lw	t6,0(v1)
80000774:	8c6f0004 	lw	t7,4(v1)
80000778:	00000000 	nop
8000077c:	01eec02a 	slt	t8,t7,t6
80000780:	13000003 	beqz	t8,80000790 <bubble_sort+0x280>
80000784:	00000000 	nop
80000788:	ac6f0000 	sw	t7,0(v1)
8000078c:	ac6e0004 	sw	t6,4(v1)
80000790:	24630004 	addiu	v1,v1,4
80000794:	10a30043 	beq	a1,v1,800008a4 <bubble_sort+0x394>
80000798:	00000000 	nop
8000079c:	8c790000 	lw	t9,0(v1)
800007a0:	8c670004 	lw	a3,4(v1)
800007a4:	00000000 	nop
800007a8:	00f9402a 	slt	t0,a3,t9
800007ac:	11000003 	beqz	t0,800007bc <bubble_sort+0x2ac>
800007b0:	00000000 	nop
800007b4:	ac670000 	sw	a3,0(v1)
800007b8:	ac790004 	sw	t9,4(v1)
800007bc:	8c6b0004 	lw	t3,4(v1)
800007c0:	8c6a0008 	lw	t2,8(v1)
800007c4:	00000000 	nop
800007c8:	014b482a 	slt	t1,t2,t3
800007cc:	11200003 	beqz	t1,800007dc <bubble_sort+0x2cc>
800007d0:	24640004 	addiu	a0,v1,4
800007d4:	ac6a0004 	sw	t2,4(v1)
800007d8:	ac8b0004 	sw	t3,4(a0)
800007dc:	8c830004 	lw	v1,4(a0)
800007e0:	8c8c0008 	lw	t4,8(a0)
800007e4:	00000000 	nop
800007e8:	0183682a 	slt	t5,t4,v1
800007ec:	11a00003 	beqz	t5,800007fc <bubble_sort+0x2ec>
800007f0:	00000000 	nop
800007f4:	ac8c0004 	sw	t4,4(a0)
800007f8:	ac830008 	sw	v1,8(a0)
800007fc:	8c8e0008 	lw	t6,8(a0)
80000800:	8c8f000c 	lw	t7,12(a0)
80000804:	00000000 	nop
80000808:	01eec02a 	slt	t8,t7,t6
8000080c:	13000003 	beqz	t8,8000081c <bubble_sort+0x30c>
80000810:	00000000 	nop
80000814:	ac8f0008 	sw	t7,8(a0)
80000818:	ac8e000c 	sw	t6,12(a0)
8000081c:	8c99000c 	lw	t9,12(a0)
80000820:	8c870010 	lw	a3,16(a0)
80000824:	00000000 	nop
80000828:	00f9402a 	slt	t0,a3,t9
8000082c:	11000003 	beqz	t0,8000083c <bubble_sort+0x32c>
80000830:	00000000 	nop
80000834:	ac87000c 	sw	a3,12(a0)
80000838:	ac990010 	sw	t9,16(a0)
8000083c:	8c8b0010 	lw	t3,16(a0)
80000840:	8c8a0014 	lw	t2,20(a0)
80000844:	00000000 	nop
80000848:	014b482a 	slt	t1,t2,t3
8000084c:	11200003 	beqz	t1,8000085c <bubble_sort+0x34c>
80000850:	00000000 	nop
80000854:	ac8a0010 	sw	t2,16(a0)
80000858:	ac8b0014 	sw	t3,20(a0)
8000085c:	8c830014 	lw	v1,20(a0)
80000860:	8c8c0018 	lw	t4,24(a0)
80000864:	00000000 	nop
80000868:	0183682a 	slt	t5,t4,v1
8000086c:	11a00003 	beqz	t5,8000087c <bubble_sort+0x36c>
80000870:	00000000 	nop
80000874:	ac8c0014 	sw	t4,20(a0)
80000878:	ac830018 	sw	v1,24(a0)
8000087c:	8c8e0018 	lw	t6,24(a0)
80000880:	8c8f001c 	lw	t7,28(a0)
80000884:	00000000 	nop
80000888:	01eec02a 	slt	t8,t7,t6
8000088c:	13000003 	beqz	t8,8000089c <bubble_sort+0x38c>
80000890:	2483001c 	addiu	v1,a0,28
80000894:	ac8f0018 	sw	t7,24(a0)
80000898:	ac8e001c 	sw	t6,28(a0)
8000089c:	14a3ffbf 	bne	a1,v1,8000079c <bubble_sort+0x28c>
800008a0:	00000000 	nop
800008a4:	24c6ffff 	addiu	a2,a2,-1
800008a8:	10450003 	beq	v0,a1,800008b8 <bubble_sort+0x3a8>
800008ac:	24a4fffc 	addiu	a0,a1,-4
800008b0:	1000ff66 	b	8000064c <bubble_sort+0x13c>
800008b4:	00802825 	move	a1,a0
800008b8:	03e00008 	jr	ra
800008bc:	00000000 	nop
800008c0:	ac4b0000 	sw	t3,0(v0)
800008c4:	1000ff7c 	b	800006b8 <bubble_sort+0x1a8>
800008c8:	ac430004 	sw	v1,4(v0)
800008cc:	8c840000 	lw	a0,0(a0)
800008d0:	24430004 	addiu	v1,v0,4
800008d4:	ac440000 	sw	a0,0(v0)
800008d8:	1000ff27 	b	80000578 <bubble_sort+0x68>
800008dc:	00c02025 	move	a0,a2
800008e0:	3c028000 	lui	v0,0x8000
800008e4:	03e00008 	jr	ra
800008e8:	24423f40 	addiu	v0,v0,16192
800008ec:	00000000 	nop

800008f0 <get_epc>:
get_epc():
800008f0:	40027000 	mfc0	v0,c0_epc
800008f4:	03e00008 	jr	ra
800008f8:	00000000 	nop

800008fc <get_cause>:
get_cause():
800008fc:	40026800 	mfc0	v0,c0_cause
80000900:	03e00008 	jr	ra
80000904:	00000000 	nop

80000908 <exception>:
exception():
80000908:	3c048000 	lui	a0,0x8000
8000090c:	27bdffe8 	addiu	sp,sp,-24
80000910:	afbf0014 	sw	ra,20(sp)
80000914:	0c000254 	jal	80000950 <printf>
80000918:	24840f0c 	addiu	a0,a0,3852
8000091c:	3c048000 	lui	a0,0x8000
80000920:	24840f28 	addiu	a0,a0,3880
80000924:	40057000 	mfc0	a1,c0_epc
80000928:	0c000254 	jal	80000950 <printf>
8000092c:	00000000 	nop
80000930:	8fbf0014 	lw	ra,20(sp)
80000934:	3c048000 	lui	a0,0x8000
80000938:	24840f38 	addiu	a0,a0,3896
8000093c:	27bd0018 	addiu	sp,sp,24
80000940:	40056800 	mfc0	a1,c0_cause
80000944:	08000254 	j	80000950 <printf>
80000948:	00000000 	nop
8000094c:	00000000 	nop

80000950 <printf>:
printf():
80000950:	27bdffd0 	addiu	sp,sp,-48
80000954:	afb30024 	sw	s3,36(sp)
80000958:	afbf002c 	sw	ra,44(sp)
8000095c:	afb40028 	sw	s4,40(sp)
80000960:	afb20020 	sw	s2,32(sp)
80000964:	afb1001c 	sw	s1,28(sp)
80000968:	afb00018 	sw	s0,24(sp)
8000096c:	80900000 	lb	s0,0(a0)
80000970:	27b30034 	addiu	s3,sp,52
80000974:	afa50034 	sw	a1,52(sp)
80000978:	afa60038 	sw	a2,56(sp)
8000097c:	afa7003c 	sw	a3,60(sp)
80000980:	12000024 	beqz	s0,80000a14 <printf+0xc4>
80000984:	afb30010 	sw	s3,16(sp)
80000988:	3c148000 	lui	s4,0x8000
8000098c:	00809025 	move	s2,a0
80000990:	00008825 	move	s1,zero
80000994:	10000009 	b	800009bc <printf+0x6c>
80000998:	26940f50 	addiu	s4,s4,3920
8000099c:	0c0002e4 	jal	80000b90 <putchar>
800009a0:	02002025 	move	a0,s0
800009a4:	26310001 	addiu	s1,s1,1
800009a8:	02511021 	addu	v0,s2,s1
800009ac:	80500000 	lb	s0,0(v0)
800009b0:	00000000 	nop
800009b4:	12000017 	beqz	s0,80000a14 <printf+0xc4>
800009b8:	00000000 	nop
800009bc:	24020025 	li	v0,37
800009c0:	12020007 	beq	s0,v0,800009e0 <printf+0x90>
800009c4:	2402000a 	li	v0,10
800009c8:	1602fff4 	bne	s0,v0,8000099c <printf+0x4c>
800009cc:	00000000 	nop
800009d0:	0c0002e4 	jal	80000b90 <putchar>
800009d4:	2404000d 	li	a0,13
800009d8:	1000fff0 	b	8000099c <printf+0x4c>
800009dc:	00000000 	nop
800009e0:	02511021 	addu	v0,s2,s1
800009e4:	80440001 	lb	a0,1(v0)
800009e8:	24050001 	li	a1,1
800009ec:	2482ffdb 	addiu	v0,a0,-37
800009f0:	304200ff 	andi	v0,v0,0xff
800009f4:	2c430054 	sltiu	v1,v0,84
800009f8:	10600028 	beqz	v1,80000a9c <printf+0x14c>
800009fc:	00021080 	sll	v0,v0,0x2
80000a00:	02821021 	addu	v0,s4,v0
80000a04:	8c420000 	lw	v0,0(v0)
80000a08:	00000000 	nop
80000a0c:	00400008 	jr	v0
80000a10:	00000000 	nop
80000a14:	8fbf002c 	lw	ra,44(sp)
80000a18:	8fb40028 	lw	s4,40(sp)
80000a1c:	8fb30024 	lw	s3,36(sp)
80000a20:	8fb20020 	lw	s2,32(sp)
80000a24:	8fb1001c 	lw	s1,28(sp)
80000a28:	8fb00018 	lw	s0,24(sp)
80000a2c:	00001025 	move	v0,zero
80000a30:	03e00008 	jr	ra
80000a34:	27bd0030 	addiu	sp,sp,48
80000a38:	02511021 	addu	v0,s2,s1
80000a3c:	80440002 	lb	a0,2(v0)
80000a40:	26310001 	addiu	s1,s1,1
80000a44:	2482ffcf 	addiu	v0,a0,-49
80000a48:	304200ff 	andi	v0,v0,0xff
80000a4c:	2c420009 	sltiu	v0,v0,9
80000a50:	1040ffe6 	beqz	v0,800009ec <printf+0x9c>
80000a54:	00002825 	move	a1,zero
80000a58:	26310001 	addiu	s1,s1,1
80000a5c:	02511021 	addu	v0,s2,s1
80000a60:	2486ffd0 	addiu	a2,a0,-48
80000a64:	80440001 	lb	a0,1(v0)
80000a68:	00051880 	sll	v1,a1,0x2
80000a6c:	2482ffcf 	addiu	v0,a0,-49
80000a70:	00652821 	addu	a1,v1,a1
80000a74:	304200ff 	andi	v0,v0,0xff
80000a78:	00052840 	sll	a1,a1,0x1
80000a7c:	2c420009 	sltiu	v0,v0,9
80000a80:	1440fff5 	bnez	v0,80000a58 <printf+0x108>
80000a84:	00c52821 	addu	a1,a2,a1
80000a88:	2482ffdb 	addiu	v0,a0,-37
80000a8c:	304200ff 	andi	v0,v0,0xff
80000a90:	2c430054 	sltiu	v1,v0,84
80000a94:	1460ffda 	bnez	v1,80000a00 <printf+0xb0>
80000a98:	00021080 	sll	v0,v0,0x2
80000a9c:	0c0002e4 	jal	80000b90 <putchar>
80000aa0:	24040025 	li	a0,37
80000aa4:	1000ffc0 	b	800009a8 <printf+0x58>
80000aa8:	26310001 	addiu	s1,s1,1
80000aac:	8e640000 	lw	a0,0(s3)
80000ab0:	00003825 	move	a3,zero
80000ab4:	0c000370 	jal	80000dc0 <printbase>
80000ab8:	24060010 	li	a2,16
80000abc:	26730004 	addiu	s3,s3,4
80000ac0:	1000ffb8 	b	800009a4 <printf+0x54>
80000ac4:	26310001 	addiu	s1,s1,1
80000ac8:	8e640000 	lw	a0,0(s3)
80000acc:	0c0002fc 	jal	80000bf0 <putstring>
80000ad0:	26310001 	addiu	s1,s1,1
80000ad4:	1000ffb3 	b	800009a4 <printf+0x54>
80000ad8:	26730004 	addiu	s3,s3,4
80000adc:	8e640000 	lw	a0,0(s3)
80000ae0:	0c0002e4 	jal	80000b90 <putchar>
80000ae4:	26310001 	addiu	s1,s1,1
80000ae8:	1000ffae 	b	800009a4 <printf+0x54>
80000aec:	26730004 	addiu	s3,s3,4
80000af0:	8e640000 	lw	a0,0(s3)
80000af4:	24070001 	li	a3,1
80000af8:	0c000370 	jal	80000dc0 <printbase>
80000afc:	2406000a 	li	a2,10
80000b00:	26730004 	addiu	s3,s3,4
80000b04:	1000ffa7 	b	800009a4 <printf+0x54>
80000b08:	26310001 	addiu	s1,s1,1
80000b0c:	8e640000 	lw	a0,0(s3)
80000b10:	00003825 	move	a3,zero
80000b14:	0c000370 	jal	80000dc0 <printbase>
80000b18:	24060002 	li	a2,2
80000b1c:	26730004 	addiu	s3,s3,4
80000b20:	1000ffa0 	b	800009a4 <printf+0x54>
80000b24:	26310001 	addiu	s1,s1,1
80000b28:	8e640000 	lw	a0,0(s3)
80000b2c:	00003825 	move	a3,zero
80000b30:	0c000370 	jal	80000dc0 <printbase>
80000b34:	2406000a 	li	a2,10
80000b38:	26730004 	addiu	s3,s3,4
80000b3c:	1000ff99 	b	800009a4 <printf+0x54>
80000b40:	26310001 	addiu	s1,s1,1
80000b44:	8e640000 	lw	a0,0(s3)
80000b48:	00003825 	move	a3,zero
80000b4c:	0c000370 	jal	80000dc0 <printbase>
80000b50:	2406000a 	li	a2,10
80000b54:	26730004 	addiu	s3,s3,4
80000b58:	1000ff92 	b	800009a4 <printf+0x54>
80000b5c:	26310002 	addiu	s1,s1,2
80000b60:	8e640000 	lw	a0,0(s3)
80000b64:	00003825 	move	a3,zero
80000b68:	0c000370 	jal	80000dc0 <printbase>
80000b6c:	24060008 	li	a2,8
80000b70:	26730004 	addiu	s3,s3,4
80000b74:	1000ff8b 	b	800009a4 <printf+0x54>
80000b78:	26310001 	addiu	s1,s1,1
80000b7c:	0c0002e4 	jal	80000b90 <putchar>
80000b80:	24040025 	li	a0,37
80000b84:	1000ff87 	b	800009a4 <printf+0x54>
80000b88:	26310001 	addiu	s1,s1,1
80000b8c:	00000000 	nop

80000b90 <putchar>:
putchar():
80000b90:	3c03a300 	lui	v1,0xa300
80000b94:	8c620000 	lw	v0,0(v1)
80000b98:	00000000 	nop
80000b9c:	30420001 	andi	v0,v0,0x1
80000ba0:	1040fffc 	beqz	v0,80000b94 <putchar+0x4>
80000ba4:	00000000 	nop
80000ba8:	10800002 	beqz	a0,80000bb4 <putchar+0x24>
80000bac:	00000000 	nop
80000bb0:	ac640004 	sw	a0,4(v1)
80000bb4:	03e00008 	jr	ra
80000bb8:	00001025 	move	v0,zero

80000bbc <tgt_putchar>:
tgt_putchar():
80000bbc:	3c03a300 	lui	v1,0xa300
80000bc0:	8c620000 	lw	v0,0(v1)
80000bc4:	00000000 	nop
80000bc8:	30420001 	andi	v0,v0,0x1
80000bcc:	1040fffc 	beqz	v0,80000bc0 <tgt_putchar+0x4>
80000bd0:	00000000 	nop
80000bd4:	10800002 	beqz	a0,80000be0 <tgt_putchar+0x24>
80000bd8:	00000000 	nop
80000bdc:	ac640004 	sw	a0,4(v1)
80000be0:	03e00008 	jr	ra
80000be4:	00000000 	nop
	...

80000bf0 <putstring>:
putstring():
80000bf0:	27bdffe0 	addiu	sp,sp,-32
80000bf4:	afbf001c 	sw	ra,28(sp)
80000bf8:	afb20018 	sw	s2,24(sp)
80000bfc:	afb10014 	sw	s1,20(sp)
80000c00:	afb00010 	sw	s0,16(sp)
80000c04:	80900000 	lb	s0,0(a0)
80000c08:	00000000 	nop
80000c0c:	12000013 	beqz	s0,80000c5c <putstring+0x6c>
80000c10:	00808825 	move	s1,a0
80000c14:	10000007 	b	80000c34 <putstring+0x44>
80000c18:	2412000a 	li	s2,10
80000c1c:	0c0002e4 	jal	80000b90 <putchar>
80000c20:	02002025 	move	a0,s0
80000c24:	82300000 	lb	s0,0(s1)
80000c28:	00000000 	nop
80000c2c:	1200000b 	beqz	s0,80000c5c <putstring+0x6c>
80000c30:	00000000 	nop
80000c34:	1612fff9 	bne	s0,s2,80000c1c <putstring+0x2c>
80000c38:	26310001 	addiu	s1,s1,1
80000c3c:	0c0002e4 	jal	80000b90 <putchar>
80000c40:	2404000d 	li	a0,13
80000c44:	0c0002e4 	jal	80000b90 <putchar>
80000c48:	02002025 	move	a0,s0
80000c4c:	82300000 	lb	s0,0(s1)
80000c50:	00000000 	nop
80000c54:	1600fff7 	bnez	s0,80000c34 <putstring+0x44>
80000c58:	00000000 	nop
80000c5c:	8fbf001c 	lw	ra,28(sp)
80000c60:	8fb20018 	lw	s2,24(sp)
80000c64:	8fb10014 	lw	s1,20(sp)
80000c68:	8fb00010 	lw	s0,16(sp)
80000c6c:	00001025 	move	v0,zero
80000c70:	03e00008 	jr	ra
80000c74:	27bd0020 	addiu	sp,sp,32

80000c78 <puts>:
puts():
80000c78:	27bdffe8 	addiu	sp,sp,-24
80000c7c:	afbf0014 	sw	ra,20(sp)
80000c80:	0c0002fc 	jal	80000bf0 <putstring>
80000c84:	00000000 	nop
80000c88:	0c0002e4 	jal	80000b90 <putchar>
80000c8c:	2404000d 	li	a0,13
80000c90:	0c0002e4 	jal	80000b90 <putchar>
80000c94:	2404000a 	li	a0,10
80000c98:	8fbf0014 	lw	ra,20(sp)
80000c9c:	00001025 	move	v0,zero
80000ca0:	03e00008 	jr	ra
80000ca4:	27bd0018 	addiu	sp,sp,24
	...

80000cb0 <_get_count>:
_get_count():
80000cb0:	3c02a400 	lui	v0,0xa400
80000cb4:	8c420004 	lw	v0,4(v0)
80000cb8:	03e00008 	jr	ra
80000cbc:	00000000 	nop

80000cc0 <get_count>:
get_count():
80000cc0:	3c02a400 	lui	v0,0xa400
80000cc4:	8c420004 	lw	v0,4(v0)
80000cc8:	03e00008 	jr	ra
80000ccc:	00000000 	nop

80000cd0 <clock_gettime>:
clock_gettime():
80000cd0:	3c02a400 	lui	v0,0xa400
80000cd4:	8c440004 	lw	a0,4(v0)
80000cd8:	240203e8 	li	v0,1000
80000cdc:	14400002 	bnez	v0,80000ce8 <clock_gettime+0x18>
80000ce0:	0082001b 	divu	zero,a0,v0
80000ce4:	0007000d 	break	0x7
80000ce8:	00043840 	sll	a3,a0,0x1
80000cec:	27bdffe8 	addiu	sp,sp,-24
80000cf0:	00a04025 	move	t0,a1
80000cf4:	afbf0014 	sw	ra,20(sp)
80000cf8:	aca00000 	sw	zero,0(a1)
80000cfc:	3c048000 	lui	a0,0x8000
80000d00:	00003025 	move	a2,zero
80000d04:	248410a0 	addiu	a0,a0,4256
80000d08:	00001812 	mflo	v1
80000d0c:	00031840 	sll	v1,v1,0x1
80000d10:	00000000 	nop
80000d14:	14400002 	bnez	v0,80000d20 <clock_gettime+0x50>
80000d18:	0062001b 	divu	zero,v1,v0
80000d1c:	0007000d 	break	0x7
80000d20:	00004810 	mfhi	t1
80000d24:	ad090008 	sw	t1,8(t0)
80000d28:	00001812 	mflo	v1
	...
80000d34:	14400002 	bnez	v0,80000d40 <clock_gettime+0x70>
80000d38:	00e2001b 	divu	zero,a3,v0
80000d3c:	0007000d 	break	0x7
80000d40:	00002810 	mfhi	a1
80000d44:	ad050004 	sw	a1,4(t0)
80000d48:	00000000 	nop
80000d4c:	14400002 	bnez	v0,80000d58 <clock_gettime+0x88>
80000d50:	0062001b 	divu	zero,v1,v0
80000d54:	0007000d 	break	0x7
80000d58:	00001010 	mfhi	v0
80000d5c:	0c000254 	jal	80000950 <printf>
80000d60:	ad02000c 	sw	v0,12(t0)
80000d64:	8fbf0014 	lw	ra,20(sp)
80000d68:	00001025 	move	v0,zero
80000d6c:	03e00008 	jr	ra
80000d70:	27bd0018 	addiu	sp,sp,24

80000d74 <get_clock>:
get_clock():
80000d74:	3c02a400 	lui	v0,0xa400
80000d78:	8c420004 	lw	v0,4(v0)
80000d7c:	03e00008 	jr	ra
80000d80:	00021040 	sll	v0,v0,0x1

80000d84 <get_us>:
get_us():
80000d84:	3c02a400 	lui	v0,0xa400
80000d88:	8c420000 	lw	v0,0(v0)
80000d8c:	03e00008 	jr	ra
80000d90:	00000000 	nop

80000d94 <get_ns>:
get_ns():
80000d94:	3c02a400 	lui	v0,0xa400
80000d98:	8c430000 	lw	v1,0(v0)
80000d9c:	00000000 	nop
80000da0:	00031140 	sll	v0,v1,0x5
80000da4:	00431023 	subu	v0,v0,v1
80000da8:	00021080 	sll	v0,v0,0x2
80000dac:	00431021 	addu	v0,v0,v1
80000db0:	03e00008 	jr	ra
80000db4:	000210c0 	sll	v0,v0,0x3
	...

80000dc0 <printbase>:
printbase():
80000dc0:	27bdffa0 	addiu	sp,sp,-96
80000dc4:	afb00054 	sw	s0,84(sp)
80000dc8:	afbf005c 	sw	ra,92(sp)
80000dcc:	afb10058 	sw	s1,88(sp)
80000dd0:	10e00003 	beqz	a3,80000de0 <printbase+0x20>
80000dd4:	00808025 	move	s0,a0
80000dd8:	04800032 	bltz	a0,80000ea4 <printbase+0xe4>
80000ddc:	2404002d 	li	a0,45
80000de0:	12000038 	beqz	s0,80000ec4 <printbase+0x104>
80000de4:	27a20010 	addiu	v0,sp,16
80000de8:	24070001 	li	a3,1
80000dec:	00e23823 	subu	a3,a3,v0
80000df0:	14c00002 	bnez	a2,80000dfc <printbase+0x3c>
80000df4:	0206001b 	divu	zero,s0,a2
80000df8:	0007000d 	break	0x7
80000dfc:	00e28821 	addu	s1,a3,v0
80000e00:	0206202b 	sltu	a0,s0,a2
80000e04:	24420001 	addiu	v0,v0,1
80000e08:	00001810 	mfhi	v1
80000e0c:	00008012 	mflo	s0
80000e10:	1080fff7 	beqz	a0,80000df0 <printbase+0x30>
80000e14:	a043ffff 	sb	v1,-1(v0)
80000e18:	00b1102a 	slt	v0,a1,s1
80000e1c:	1440001f 	bnez	v0,80000e9c <printbase+0xdc>
80000e20:	00000000 	nop
80000e24:	1000000b 	b	80000e54 <printbase+0x94>
80000e28:	00a08025 	move	s0,a1
80000e2c:	8064ffff 	lb	a0,-1(v1)
80000e30:	00000000 	nop
80000e34:	2882000a 	slti	v0,a0,10
80000e38:	10400016 	beqz	v0,80000e94 <printbase+0xd4>
80000e3c:	00000000 	nop
80000e40:	24840030 	addiu	a0,a0,48
80000e44:	0c0002e4 	jal	80000b90 <putchar>
80000e48:	2610ffff 	addiu	s0,s0,-1
80000e4c:	1200000b 	beqz	s0,80000e7c <printbase+0xbc>
80000e50:	00000000 	nop
80000e54:	27a20010 	addiu	v0,sp,16
80000e58:	00501821 	addu	v1,v0,s0
80000e5c:	0230102a 	slt	v0,s1,s0
80000e60:	1040fff2 	beqz	v0,80000e2c <printbase+0x6c>
80000e64:	00000000 	nop
80000e68:	2610ffff 	addiu	s0,s0,-1
80000e6c:	0c0002e4 	jal	80000b90 <putchar>
80000e70:	24040030 	li	a0,48
80000e74:	1600fff8 	bnez	s0,80000e58 <printbase+0x98>
80000e78:	27a20010 	addiu	v0,sp,16
80000e7c:	8fbf005c 	lw	ra,92(sp)
80000e80:	8fb10058 	lw	s1,88(sp)
80000e84:	8fb00054 	lw	s0,84(sp)
80000e88:	00001025 	move	v0,zero
80000e8c:	03e00008 	jr	ra
80000e90:	27bd0060 	addiu	sp,sp,96
80000e94:	1000ffeb 	b	80000e44 <printbase+0x84>
80000e98:	24840057 	addiu	a0,a0,87
80000e9c:	1000ffe1 	b	80000e24 <printbase+0x64>
80000ea0:	02202825 	move	a1,s1
80000ea4:	afa60068 	sw	a2,104(sp)
80000ea8:	afa50064 	sw	a1,100(sp)
80000eac:	0c0002e4 	jal	80000b90 <putchar>
80000eb0:	00108023 	negu	s0,s0
80000eb4:	8fa50064 	lw	a1,100(sp)
80000eb8:	8fa60068 	lw	a2,104(sp)
80000ebc:	1000ffca 	b	80000de8 <printbase+0x28>
80000ec0:	27a20010 	addiu	v0,sp,16
80000ec4:	18a0ffed 	blez	a1,80000e7c <printbase+0xbc>
80000ec8:	00008825 	move	s1,zero
80000ecc:	1000ffe1 	b	80000e54 <printbase+0x94>
80000ed0:	00a08025 	move	s0,a1
	...
80000ee0:	62627562 	0x62627562
80000ee4:	7320656c 	0x7320656c
80000ee8:	2074726f 	addi	s4,v1,29295
80000eec:	4f525245 	c3	0x1525245
80000ef0:	00002152 	0x2152
80000ef4:	656d6954 	0x656d6954
80000ef8:	7525203a 	jalx	849480e8 <_stack+0x4846108>
80000efc:	63796320 	0x63796320
80000f00:	2c73656c 	sltiu	s3,v1,25964
80000f04:	20752520 	addi	s5,v1,9504
80000f08:	00007375 	0x7375
80000f0c:	72656854 	0x72656854
80000f10:	73692065 	0x73692065
80000f14:	206e6120 	addi	t6,v1,24864
80000f18:	65637865 	0x65637865
80000f1c:	6f697470 	0x6f697470
80000f20:	0a21216e 	j	888485b8 <_stack+0x87465d8>
80000f24:	00000000 	nop
80000f28:	20656854 	addi	a1,v1,26708
80000f2c:	20637065 	addi	v1,v1,28773
80000f30:	25207369 	addiu	zero,t1,29545
80000f34:	00000a78 	0xa78
80000f38:	20656854 	addi	a1,v1,26708
80000f3c:	73756163 	0x73756163
80000f40:	73692065 	0x73692065
80000f44:	0a782520 	j	89e09480 <_stack+0x9d074a0>
80000f48:	00000000 	nop
80000f4c:	00000000 	nop
80000f50:	80000b7c 	lb	zero,2940(zero)
80000f54:	80000a9c 	lb	zero,2716(zero)
80000f58:	80000a9c 	lb	zero,2716(zero)
80000f5c:	80000a9c 	lb	zero,2716(zero)
80000f60:	80000a9c 	lb	zero,2716(zero)
80000f64:	80000a9c 	lb	zero,2716(zero)
80000f68:	80000a9c 	lb	zero,2716(zero)
80000f6c:	80000a9c 	lb	zero,2716(zero)
80000f70:	80000a9c 	lb	zero,2716(zero)
80000f74:	80000a9c 	lb	zero,2716(zero)
80000f78:	80000a9c 	lb	zero,2716(zero)
80000f7c:	80000a38 	lb	zero,2616(zero)
80000f80:	80000a44 	lb	zero,2628(zero)
80000f84:	80000a44 	lb	zero,2628(zero)
80000f88:	80000a44 	lb	zero,2628(zero)
80000f8c:	80000a44 	lb	zero,2628(zero)
80000f90:	80000a44 	lb	zero,2628(zero)
80000f94:	80000a44 	lb	zero,2628(zero)
80000f98:	80000a44 	lb	zero,2628(zero)
80000f9c:	80000a44 	lb	zero,2628(zero)
80000fa0:	80000a44 	lb	zero,2628(zero)
80000fa4:	80000a9c 	lb	zero,2716(zero)
80000fa8:	80000a9c 	lb	zero,2716(zero)
80000fac:	80000a9c 	lb	zero,2716(zero)
80000fb0:	80000a9c 	lb	zero,2716(zero)
80000fb4:	80000a9c 	lb	zero,2716(zero)
80000fb8:	80000a9c 	lb	zero,2716(zero)
80000fbc:	80000a9c 	lb	zero,2716(zero)
80000fc0:	80000a9c 	lb	zero,2716(zero)
80000fc4:	80000a9c 	lb	zero,2716(zero)
80000fc8:	80000a9c 	lb	zero,2716(zero)
80000fcc:	80000a9c 	lb	zero,2716(zero)
80000fd0:	80000a9c 	lb	zero,2716(zero)
80000fd4:	80000a9c 	lb	zero,2716(zero)
80000fd8:	80000a9c 	lb	zero,2716(zero)
80000fdc:	80000a9c 	lb	zero,2716(zero)
80000fe0:	80000a9c 	lb	zero,2716(zero)
80000fe4:	80000a9c 	lb	zero,2716(zero)
80000fe8:	80000a9c 	lb	zero,2716(zero)
80000fec:	80000a9c 	lb	zero,2716(zero)
80000ff0:	80000a9c 	lb	zero,2716(zero)
80000ff4:	80000a9c 	lb	zero,2716(zero)
80000ff8:	80000a9c 	lb	zero,2716(zero)
80000ffc:	80000a9c 	lb	zero,2716(zero)
80001000:	80000a9c 	lb	zero,2716(zero)
80001004:	80000a9c 	lb	zero,2716(zero)
80001008:	80000a9c 	lb	zero,2716(zero)
8000100c:	80000a9c 	lb	zero,2716(zero)
80001010:	80000a9c 	lb	zero,2716(zero)
80001014:	80000a9c 	lb	zero,2716(zero)
80001018:	80000a9c 	lb	zero,2716(zero)
8000101c:	80000a9c 	lb	zero,2716(zero)
80001020:	80000a9c 	lb	zero,2716(zero)
80001024:	80000a9c 	lb	zero,2716(zero)
80001028:	80000a9c 	lb	zero,2716(zero)
8000102c:	80000a9c 	lb	zero,2716(zero)
80001030:	80000a9c 	lb	zero,2716(zero)
80001034:	80000a9c 	lb	zero,2716(zero)
80001038:	80000a9c 	lb	zero,2716(zero)
8000103c:	80000a9c 	lb	zero,2716(zero)
80001040:	80000a9c 	lb	zero,2716(zero)
80001044:	80000b0c 	lb	zero,2828(zero)
80001048:	80000adc 	lb	zero,2780(zero)
8000104c:	80000af0 	lb	zero,2800(zero)
80001050:	80000a9c 	lb	zero,2716(zero)
80001054:	80000a9c 	lb	zero,2716(zero)
80001058:	80000a9c 	lb	zero,2716(zero)
8000105c:	80000a9c 	lb	zero,2716(zero)
80001060:	80000a9c 	lb	zero,2716(zero)
80001064:	80000a9c 	lb	zero,2716(zero)
80001068:	80000a9c 	lb	zero,2716(zero)
8000106c:	80000b44 	lb	zero,2884(zero)
80001070:	80000a9c 	lb	zero,2716(zero)
80001074:	80000a9c 	lb	zero,2716(zero)
80001078:	80000b60 	lb	zero,2912(zero)
8000107c:	80000aac 	lb	zero,2732(zero)
80001080:	80000a9c 	lb	zero,2716(zero)
80001084:	80000a9c 	lb	zero,2716(zero)
80001088:	80000ac8 	lb	zero,2760(zero)
8000108c:	80000a9c 	lb	zero,2716(zero)
80001090:	80000b28 	lb	zero,2856(zero)
80001094:	80000a9c 	lb	zero,2716(zero)
80001098:	80000a9c 	lb	zero,2716(zero)
8000109c:	80000aac 	lb	zero,2732(zero)
800010a0:	636f6c63 	0x636f6c63
800010a4:	736e206b 	0x736e206b
800010a8:	2c64253d 	sltiu	a0,v1,9533
800010ac:	3d636573 	0x3d636573
800010b0:	000a6425 	0xa6425
800010b4:	b0000602 	0xb0000602
	...
800010d0:	00010000 	sll	zero,at,0x0
800010d4:	03000001 	0x3000001
	...
