
obj/coremark/main.elf:     file format elf32-tradlittlemips
obj/coremark/main.elf


Disassembly of section .text:

80000000 <_ftext>:
_ftext():
80000000:	3c0a0040 	lui	t2,0x40
80000004:	408a6000 	mtc0	t2,c0_sr
80000008:	40806800 	mtc0	zero,c0_cause
8000000c:	3c1d8011 	lui	sp,0x8011
80000010:	27bdafe0 	addiu	sp,sp,-20512
80000014:	3c1c8001 	lui	gp,0x8001
80000018:	279c3000 	addiu	gp,gp,12288
8000001c:	0c0000e4 	jal	80000390 <shell>
80000020:	00000000 	nop

80000024 <loop>:
loop():
80000024:	08000009 	j	80000024 <loop>

80000028 <exit>:
exit():
80000028:	340900ff 	li	t1,0xff
8000002c:	3c018000 	lui	at,0x8000
80000030:	a0297ffc 	sb	t1,32764(at)
	...
80000380:	0c0026ee 	jal	80009bb8 <exception>
80000384:	00000000 	nop
80000388:	0800000a 	j	80000028 <exit>
8000038c:	00000000 	nop

80000390 <shell>:
shell():
80000390:	27bdffd0 	addiu	sp,sp,-48
80000394:	afbf002c 	sw	ra,44(sp)
80000398:	afb20028 	sw	s2,40(sp)
8000039c:	afb10024 	sw	s1,36(sp)
800003a0:	0c0027dc 	jal	80009f70 <get_count>
800003a4:	afb00020 	sw	s0,32(sp)
800003a8:	0c00280d 	jal	8000a034 <get_us>
800003ac:	00408025 	move	s0,v0
800003b0:	240307d0 	li	v1,2000
800003b4:	24080007 	li	t0,7
800003b8:	24070001 	li	a3,1
800003bc:	24060066 	li	a2,102
800003c0:	00002825 	move	a1,zero
800003c4:	00002025 	move	a0,zero
800003c8:	afa30018 	sw	v1,24(sp)
800003cc:	afa80010 	sw	t0,16(sp)
800003d0:	afa70014 	sw	a3,20(sp)
800003d4:	24070001 	li	a3,1
800003d8:	0c000134 	jal	800004d0 <core_mark>
800003dc:	00409025 	move	s2,v0
800003e0:	0c0027dc 	jal	80009f70 <get_count>
800003e4:	00000000 	nop
800003e8:	0c00280d 	jal	8000a034 <get_us>
800003ec:	00408825 	move	s1,v0
800003f0:	00523023 	subu	a2,v0,s2
800003f4:	8fbf002c 	lw	ra,44(sp)
800003f8:	8fb20028 	lw	s2,40(sp)
800003fc:	02302823 	subu	a1,s1,s0
80000400:	3c048001 	lui	a0,0x8001
80000404:	8fb10024 	lw	s1,36(sp)
80000408:	8fb00020 	lw	s0,32(sp)
8000040c:	2484a190 	addiu	a0,a0,-24176
80000410:	08002700 	j	80009c00 <printf>
80000414:	27bd0030 	addiu	sp,sp,48
	...

80000420 <iterate>:
iterate():
80000420:	27bdffe0 	addiu	sp,sp,-32
80000424:	afb20018 	sw	s2,24(sp)
80000428:	8c92001c 	lw	s2,28(a0)
8000042c:	afbf001c 	sw	ra,28(sp)
80000430:	afb10014 	sw	s1,20(sp)
80000434:	afb00010 	sw	s0,16(sp)
80000438:	ac800038 	sw	zero,56(a0)
8000043c:	12400015 	beqz	s2,80000494 <iterate+0x74>
80000440:	ac80003c 	sw	zero,60(a0)
80000444:	00808025 	move	s0,a0
80000448:	00008825 	move	s1,zero
8000044c:	02002025 	move	a0,s0
80000450:	0c0020fc 	jal	800083f0 <core_bench_list>
80000454:	24050001 	li	a1,1
80000458:	96050038 	lhu	a1,56(s0)
8000045c:	0c001e04 	jal	80007810 <crcu16>
80000460:	00402025 	move	a0,v0
80000464:	a6020038 	sh	v0,56(s0)
80000468:	02002025 	move	a0,s0
8000046c:	0c0020fc 	jal	800083f0 <core_bench_list>
80000470:	2405ffff 	li	a1,-1
80000474:	96050038 	lhu	a1,56(s0)
80000478:	0c001e04 	jal	80007810 <crcu16>
8000047c:	00402025 	move	a0,v0
80000480:	1220000b 	beqz	s1,800004b0 <iterate+0x90>
80000484:	a6020038 	sh	v0,56(s0)
80000488:	26310001 	addiu	s1,s1,1
8000048c:	1651ffef 	bne	s2,s1,8000044c <iterate+0x2c>
80000490:	00000000 	nop
80000494:	8fbf001c 	lw	ra,28(sp)
80000498:	8fb20018 	lw	s2,24(sp)
8000049c:	8fb10014 	lw	s1,20(sp)
800004a0:	8fb00010 	lw	s0,16(sp)
800004a4:	00001025 	move	v0,zero
800004a8:	03e00008 	jr	ra
800004ac:	27bd0020 	addiu	sp,sp,32
800004b0:	24030001 	li	v1,1
800004b4:	1243fff7 	beq	s2,v1,80000494 <iterate+0x74>
800004b8:	a602003a 	sh	v0,58(s0)
800004bc:	1000ffe3 	b	8000044c <iterate+0x2c>
800004c0:	24110001 	li	s1,1
	...

800004d0 <core_mark>:
core_mark():
800004d0:	27bdf788 	addiu	sp,sp,-2168
800004d4:	afb00850 	sw	s0,2128(sp)
800004d8:	8fa20890 	lw	v0,2192(sp)
800004dc:	8fb00888 	lw	s0,2184(sp)
800004e0:	8fa3088c 	lw	v1,2188(sp)
800004e4:	afb40860 	sw	s4,2144(sp)
800004e8:	afb3085c 	sw	s3,2140(sp)
800004ec:	afb20858 	sw	s2,2136(sp)
800004f0:	afb10854 	sw	s1,2132(sp)
800004f4:	00a0a025 	move	s4,a1
800004f8:	00808825 	move	s1,a0
800004fc:	00c09025 	move	s2,a2
80000500:	00e09825 	move	s3,a3
80000504:	afa70010 	sw	a3,16(sp)
80000508:	00c03825 	move	a3,a2
8000050c:	00a03025 	move	a2,a1
80000510:	00802825 	move	a1,a0
80000514:	3c048001 	lui	a0,0x8001
80000518:	afa2001c 	sw	v0,28(sp)
8000051c:	afa30018 	sw	v1,24(sp)
80000520:	afb00014 	sw	s0,20(sp)
80000524:	2484a1a8 	addiu	a0,a0,-24152
80000528:	afbf0874 	sw	ra,2164(sp)
8000052c:	afbe0870 	sw	s8,2160(sp)
80000530:	afb7086c 	sw	s7,2156(sp)
80000534:	afb60868 	sw	s6,2152(sp)
80000538:	0c002700 	jal	80009c00 <printf>
8000053c:	afb50864 	sw	s5,2148(sp)
80000540:	00113400 	sll	a2,s1,0x10
80000544:	00122c00 	sll	a1,s2,0x10
80000548:	00063403 	sra	a2,a2,0x10
8000054c:	00053c03 	sra	a3,a1,0x10
80000550:	a7a607f0 	sh	a2,2032(sp)
80000554:	a7b407f2 	sh	s4,2034(sp)
80000558:	00e04825 	move	t1,a3
8000055c:	120002dc 	beqz	s0,800010d0 <core_mark+0xc00>
80000560:	afb3080c 	sw	s3,2060(sp)
80000564:	320b0001 	andi	t3,s0,0x1
80000568:	afb00810 	sw	s0,2064(sp)
8000056c:	01605025 	move	t2,t3
80000570:	8fac07f0 	lw	t4,2032(sp)
80000574:	00000000 	nop
80000578:	158002c9 	bnez	t4,800010a0 <core_mark+0xbd0>
8000057c:	240d0001 	li	t5,1
80000580:	10e002e3 	beqz	a3,80001110 <core_mark+0xc40>
80000584:	24160066 	li	s6,102
80000588:	a7a907f4 	sh	t1,2036(sp)
8000058c:	27b80020 	addiu	t8,sp,32
80000590:	32170002 	andi	s7,s0,0x2
80000594:	afb807f8 	sw	t8,2040(sp)
80000598:	a7a00830 	sh	zero,2096(sp)
8000059c:	12e00002 	beqz	s7,800005a8 <core_mark+0xd8>
800005a0:	3179ffff 	andi	t9,t3,0xffff
800005a4:	27390001 	addiu	t9,t9,1
800005a8:	321e0004 	andi	s8,s0,0x4
800005ac:	13c00003 	beqz	s8,800005bc <core_mark+0xec>
800005b0:	241107d0 	li	s1,2000
800005b4:	273f0001 	addiu	ra,t9,1
800005b8:	33f9ffff 	andi	t9,ra,0xffff
800005bc:	17200002 	bnez	t9,800005c8 <core_mark+0xf8>
800005c0:	0239001b 	divu	zero,s1,t9
800005c4:	0007000d 	break	0x7
800005c8:	00002012 	mflo	a0
800005cc:	156002d4 	bnez	t3,80001120 <core_mark+0xc50>
800005d0:	afa40808 	sw	a0,2056(sp)
800005d4:	16e002d6 	bnez	s7,80001130 <core_mark+0xc60>
800005d8:	00001025 	move	v0,zero
800005dc:	17c002dd 	bnez	s8,80001154 <core_mark+0xc84>
800005e0:	00440018 	mult	v0,a0
800005e4:	11400007 	beqz	t2,80000604 <core_mark+0x134>
800005e8:	00000000 	nop
800005ec:	8fa507fc 	lw	a1,2044(sp)
800005f0:	0c002424 	jal	80009090 <core_list_init>
800005f4:	00000000 	nop
800005f8:	8fb00810 	lw	s0,2064(sp)
800005fc:	afa20814 	sw	v0,2068(sp)
80000600:	32170002 	andi	s7,s0,0x2
80000604:	16e0003e 	bnez	s7,80000700 <core_mark+0x230>
80000608:	27a70818 	addiu	a3,sp,2072
8000060c:	32100004 	andi	s0,s0,0x4
80000610:	12000006 	beqz	s0,8000062c <core_mark+0x15c>
80000614:	00000000 	nop
80000618:	8fa60804 	lw	a2,2052(sp)
8000061c:	87a507f0 	lh	a1,2032(sp)
80000620:	8fa40808 	lw	a0,2056(sp)
80000624:	0c001a88 	jal	80006a20 <core_init_state>
80000628:	00000000 	nop
8000062c:	8fab080c 	lw	t3,2060(sp)
80000630:	00000000 	nop
80000634:	15600049 	bnez	t3,8000075c <core_mark+0x28c>
80000638:	3c1f8001 	lui	ra,0x8001
8000063c:	240e0001 	li	t6,1
80000640:	000e6080 	sll	t4,t6,0x2
80000644:	018e6821 	addu	t5,t4,t6
80000648:	000d7040 	sll	t6,t5,0x1
8000064c:	0c0015fc 	jal	800057f0 <start_time>
80000650:	afae080c 	sw	t6,2060(sp)
80000654:	8fb5080c 	lw	s5,2060(sp)
80000658:	afa00828 	sw	zero,2088(sp)
8000065c:	afa0082c 	sw	zero,2092(sp)
80000660:	12a00013 	beqz	s5,800006b0 <core_mark+0x1e0>
80000664:	00009825 	move	s3,zero
80000668:	27a407f0 	addiu	a0,sp,2032
8000066c:	0c0020fc 	jal	800083f0 <core_bench_list>
80000670:	24050001 	li	a1,1
80000674:	97a50828 	lhu	a1,2088(sp)
80000678:	0c001e04 	jal	80007810 <crcu16>
8000067c:	00402025 	move	a0,v0
80000680:	27a407f0 	addiu	a0,sp,2032
80000684:	2405ffff 	li	a1,-1
80000688:	0c0020fc 	jal	800083f0 <core_bench_list>
8000068c:	a7a20828 	sh	v0,2088(sp)
80000690:	97a50828 	lhu	a1,2088(sp)
80000694:	0c001e04 	jal	80007810 <crcu16>
80000698:	00402025 	move	a0,v0
8000069c:	12600010 	beqz	s3,800006e0 <core_mark+0x210>
800006a0:	a7a20828 	sh	v0,2088(sp)
800006a4:	26730001 	addiu	s3,s3,1
800006a8:	16b3fff0 	bne	s5,s3,8000066c <core_mark+0x19c>
800006ac:	27a407f0 	addiu	a0,sp,2032
800006b0:	0c001600 	jal	80005800 <stop_time>
800006b4:	00000000 	nop
800006b8:	0c001604 	jal	80005810 <get_time>
800006bc:	00000000 	nop
800006c0:	0c00161c 	jal	80005870 <time_in_secs>
800006c4:	00402025 	move	a0,v0
800006c8:	14400019 	bnez	v0,80000730 <core_mark+0x260>
800006cc:	2416000a 	li	s6,10
800006d0:	8fae080c 	lw	t6,2060(sp)
800006d4:	1000ffdb 	b	80000644 <core_mark+0x174>
800006d8:	000e6080 	sll	t4,t6,0x2
800006dc:	00000000 	nop
800006e0:	240f0001 	li	t7,1
800006e4:	12affff2 	beq	s5,t7,800006b0 <core_mark+0x1e0>
800006e8:	a7a2082a 	sh	v0,2090(sp)
800006ec:	1000ffde 	b	80000668 <core_mark+0x198>
800006f0:	24130001 	li	s3,1
	...
80000700:	87a407f2 	lh	a0,2034(sp)
80000704:	87a607f0 	lh	a2,2032(sp)
80000708:	00045400 	sll	t2,a0,0x10
8000070c:	8fa50800 	lw	a1,2048(sp)
80000710:	8fa40808 	lw	a0,2056(sp)
80000714:	0c0010c0 	jal	80004300 <core_init_matrix>
80000718:	01463025 	or	a2,t2,a2
8000071c:	8fb00810 	lw	s0,2064(sp)
80000720:	1000ffbb 	b	80000610 <core_mark+0x140>
80000724:	32100004 	andi	s0,s0,0x4
	...
80000730:	14400002 	bnez	v0,8000073c <core_mark+0x26c>
80000734:	02c2001b 	divu	zero,s6,v0
80000738:	0007000d 	break	0x7
8000073c:	8fb9080c 	lw	t9,2060(sp)
80000740:	0000b812 	mflo	s7
80000744:	26f80001 	addiu	t8,s7,1
80000748:	00000000 	nop
8000074c:	03380018 	mult	t9,t8
80000750:	0000f012 	mflo	s8
80000754:	afbe080c 	sw	s8,2060(sp)
80000758:	3c1f8001 	lui	ra,0x8001
8000075c:	27e4a1d4 	addiu	a0,ra,-24108
80000760:	24110001 	li	s1,1
80000764:	0c002700 	jal	80009c00 <printf>
80000768:	af918010 	sw	s1,-32752(gp)
8000076c:	0c002811 	jal	8000a044 <get_ns>
80000770:	0000a825 	move	s5,zero
80000774:	8fb4080c 	lw	s4,2060(sp)
80000778:	00409025 	move	s2,v0
8000077c:	afa00828 	sw	zero,2088(sp)
80000780:	12800013 	beqz	s4,800007d0 <core_mark+0x300>
80000784:	afa0082c 	sw	zero,2092(sp)
80000788:	27a407f0 	addiu	a0,sp,2032
8000078c:	0c0020fc 	jal	800083f0 <core_bench_list>
80000790:	24050001 	li	a1,1
80000794:	97a50828 	lhu	a1,2088(sp)
80000798:	0c001e04 	jal	80007810 <crcu16>
8000079c:	00402025 	move	a0,v0
800007a0:	27a407f0 	addiu	a0,sp,2032
800007a4:	2405ffff 	li	a1,-1
800007a8:	0c0020fc 	jal	800083f0 <core_bench_list>
800007ac:	a7a20828 	sh	v0,2088(sp)
800007b0:	97a50828 	lhu	a1,2088(sp)
800007b4:	0c001e04 	jal	80007810 <crcu16>
800007b8:	00402025 	move	a0,v0
800007bc:	12a00208 	beqz	s5,80000fe0 <core_mark+0xb10>
800007c0:	a7a20828 	sh	v0,2088(sp)
800007c4:	26b50001 	addiu	s5,s5,1
800007c8:	1695fff0 	bne	s4,s5,8000078c <core_mark+0x2bc>
800007cc:	27a407f0 	addiu	a0,sp,2032
800007d0:	0c002811 	jal	8000a044 <get_ns>
800007d4:	00000000 	nop
800007d8:	3c038001 	lui	v1,0x8001
800007dc:	2464a1e0 	addiu	a0,v1,-24096
800007e0:	0c002700 	jal	80009c00 <printf>
800007e4:	00528823 	subu	s1,v0,s2
800007e8:	87a407f0 	lh	a0,2032(sp)
800007ec:	0c001f5c 	jal	80007d70 <crc16>
800007f0:	00002825 	move	a1,zero
800007f4:	87a407f2 	lh	a0,2034(sp)
800007f8:	0c001f5c 	jal	80007d70 <crc16>
800007fc:	00402825 	move	a1,v0
80000800:	87a407f4 	lh	a0,2036(sp)
80000804:	0c001f5c 	jal	80007d70 <crc16>
80000808:	00402825 	move	a1,v0
8000080c:	87a40808 	lh	a0,2056(sp)
80000810:	0c001f5c 	jal	80007d70 <crc16>
80000814:	00402825 	move	a1,v0
80000818:	00408025 	move	s0,v0
8000081c:	24027b05 	li	v0,31493
80000820:	12020267 	beq	s0,v0,800011c0 <core_mark+0xcf0>
80000824:	2e087b06 	sltiu	t0,s0,31494
80000828:	11000205 	beqz	t0,80001040 <core_mark+0xb70>
8000082c:	34048a02 	li	a0,0x8a02
80000830:	240f18f2 	li	t7,6386
80000834:	120f026e 	beq	s0,t7,800011f0 <core_mark+0xd20>
80000838:	24194eaf 	li	t9,20143
8000083c:	16190286 	bne	s0,t9,80001258 <core_mark+0xd88>
80000840:	3c1f8001 	lui	ra,0x8001
80000844:	27e4a250 	addiu	a0,ra,-23984
80000848:	0c002700 	jal	80009c00 <printf>
8000084c:	341ee5a4 	li	s8,0xe5a4
80000850:	24035608 	li	v1,22024
80000854:	24026a79 	li	v0,27257
80000858:	3414e5a4 	li	s4,0xe5a4
8000085c:	afa30840 	sw	v1,2112(sp)
80000860:	24135608 	li	s3,22024
80000864:	afa2083c 	sw	v0,2108(sp)
80000868:	24126a79 	li	s2,27257
8000086c:	8f858010 	lw	a1,-32752(gp)
80000870:	00000000 	nop
80000874:	10a00276 	beqz	a1,80001250 <core_mark+0xd80>
80000878:	3c098001 	lui	t1,0x8001
8000087c:	3c048001 	lui	a0,0x8001
80000880:	2528a2e0 	addiu	t0,t1,-23840
80000884:	2486a310 	addiu	a2,a0,-23792
80000888:	3c0a8001 	lui	t2,0x8001
8000088c:	0000b825 	move	s7,zero
80000890:	0000b025 	move	s6,zero
80000894:	afa80844 	sw	t0,2116(sp)
80000898:	afa60848 	sw	a2,2120(sp)
8000089c:	10000010 	b	800008e0 <core_mark+0x410>
800008a0:	afaa084c 	sw	t2,2124(sp)
	...
800008b0:	27ae0020 	addiu	t6,sp,32
800008b4:	01cd7821 	addu	t7,t6,t5
800008b8:	95e90810 	lhu	t1,2064(t7)
800008bc:	8f9f8010 	lw	ra,-32752(gp)
800008c0:	26d60001 	addiu	s6,s6,1
800008c4:	0137b821 	addu	s7,t1,s7
800008c8:	32d6ffff 	andi	s6,s6,0xffff
800008cc:	00172400 	sll	a0,s7,0x10
800008d0:	02df402b 	sltu	t0,s6,ra
800008d4:	32e7ffff 	andi	a3,s7,0xffff
800008d8:	11000044 	beqz	t0,800009ec <core_mark+0x51c>
800008dc:	0004bc03 	sra	s7,a0,0x10
800008e0:	0016a900 	sll	s5,s6,0x4
800008e4:	02b65821 	addu	t3,s5,s6
800008e8:	000b6080 	sll	t4,t3,0x2
800008ec:	27ad0020 	addiu	t5,sp,32
800008f0:	01ac7021 	addu	t6,t5,t4
800008f4:	8dcf07f0 	lw	t7,2032(t6)
800008f8:	00000000 	nop
800008fc:	31f80001 	andi	t8,t7,0x1
80000900:	1300000f 	beqz	t8,80000940 <core_mark+0x470>
80000904:	a5c00810 	sh	zero,2064(t6)
80000908:	95c6080a 	lhu	a2,2058(t6)
8000090c:	00000000 	nop
80000910:	10d2000b 	beq	a2,s2,80000940 <core_mark+0x470>
80000914:	afae0838 	sw	t6,2104(sp)
80000918:	8fa7083c 	lw	a3,2108(sp)
8000091c:	8fa40844 	lw	a0,2116(sp)
80000920:	0c002700 	jal	80009c00 <printf>
80000924:	02c02825 	move	a1,s6
80000928:	8fb90838 	lw	t9,2104(sp)
8000092c:	00000000 	nop
80000930:	97230810 	lhu	v1,2064(t9)
80000934:	00000000 	nop
80000938:	24620001 	addiu	v0,v1,1
8000093c:	a7220810 	sh	v0,2064(t9)
80000940:	02b6f821 	addu	ra,s5,s6
80000944:	001f2880 	sll	a1,ra,0x2
80000948:	27a70020 	addiu	a3,sp,32
8000094c:	00e54821 	addu	t1,a3,a1
80000950:	8d2a07f0 	lw	t2,2032(t1)
80000954:	00000000 	nop
80000958:	31480002 	andi	t0,t2,0x2
8000095c:	1100000f 	beqz	t0,8000099c <core_mark+0x4cc>
80000960:	00000000 	nop
80000964:	9526080c 	lhu	a2,2060(t1)
80000968:	00000000 	nop
8000096c:	10d3000b 	beq	a2,s3,8000099c <core_mark+0x4cc>
80000970:	afa90838 	sw	t1,2104(sp)
80000974:	8fa40848 	lw	a0,2120(sp)
80000978:	8fa70840 	lw	a3,2112(sp)
8000097c:	0c002700 	jal	80009c00 <printf>
80000980:	02c02825 	move	a1,s6
80000984:	8fa40838 	lw	a0,2104(sp)
80000988:	00000000 	nop
8000098c:	94860810 	lhu	a2,2064(a0)
80000990:	8c8a07f0 	lw	t2,2032(a0)
80000994:	24cb0001 	addiu	t3,a2,1
80000998:	a48b0810 	sh	t3,2064(a0)
8000099c:	02b6a821 	addu	s5,s5,s6
800009a0:	314c0004 	andi	t4,t2,0x4
800009a4:	1180ffc2 	beqz	t4,800008b0 <core_mark+0x3e0>
800009a8:	00156880 	sll	t5,s5,0x2
800009ac:	27b80020 	addiu	t8,sp,32
800009b0:	030dc821 	addu	t9,t8,t5
800009b4:	9726080e 	lhu	a2,2062(t9)
800009b8:	00000000 	nop
800009bc:	14d40190 	bne	a2,s4,80001000 <core_mark+0xb30>
800009c0:	03c03825 	move	a3,s8
800009c4:	97290810 	lhu	t1,2064(t9)
800009c8:	8f9f8010 	lw	ra,-32752(gp)
800009cc:	26d60001 	addiu	s6,s6,1
800009d0:	0137b821 	addu	s7,t1,s7
800009d4:	32d6ffff 	andi	s6,s6,0xffff
800009d8:	00172400 	sll	a0,s7,0x10
800009dc:	02df402b 	sltu	t0,s6,ra
800009e0:	32e7ffff 	andi	a3,s7,0xffff
800009e4:	1500ffbe 	bnez	t0,800008e0 <core_mark+0x410>
800009e8:	0004bc03 	sra	s7,a0,0x10
800009ec:	afa70838 	sw	a3,2104(sp)
800009f0:	0c001fd0 	jal	80007f40 <check_data_types>
800009f4:	3c138001 	lui	s3,0x8001
800009f8:	8fa50808 	lw	a1,2056(sp)
800009fc:	8fbe0838 	lw	s8,2104(sp)
80000a00:	2664a374 	addiu	a0,s3,-23692
80000a04:	0c002700 	jal	80009c00 <printf>
80000a08:	03c2a021 	addu	s4,s8,v0
80000a0c:	3c068001 	lui	a2,0x8001
80000a10:	24c4a38c 	addiu	a0,a2,-23668
80000a14:	0c002700 	jal	80009c00 <printf>
80000a18:	02202825 	move	a1,s1
80000a1c:	8faa080c 	lw	t2,2060(sp)
80000a20:	8f8b8010 	lw	t3,-32752(gp)
80000a24:	3c0e3b9a 	lui	t6,0x3b9a
80000a28:	014b0018 	mult	t2,t3
80000a2c:	35cfca00 	ori	t7,t6,0xca00
80000a30:	3c0d8001 	lui	t5,0x8001
80000a34:	25a4a39c 	addiu	a0,t5,-23652
80000a38:	0000b025 	move	s6,zero
80000a3c:	00149400 	sll	s2,s4,0x10
80000a40:	00006012 	mflo	t4
	...
80000a4c:	018f0018 	mult	t4,t7
80000a50:	0000c012 	mflo	t8
	...
80000a5c:	16200002 	bnez	s1,80000a68 <core_mark+0x598>
80000a60:	0311001b 	divu	zero,t8,s1
80000a64:	0007000d 	break	0x7
80000a68:	00002812 	mflo	a1
80000a6c:	0c002700 	jal	80009c00 <printf>
80000a70:	0012ac03 	sra	s5,s2,0x10
80000a74:	3c198001 	lui	t9,0x8001
80000a78:	0c002700 	jal	80009c00 <printf>
80000a7c:	2724a3b4 	addiu	a0,t9,-23628
80000a80:	3c038001 	lui	v1,0x8001
80000a84:	0c002700 	jal	80009c00 <printf>
80000a88:	2464a410 	addiu	a0,v1,-23536
80000a8c:	02203025 	move	a2,s1
80000a90:	8fa5080c 	lw	a1,2060(sp)
80000a94:	3c118001 	lui	s1,0x8001
80000a98:	0c002700 	jal	80009c00 <printf>
80000a9c:	2624a43c 	addiu	a0,s1,-23492
80000aa0:	3c028001 	lui	v0,0x8001
80000aa4:	02c02825 	move	a1,s6
80000aa8:	0c002700 	jal	80009c00 <printf>
80000aac:	2444a468 	addiu	a0,v0,-23448
80000ab0:	0c00161c 	jal	80005870 <time_in_secs>
80000ab4:	02c02025 	move	a0,s6
80000ab8:	3c078001 	lui	a3,0x8001
80000abc:	24e4a480 	addiu	a0,a3,-23424
80000ac0:	0c002700 	jal	80009c00 <printf>
80000ac4:	00402825 	move	a1,v0
80000ac8:	0c00161c 	jal	80005870 <time_in_secs>
80000acc:	02c02025 	move	a0,s6
80000ad0:	144001ab 	bnez	v0,80001180 <core_mark+0xcb0>
80000ad4:	00000000 	nop
80000ad8:	8fbf080c 	lw	ra,2060(sp)
80000adc:	8f848010 	lw	a0,-32752(gp)
80000ae0:	3c1e8001 	lui	s8,0x8001
80000ae4:	03e40018 	mult	ra,a0
80000ae8:	3c148001 	lui	s4,0x8001
80000aec:	27c4a4b0 	addiu	a0,s8,-23376
80000af0:	3c138001 	lui	s3,0x8001
80000af4:	00002812 	mflo	a1
80000af8:	0c002700 	jal	80009c00 <printf>
80000afc:	3c128001 	lui	s2,0x8001
80000b00:	2685a4c8 	addiu	a1,s4,-23352
80000b04:	0c002700 	jal	80009c00 <printf>
80000b08:	2664a4dc 	addiu	a0,s3,-23332
80000b0c:	3c068001 	lui	a2,0x8001
80000b10:	24c4a4f4 	addiu	a0,a2,-23308
80000b14:	0c002700 	jal	80009c00 <printf>
80000b18:	2645a464 	addiu	a1,s2,-23452
80000b1c:	3c0a8001 	lui	t2,0x8001
80000b20:	3c0b8001 	lui	t3,0x8001
80000b24:	2544a55c 	addiu	a0,t2,-23204
80000b28:	0c002700 	jal	80009c00 <printf>
80000b2c:	2565a50c 	addiu	a1,t3,-23284
80000b30:	02002825 	move	a1,s0
80000b34:	3c108001 	lui	s0,0x8001
80000b38:	0c002700 	jal	80009c00 <printf>
80000b3c:	2604a574 	addiu	a0,s0,-23180
80000b40:	8fb40810 	lw	s4,2064(sp)
80000b44:	00000000 	nop
80000b48:	328c0001 	andi	t4,s4,0x1
80000b4c:	1180014c 	beqz	t4,80001080 <core_mark+0xbb0>
80000b50:	329f0002 	andi	ra,s4,0x2
80000b54:	8f8d8010 	lw	t5,-32752(gp)
80000b58:	00000000 	nop
80000b5c:	11a00108 	beqz	t5,80000f80 <core_mark+0xab0>
80000b60:	00000000 	nop
80000b64:	3c0e8001 	lui	t6,0x8001
80000b68:	0000f025 	move	s8,zero
80000b6c:	25d1a590 	addiu	s1,t6,-23152
80000b70:	001e7900 	sll	t7,s8,0x4
80000b74:	01fec021 	addu	t8,t7,s8
80000b78:	0018c880 	sll	t9,t8,0x2
80000b7c:	27a30020 	addiu	v1,sp,32
80000b80:	0079b021 	addu	s6,v1,t9
80000b84:	96c6080a 	lhu	a2,2058(s6)
80000b88:	03c02825 	move	a1,s8
80000b8c:	0c002700 	jal	80009c00 <printf>
80000b90:	02202025 	move	a0,s1
80000b94:	27c70001 	addiu	a3,s8,1
80000b98:	30f7ffff 	andi	s7,a3,0xffff
80000b9c:	8f828010 	lw	v0,-32752(gp)
80000ba0:	00174900 	sll	t1,s7,0x4
80000ba4:	01372821 	addu	a1,t1,s7
80000ba8:	00054080 	sll	t0,a1,0x2
80000bac:	27be0020 	addiu	s8,sp,32
80000bb0:	02e2982b 	sltu	s3,s7,v0
80000bb4:	02202025 	move	a0,s1
80000bb8:	03c8a021 	addu	s4,s8,t0
80000bbc:	12600027 	beqz	s3,80000c5c <core_mark+0x78c>
80000bc0:	02e02825 	move	a1,s7
80000bc4:	9686080a 	lhu	a2,2058(s4)
80000bc8:	26f20001 	addiu	s2,s7,1
80000bcc:	0c002700 	jal	80009c00 <printf>
80000bd0:	3250ffff 	andi	s0,s2,0xffff
80000bd4:	8f828010 	lw	v0,-32752(gp)
80000bd8:	00103100 	sll	a2,s0,0x4
80000bdc:	00d05021 	addu	t2,a2,s0
80000be0:	000a5880 	sll	t3,t2,0x2
80000be4:	27ac0020 	addiu	t4,sp,32
80000be8:	0202702b 	sltu	t6,s0,v0
80000bec:	02202025 	move	a0,s1
80000bf0:	018b6821 	addu	t5,t4,t3
80000bf4:	11c00019 	beqz	t6,80000c5c <core_mark+0x78c>
80000bf8:	02002825 	move	a1,s0
80000bfc:	95a6080a 	lhu	a2,2058(t5)
80000c00:	0c002700 	jal	80009c00 <printf>
80000c04:	00000000 	nop
80000c08:	260f0001 	addiu	t7,s0,1
80000c0c:	31f6ffff 	andi	s6,t7,0xffff
80000c10:	8f828010 	lw	v0,-32752(gp)
80000c14:	0016c100 	sll	t8,s6,0x4
80000c18:	0316c821 	addu	t9,t8,s6
80000c1c:	00191880 	sll	v1,t9,0x2
80000c20:	27a70020 	addiu	a3,sp,32
80000c24:	02c2482b 	sltu	t1,s6,v0
80000c28:	02202025 	move	a0,s1
80000c2c:	00e3b821 	addu	s7,a3,v1
80000c30:	1120000a 	beqz	t1,80000c5c <core_mark+0x78c>
80000c34:	02c02825 	move	a1,s6
80000c38:	96e6080a 	lhu	a2,2058(s7)
80000c3c:	0c002700 	jal	80009c00 <printf>
80000c40:	00000000 	nop
80000c44:	8f828010 	lw	v0,-32752(gp)
80000c48:	26c40001 	addiu	a0,s6,1
80000c4c:	309effff 	andi	s8,a0,0xffff
80000c50:	03c2282b 	sltu	a1,s8,v0
80000c54:	14a0ffc7 	bnez	a1,80000b74 <core_mark+0x6a4>
80000c58:	001e7900 	sll	t7,s8,0x4
80000c5c:	8fb40810 	lw	s4,2064(sp)
80000c60:	00000000 	nop
80000c64:	329f0002 	andi	ra,s4,0x2
80000c68:	13e00043 	beqz	ra,80000d78 <core_mark+0x8a8>
80000c6c:	329f0004 	andi	ra,s4,0x4
80000c70:	104000c3 	beqz	v0,80000f80 <core_mark+0xab0>
80000c74:	00000000 	nop
80000c78:	3c118001 	lui	s1,0x8001
80000c7c:	0000b825 	move	s7,zero
80000c80:	2634a5ac 	addiu	s4,s1,-23124
80000c84:	00174100 	sll	t0,s7,0x4
80000c88:	01179821 	addu	s3,t0,s7
80000c8c:	27a60020 	addiu	a2,sp,32
80000c90:	00139080 	sll	s2,s3,0x2
80000c94:	00d25021 	addu	t2,a2,s2
80000c98:	9546080c 	lhu	a2,2060(t2)
80000c9c:	26f00001 	addiu	s0,s7,1
80000ca0:	3216ffff 	andi	s6,s0,0xffff
80000ca4:	02e02825 	move	a1,s7
80000ca8:	0c002700 	jal	80009c00 <printf>
80000cac:	02802025 	move	a0,s4
80000cb0:	8f828010 	lw	v0,-32752(gp)
80000cb4:	00165900 	sll	t3,s6,0x4
80000cb8:	01766021 	addu	t4,t3,s6
80000cbc:	000c6880 	sll	t5,t4,0x2
80000cc0:	27ae0020 	addiu	t6,sp,32
80000cc4:	02c2c02b 	sltu	t8,s6,v0
80000cc8:	02802025 	move	a0,s4
80000ccc:	01cd7821 	addu	t7,t6,t5
80000cd0:	13000026 	beqz	t8,80000d6c <core_mark+0x89c>
80000cd4:	02c02825 	move	a1,s6
80000cd8:	95e6080c 	lhu	a2,2060(t7)
80000cdc:	0c002700 	jal	80009c00 <printf>
80000ce0:	27be0020 	addiu	s8,sp,32
80000ce4:	26d90001 	addiu	t9,s6,1
80000ce8:	3337ffff 	andi	s7,t9,0xffff
80000cec:	8f828010 	lw	v0,-32752(gp)
80000cf0:	00171900 	sll	v1,s7,0x4
80000cf4:	00773821 	addu	a3,v1,s7
80000cf8:	00074880 	sll	t1,a3,0x2
80000cfc:	02e2402b 	sltu	t0,s7,v0
80000d00:	02802025 	move	a0,s4
80000d04:	03c98821 	addu	s1,s8,t1
80000d08:	11000018 	beqz	t0,80000d6c <core_mark+0x89c>
80000d0c:	02e02825 	move	a1,s7
80000d10:	9626080c 	lhu	a2,2060(s1)
80000d14:	0c002700 	jal	80009c00 <printf>
80000d18:	27b00020 	addiu	s0,sp,32
80000d1c:	26e50001 	addiu	a1,s7,1
80000d20:	30b3ffff 	andi	s3,a1,0xffff
80000d24:	8f828010 	lw	v0,-32752(gp)
80000d28:	00139100 	sll	s2,s3,0x4
80000d2c:	02533021 	addu	a2,s2,s3
80000d30:	00065080 	sll	t2,a2,0x2
80000d34:	0262582b 	sltu	t3,s3,v0
80000d38:	02802025 	move	a0,s4
80000d3c:	020ab021 	addu	s6,s0,t2
80000d40:	1160000a 	beqz	t3,80000d6c <core_mark+0x89c>
80000d44:	02602825 	move	a1,s3
80000d48:	96c6080c 	lhu	a2,2060(s6)
80000d4c:	0c002700 	jal	80009c00 <printf>
80000d50:	00000000 	nop
80000d54:	8f828010 	lw	v0,-32752(gp)
80000d58:	26640001 	addiu	a0,s3,1
80000d5c:	3097ffff 	andi	s7,a0,0xffff
80000d60:	02e2602b 	sltu	t4,s7,v0
80000d64:	1580ffc8 	bnez	t4,80000c88 <core_mark+0x7b8>
80000d68:	00174100 	sll	t0,s7,0x4
80000d6c:	8fb40810 	lw	s4,2064(sp)
80000d70:	00000000 	nop
80000d74:	329f0004 	andi	ra,s4,0x4
80000d78:	13e00041 	beqz	ra,80000e80 <core_mark+0x9b0>
80000d7c:	00000000 	nop
80000d80:	1040007f 	beqz	v0,80000f80 <core_mark+0xab0>
80000d84:	00000000 	nop
80000d88:	3c028001 	lui	v0,0x8001
80000d8c:	00009825 	move	s3,zero
80000d90:	245ea5c8 	addiu	s8,v0,-23096
80000d94:	00136900 	sll	t5,s3,0x4
80000d98:	01b37021 	addu	t6,t5,s3
80000d9c:	000e7880 	sll	t7,t6,0x2
80000da0:	27b80020 	addiu	t8,sp,32
80000da4:	030fc821 	addu	t9,t8,t7
80000da8:	9726080e 	lhu	a2,2062(t9)
80000dac:	02602825 	move	a1,s3
80000db0:	0c002700 	jal	80009c00 <printf>
80000db4:	03c02025 	move	a0,s8
80000db8:	26630001 	addiu	v1,s3,1
80000dbc:	3071ffff 	andi	s1,v1,0xffff
80000dc0:	8f828010 	lw	v0,-32752(gp)
80000dc4:	00113900 	sll	a3,s1,0x4
80000dc8:	00f14821 	addu	t1,a3,s1
80000dcc:	27a50020 	addiu	a1,sp,32
80000dd0:	00094080 	sll	t0,t1,0x2
80000dd4:	0222902b 	sltu	s2,s1,v0
80000dd8:	00a89821 	addu	s3,a1,t0
80000ddc:	03c02025 	move	a0,s8
80000de0:	12400027 	beqz	s2,80000e80 <core_mark+0x9b0>
80000de4:	02202825 	move	a1,s1
80000de8:	9666080e 	lhu	a2,2062(s3)
80000dec:	0c002700 	jal	80009c00 <printf>
80000df0:	27b70020 	addiu	s7,sp,32
80000df4:	26260001 	addiu	a2,s1,1
80000df8:	30d0ffff 	andi	s0,a2,0xffff
80000dfc:	8f828010 	lw	v0,-32752(gp)
80000e00:	00105100 	sll	t2,s0,0x4
80000e04:	0150b021 	addu	s6,t2,s0
80000e08:	00165880 	sll	t3,s6,0x2
80000e0c:	0202a02b 	sltu	s4,s0,v0
80000e10:	03c02025 	move	a0,s8
80000e14:	02eb6021 	addu	t4,s7,t3
80000e18:	12800019 	beqz	s4,80000e80 <core_mark+0x9b0>
80000e1c:	02002825 	move	a1,s0
80000e20:	9586080e 	lhu	a2,2062(t4)
80000e24:	0c002700 	jal	80009c00 <printf>
80000e28:	00000000 	nop
80000e2c:	260d0001 	addiu	t5,s0,1
80000e30:	31b1ffff 	andi	s1,t5,0xffff
80000e34:	8f828010 	lw	v0,-32752(gp)
80000e38:	00117100 	sll	t6,s1,0x4
80000e3c:	01d17821 	addu	t7,t6,s1
80000e40:	000fc080 	sll	t8,t7,0x2
80000e44:	27b90020 	addiu	t9,sp,32
80000e48:	0222382b 	sltu	a3,s1,v0
80000e4c:	03c02025 	move	a0,s8
80000e50:	03381821 	addu	v1,t9,t8
80000e54:	10e0000a 	beqz	a3,80000e80 <core_mark+0x9b0>
80000e58:	02202825 	move	a1,s1
80000e5c:	9466080e 	lhu	a2,2062(v1)
80000e60:	0c002700 	jal	80009c00 <printf>
80000e64:	00000000 	nop
80000e68:	8f828010 	lw	v0,-32752(gp)
80000e6c:	26240001 	addiu	a0,s1,1
80000e70:	3093ffff 	andi	s3,a0,0xffff
80000e74:	0262482b 	sltu	t1,s3,v0
80000e78:	1520ffc6 	bnez	t1,80000d94 <core_mark+0x8c4>
80000e7c:	00000000 	nop
80000e80:	1040003f 	beqz	v0,80000f80 <core_mark+0xab0>
80000e84:	00000000 	nop
80000e88:	3c1f8001 	lui	ra,0x8001
80000e8c:	0000a025 	move	s4,zero
80000e90:	27fea5e4 	addiu	s8,ra,-23068
80000e94:	00141100 	sll	v0,s4,0x4
80000e98:	00544021 	addu	t0,v0,s4
80000e9c:	00082880 	sll	a1,t0,0x2
80000ea0:	27b20020 	addiu	s2,sp,32
80000ea4:	02453021 	addu	a2,s2,a1
80000ea8:	26900001 	addiu	s0,s4,1
80000eac:	94c60808 	lhu	a2,2056(a2)
80000eb0:	3216ffff 	andi	s6,s0,0xffff
80000eb4:	02802825 	move	a1,s4
80000eb8:	0c002700 	jal	80009c00 <printf>
80000ebc:	03c02025 	move	a0,s8
80000ec0:	8f8d8010 	lw	t5,-32752(gp)
80000ec4:	00165100 	sll	t2,s6,0x4
80000ec8:	01565821 	addu	t3,t2,s6
80000ecc:	000bb880 	sll	s7,t3,0x2
80000ed0:	27ac0020 	addiu	t4,sp,32
80000ed4:	02cd882b 	sltu	s1,s6,t5
80000ed8:	03c02025 	move	a0,s8
80000edc:	0197a021 	addu	s4,t4,s7
80000ee0:	12200027 	beqz	s1,80000f80 <core_mark+0xab0>
80000ee4:	02c02825 	move	a1,s6
80000ee8:	96860808 	lhu	a2,2056(s4)
80000eec:	0c002700 	jal	80009c00 <printf>
80000ef0:	00000000 	nop
80000ef4:	26ce0001 	addiu	t6,s6,1
80000ef8:	31d3ffff 	andi	s3,t6,0xffff
80000efc:	8f898010 	lw	t1,-32752(gp)
80000f00:	00137900 	sll	t7,s3,0x4
80000f04:	01f3c021 	addu	t8,t7,s3
80000f08:	0018c880 	sll	t9,t8,0x2
80000f0c:	27a30020 	addiu	v1,sp,32
80000f10:	0269102b 	sltu	v0,s3,t1
80000f14:	03c02025 	move	a0,s8
80000f18:	00793821 	addu	a3,v1,t9
80000f1c:	10400018 	beqz	v0,80000f80 <core_mark+0xab0>
80000f20:	02602825 	move	a1,s3
80000f24:	94e60808 	lhu	a2,2056(a3)
80000f28:	0c002700 	jal	80009c00 <printf>
80000f2c:	27b60020 	addiu	s6,sp,32
80000f30:	26680001 	addiu	t0,s3,1
80000f34:	3112ffff 	andi	s2,t0,0xffff
80000f38:	00122900 	sll	a1,s2,0x4
80000f3c:	8f8b8010 	lw	t3,-32752(gp)
80000f40:	00b23021 	addu	a2,a1,s2
80000f44:	00068080 	sll	s0,a2,0x2
80000f48:	024bb82b 	sltu	s7,s2,t3
80000f4c:	03c02025 	move	a0,s8
80000f50:	02d05021 	addu	t2,s6,s0
80000f54:	12e0000a 	beqz	s7,80000f80 <core_mark+0xab0>
80000f58:	02402825 	move	a1,s2
80000f5c:	95460808 	lhu	a2,2056(t2)
80000f60:	0c002700 	jal	80009c00 <printf>
80000f64:	00000000 	nop
80000f68:	8f8c8010 	lw	t4,-32752(gp)
80000f6c:	26440001 	addiu	a0,s2,1
80000f70:	3094ffff 	andi	s4,a0,0xffff
80000f74:	028c682b 	sltu	t5,s4,t4
80000f78:	15a0ffc6 	bnez	t5,80000e94 <core_mark+0x9c4>
80000f7c:	00000000 	nop
80000f80:	12a0007b 	beqz	s5,80001170 <core_mark+0xca0>
80000f84:	3c118001 	lui	s1,0x8001
80000f88:	1aa00059 	blez	s5,800010f0 <core_mark+0xc20>
80000f8c:	3c1e8001 	lui	s8,0x8001
80000f90:	0c002700 	jal	80009c00 <printf>
80000f94:	27c4a64c 	addiu	a0,s8,-22964
80000f98:	0c001628 	jal	800058a0 <portable_fini>
80000f9c:	27a40832 	addiu	a0,sp,2098
80000fa0:	8fbf0874 	lw	ra,2164(sp)
80000fa4:	8fbe0870 	lw	s8,2160(sp)
80000fa8:	8fb7086c 	lw	s7,2156(sp)
80000fac:	8fb60868 	lw	s6,2152(sp)
80000fb0:	8fb40860 	lw	s4,2144(sp)
80000fb4:	8fb3085c 	lw	s3,2140(sp)
80000fb8:	8fb20858 	lw	s2,2136(sp)
80000fbc:	8fb10854 	lw	s1,2132(sp)
80000fc0:	8fb00850 	lw	s0,2128(sp)
80000fc4:	02a01025 	move	v0,s5
80000fc8:	8fb50864 	lw	s5,2148(sp)
80000fcc:	03e00008 	jr	ra
80000fd0:	27bd0878 	addiu	sp,sp,2168
	...
80000fe0:	24130001 	li	s3,1
80000fe4:	1293fdfa 	beq	s4,s3,800007d0 <core_mark+0x300>
80000fe8:	a7a2082a 	sh	v0,2090(sp)
80000fec:	1000fde6 	b	80000788 <core_mark+0x2b8>
80000ff0:	24150001 	li	s5,1
	...
80001000:	8fa3084c 	lw	v1,2124(sp)
80001004:	02c02825 	move	a1,s6
80001008:	2464a344 	addiu	a0,v1,-23740
8000100c:	0c002700 	jal	80009c00 <printf>
80001010:	afb90838 	sw	t9,2104(sp)
80001014:	8fa50838 	lw	a1,2104(sp)
80001018:	00000000 	nop
8000101c:	94a20810 	lhu	v0,2064(a1)
80001020:	00000000 	nop
80001024:	24470001 	addiu	a3,v0,1
80001028:	30e9ffff 	andi	t1,a3,0xffff
8000102c:	1000fe23 	b	800008bc <core_mark+0x3ec>
80001030:	a4a90810 	sh	t1,2064(a1)
	...
80001040:	12040077 	beq	s0,a0,80001220 <core_mark+0xd50>
80001044:	340ce9f5 	li	t4,0xe9f5
80001048:	160c0083 	bne	s0,t4,80001258 <core_mark+0xd88>
8000104c:	3c0d8001 	lui	t5,0x8001
80001050:	0c002700 	jal	80009c00 <printf>
80001054:	25a4a284 	addiu	a0,t5,-23932
80001058:	3415e714 	li	s5,0xe714
8000105c:	240e1fd7 	li	t6,8151
80001060:	341e8e3a 	li	s8,0x8e3a
80001064:	34148e3a 	li	s4,0x8e3a
80001068:	afae0840 	sw	t6,2112(sp)
8000106c:	24131fd7 	li	s3,8151
80001070:	afb5083c 	sw	s5,2108(sp)
80001074:	1000fdfd 	b	8000086c <core_mark+0x39c>
80001078:	3412e714 	li	s2,0xe714
8000107c:	00000000 	nop
80001080:	8f828010 	lw	v0,-32752(gp)
80001084:	17e0fefa 	bnez	ra,80000c70 <core_mark+0x7a0>
80001088:	329f0004 	andi	ra,s4,0x4
8000108c:	17e0ff3c 	bnez	ra,80000d80 <core_mark+0x8b0>
80001090:	00000000 	nop
80001094:	1000ff7a 	b	80000e80 <core_mark+0x9b0>
80001098:	00000000 	nop
8000109c:	00000000 	nop
800010a0:	158dfd39 	bne	t4,t5,80000588 <core_mark+0xb8>
800010a4:	00000000 	nop
800010a8:	14e0fd37 	bnez	a3,80000588 <core_mark+0xb8>
800010ac:	3c0e3415 	lui	t6,0x3415
800010b0:	25cf3415 	addiu	t7,t6,13333
800010b4:	24150066 	li	s5,102
800010b8:	afaf07f0 	sw	t7,2032(sp)
800010bc:	a7b507f4 	sh	s5,2036(sp)
800010c0:	1000fd32 	b	8000058c <core_mark+0xbc>
800010c4:	24063415 	li	a2,13333
	...
800010d0:	24080007 	li	t0,7
800010d4:	afa80810 	sw	t0,2064(sp)
800010d8:	240a0001 	li	t2,1
800010dc:	24100007 	li	s0,7
800010e0:	1000fd23 	b	80000570 <core_mark+0xa0>
800010e4:	240b0001 	li	t3,1
	...
800010f0:	3c1f8001 	lui	ra,0x8001
800010f4:	27e4a660 	addiu	a0,ra,-22944
800010f8:	0c002700 	jal	80009c00 <printf>
800010fc:	00000000 	nop
80001100:	1000ffa5 	b	80000f98 <core_mark+0xac8>
80001104:	00000000 	nop
	...
80001110:	a7b607f4 	sh	s6,2036(sp)
80001114:	1000fd1d 	b	8000058c <core_mark+0xbc>
80001118:	00003025 	move	a2,zero
8000111c:	00000000 	nop
80001120:	27b40020 	addiu	s4,sp,32
80001124:	afb407fc 	sw	s4,2044(sp)
80001128:	12e0fd2c 	beqz	s7,800005dc <core_mark+0x10c>
8000112c:	24020001 	li	v0,1
80001130:	00440018 	mult	v0,a0
80001134:	27a30020 	addiu	v1,sp,32
80001138:	24530001 	addiu	s3,v0,1
8000113c:	3262ffff 	andi	v0,s3,0xffff
80001140:	00009012 	mflo	s2
80001144:	00722821 	addu	a1,v1,s2
80001148:	13c0fd26 	beqz	s8,800005e4 <core_mark+0x114>
8000114c:	afa50800 	sw	a1,2048(sp)
80001150:	00440018 	mult	v0,a0
80001154:	27a90020 	addiu	t1,sp,32
80001158:	00003812 	mflo	a3
8000115c:	01274021 	addu	t0,t1,a3
80001160:	1000fd20 	b	800005e4 <core_mark+0x114>
80001164:	afa80804 	sw	t0,2052(sp)
	...
80001170:	0c002700 	jal	80009c00 <printf>
80001174:	2624a600 	addiu	a0,s1,-23040
80001178:	1000ff87 	b	80000f98 <core_mark+0xac8>
8000117c:	00000000 	nop
80001180:	8f858010 	lw	a1,-32752(gp)
80001184:	8fa9080c 	lw	t1,2060(sp)
80001188:	00000000 	nop
8000118c:	01250018 	mult	t1,a1
80001190:	0000b812 	mflo	s7
80001194:	0c00161c 	jal	80005870 <time_in_secs>
80001198:	00002025 	move	a0,zero
8000119c:	3c088001 	lui	t0,0x8001
800011a0:	14400002 	bnez	v0,800011ac <core_mark+0xcdc>
800011a4:	02e2001b 	divu	zero,s7,v0
800011a8:	0007000d 	break	0x7
800011ac:	00002812 	mflo	a1
800011b0:	0c002700 	jal	80009c00 <printf>
800011b4:	2504a498 	addiu	a0,t0,-23400
800011b8:	1000fe47 	b	80000ad8 <core_mark+0x608>
800011bc:	00000000 	nop
800011c0:	3c058001 	lui	a1,0x8001
800011c4:	0c002700 	jal	80009c00 <printf>
800011c8:	24a4a224 	addiu	a0,a1,-24028
800011cc:	24071199 	li	a3,4505
800011d0:	24093340 	li	t1,13120
800011d4:	241e39bf 	li	s8,14783
800011d8:	241439bf 	li	s4,14783
800011dc:	afa70840 	sw	a3,2112(sp)
800011e0:	24131199 	li	s3,4505
800011e4:	afa9083c 	sw	t1,2108(sp)
800011e8:	1000fda0 	b	8000086c <core_mark+0x39c>
800011ec:	24123340 	li	s2,13120
800011f0:	3c168001 	lui	s6,0x8001
800011f4:	0c002700 	jal	80009c00 <printf>
800011f8:	26c4a2b4 	addiu	a0,s6,-23884
800011fc:	24170747 	li	s7,1863
80001200:	3418e3c1 	li	t8,0xe3c1
80001204:	341e8d84 	li	s8,0x8d84
80001208:	34148d84 	li	s4,0x8d84
8000120c:	afb70840 	sw	s7,2112(sp)
80001210:	24130747 	li	s3,1863
80001214:	afb8083c 	sw	t8,2108(sp)
80001218:	1000fd94 	b	8000086c <core_mark+0x39c>
8000121c:	3412e3c1 	li	s2,0xe3c1
80001220:	3c068001 	lui	a2,0x8001
80001224:	0c002700 	jal	80009c00 <printf>
80001228:	24c4a1f4 	addiu	a0,a2,-24076
8000122c:	340abe52 	li	t2,0xbe52
80001230:	340bd4b0 	li	t3,0xd4b0
80001234:	241e5e47 	li	s8,24135
80001238:	24145e47 	li	s4,24135
8000123c:	afaa0840 	sw	t2,2112(sp)
80001240:	3413be52 	li	s3,0xbe52
80001244:	afab083c 	sw	t3,2108(sp)
80001248:	1000fd88 	b	8000086c <core_mark+0x39c>
8000124c:	3412d4b0 	li	s2,0xd4b0
80001250:	1000fde6 	b	800009ec <core_mark+0x51c>
80001254:	00003825 	move	a3,zero
80001258:	1000fde4 	b	800009ec <core_mark+0x51c>
8000125c:	3407ffff 	li	a3,0xffff

80001260 <core_bench_matrix>:
core_bench_matrix():
80001260:	27bdffa8 	addiu	sp,sp,-88
80001264:	8c870000 	lw	a3,0(a0)
80001268:	afb10034 	sw	s1,52(sp)
8000126c:	2411f000 	li	s1,-4096
80001270:	afb7004c 	sw	s7,76(sp)
80001274:	afb60048 	sw	s6,72(sp)
80001278:	afb50044 	sw	s5,68(sp)
8000127c:	8c970004 	lw	s7,4(a0)
80001280:	8c95000c 	lw	s5,12(a0)
80001284:	8c960008 	lw	s6,8(a0)
80001288:	afbf0054 	sw	ra,84(sp)
8000128c:	afbe0050 	sw	s8,80(sp)
80001290:	afb40040 	sw	s4,64(sp)
80001294:	afb3003c 	sw	s3,60(sp)
80001298:	afb20038 	sw	s2,56(sp)
8000129c:	afb00030 	sw	s0,48(sp)
800012a0:	afa60010 	sw	a2,16(sp)
800012a4:	10e005fa 	beqz	a3,80002a90 <core_bench_matrix+0x1830>
800012a8:	00b18825 	or	s1,a1,s1
800012ac:	30b2ffff 	andi	s2,a1,0xffff
800012b0:	0007f040 	sll	s8,a3,0x1
800012b4:	02e03025 	move	a2,s7
800012b8:	00001825 	move	v1,zero
800012bc:	00c01025 	move	v0,a2
800012c0:	00de3021 	addu	a2,a2,s8
800012c4:	00c22023 	subu	a0,a2,v0
800012c8:	2488fffe 	addiu	t0,a0,-2
800012cc:	00084842 	srl	t1,t0,0x1
800012d0:	252a0001 	addiu	t2,t1,1
800012d4:	314b0007 	andi	t3,t2,0x7
800012d8:	1160002a 	beqz	t3,80001384 <core_bench_matrix+0x124>
800012dc:	240c0001 	li	t4,1
800012e0:	116c0023 	beq	t3,t4,80001370 <core_bench_matrix+0x110>
800012e4:	240d0002 	li	t5,2
800012e8:	116d001d 	beq	t3,t5,80001360 <core_bench_matrix+0x100>
800012ec:	240e0003 	li	t6,3
800012f0:	116e0017 	beq	t3,t6,80001350 <core_bench_matrix+0xf0>
800012f4:	240f0004 	li	t7,4
800012f8:	116f0011 	beq	t3,t7,80001340 <core_bench_matrix+0xe0>
800012fc:	24100005 	li	s0,5
80001300:	1170000b 	beq	t3,s0,80001330 <core_bench_matrix+0xd0>
80001304:	24130006 	li	s3,6
80001308:	11730005 	beq	t3,s3,80001320 <core_bench_matrix+0xc0>
8000130c:	00000000 	nop
80001310:	94540000 	lhu	s4,0(v0)
80001314:	24420002 	addiu	v0,v0,2
80001318:	0254c021 	addu	t8,s2,s4
8000131c:	a458fffe 	sh	t8,-2(v0)
80001320:	94590000 	lhu	t9,0(v0)
80001324:	24420002 	addiu	v0,v0,2
80001328:	0259f821 	addu	ra,s2,t9
8000132c:	a45ffffe 	sh	ra,-2(v0)
80001330:	94440000 	lhu	a0,0(v0)
80001334:	24420002 	addiu	v0,v0,2
80001338:	02444021 	addu	t0,s2,a0
8000133c:	a448fffe 	sh	t0,-2(v0)
80001340:	94490000 	lhu	t1,0(v0)
80001344:	24420002 	addiu	v0,v0,2
80001348:	02495021 	addu	t2,s2,t1
8000134c:	a44afffe 	sh	t2,-2(v0)
80001350:	944b0000 	lhu	t3,0(v0)
80001354:	24420002 	addiu	v0,v0,2
80001358:	024b6021 	addu	t4,s2,t3
8000135c:	a44cfffe 	sh	t4,-2(v0)
80001360:	944d0000 	lhu	t5,0(v0)
80001364:	24420002 	addiu	v0,v0,2
80001368:	024d7021 	addu	t6,s2,t5
8000136c:	a44efffe 	sh	t6,-2(v0)
80001370:	944f0000 	lhu	t7,0(v0)
80001374:	24420002 	addiu	v0,v0,2
80001378:	024f8021 	addu	s0,s2,t7
8000137c:	1046001c 	beq	v0,a2,800013f0 <core_bench_matrix+0x190>
80001380:	a450fffe 	sh	s0,-2(v0)
80001384:	94530000 	lhu	s3,0(v0)
80001388:	94540002 	lhu	s4,2(v0)
8000138c:	94580004 	lhu	t8,4(v0)
80001390:	94590006 	lhu	t9,6(v0)
80001394:	945f0008 	lhu	ra,8(v0)
80001398:	9449000a 	lhu	t1,10(v0)
8000139c:	9448000c 	lhu	t0,12(v0)
800013a0:	9444000e 	lhu	a0,14(v0)
800013a4:	02537021 	addu	t6,s2,s3
800013a8:	02546821 	addu	t5,s2,s4
800013ac:	02586021 	addu	t4,s2,t8
800013b0:	02595821 	addu	t3,s2,t9
800013b4:	025f5021 	addu	t2,s2,ra
800013b8:	02497821 	addu	t7,s2,t1
800013bc:	02488021 	addu	s0,s2,t0
800013c0:	02449821 	addu	s3,s2,a0
800013c4:	a44e0000 	sh	t6,0(v0)
800013c8:	a44d0002 	sh	t5,2(v0)
800013cc:	a44c0004 	sh	t4,4(v0)
800013d0:	a44b0006 	sh	t3,6(v0)
800013d4:	a44a0008 	sh	t2,8(v0)
800013d8:	a44f000a 	sh	t7,10(v0)
800013dc:	a450000c 	sh	s0,12(v0)
800013e0:	a453000e 	sh	s3,14(v0)
800013e4:	24420010 	addiu	v0,v0,16
800013e8:	1446ffe6 	bne	v0,a2,80001384 <core_bench_matrix+0x124>
800013ec:	00000000 	nop
800013f0:	24700001 	addiu	s0,v1,1
800013f4:	10f00006 	beq	a3,s0,80001410 <core_bench_matrix+0x1b0>
800013f8:	00004825 	move	t1,zero
800013fc:	1000ffaf 	b	800012bc <core_bench_matrix+0x5c>
80001400:	02001825 	move	v1,s0
	...
80001410:	02e03825 	move	a3,s7
80001414:	00004025 	move	t0,zero
80001418:	00e02025 	move	a0,a3
8000141c:	00fe3821 	addu	a3,a3,s8
80001420:	00e43023 	subu	a2,a3,a0
80001424:	24c2fffe 	addiu	v0,a2,-2
80001428:	0002a042 	srl	s4,v0,0x1
8000142c:	26980001 	addiu	t8,s4,1
80001430:	0009c880 	sll	t9,t1,0x2
80001434:	331f0007 	andi	ra,t8,0x7
80001438:	13e00039 	beqz	ra,80001520 <core_bench_matrix+0x2c0>
8000143c:	03351021 	addu	v0,t9,s5
80001440:	240e0001 	li	t6,1
80001444:	13ee002f 	beq	ra,t6,80001504 <core_bench_matrix+0x2a4>
80001448:	240d0002 	li	t5,2
8000144c:	13ed0027 	beq	ra,t5,800014ec <core_bench_matrix+0x28c>
80001450:	240c0003 	li	t4,3
80001454:	13ec001f 	beq	ra,t4,800014d4 <core_bench_matrix+0x274>
80001458:	240b0004 	li	t3,4
8000145c:	13eb0017 	beq	ra,t3,800014bc <core_bench_matrix+0x25c>
80001460:	240a0005 	li	t2,5
80001464:	13ea000f 	beq	ra,t2,800014a4 <core_bench_matrix+0x244>
80001468:	240f0006 	li	t7,6
8000146c:	13ef0007 	beq	ra,t7,8000148c <core_bench_matrix+0x22c>
80001470:	00000000 	nop
80001474:	84930000 	lh	s3,0(a0)
80001478:	24420004 	addiu	v0,v0,4
8000147c:	02650018 	mult	s3,a1
80001480:	24840002 	addiu	a0,a0,2
80001484:	00003012 	mflo	a2
80001488:	ac46fffc 	sw	a2,-4(v0)
8000148c:	84940000 	lh	s4,0(a0)
80001490:	24420004 	addiu	v0,v0,4
80001494:	02850018 	mult	s4,a1
80001498:	24840002 	addiu	a0,a0,2
8000149c:	0000c012 	mflo	t8
800014a0:	ac58fffc 	sw	t8,-4(v0)
800014a4:	84990000 	lh	t9,0(a0)
800014a8:	24420004 	addiu	v0,v0,4
800014ac:	03250018 	mult	t9,a1
800014b0:	24840002 	addiu	a0,a0,2
800014b4:	0000f812 	mflo	ra
800014b8:	ac5ffffc 	sw	ra,-4(v0)
800014bc:	848e0000 	lh	t6,0(a0)
800014c0:	24420004 	addiu	v0,v0,4
800014c4:	01c50018 	mult	t6,a1
800014c8:	24840002 	addiu	a0,a0,2
800014cc:	00006812 	mflo	t5
800014d0:	ac4dfffc 	sw	t5,-4(v0)
800014d4:	848c0000 	lh	t4,0(a0)
800014d8:	24420004 	addiu	v0,v0,4
800014dc:	01850018 	mult	t4,a1
800014e0:	24840002 	addiu	a0,a0,2
800014e4:	00005812 	mflo	t3
800014e8:	ac4bfffc 	sw	t3,-4(v0)
800014ec:	848a0000 	lh	t2,0(a0)
800014f0:	24420004 	addiu	v0,v0,4
800014f4:	01450018 	mult	t2,a1
800014f8:	24840002 	addiu	a0,a0,2
800014fc:	00007812 	mflo	t7
80001500:	ac4ffffc 	sw	t7,-4(v0)
80001504:	84930000 	lh	s3,0(a0)
80001508:	24420004 	addiu	v0,v0,4
8000150c:	02650018 	mult	s3,a1
80001510:	24840002 	addiu	a0,a0,2
80001514:	00003012 	mflo	a2
80001518:	10e4002b 	beq	a3,a0,800015c8 <core_bench_matrix+0x368>
8000151c:	ac46fffc 	sw	a2,-4(v0)
80001520:	84940000 	lh	s4,0(a0)
80001524:	84990002 	lh	t9,2(a0)
80001528:	02850018 	mult	s4,a1
8000152c:	849f0004 	lh	ra,4(a0)
80001530:	848d0006 	lh	t5,6(a0)
80001534:	848c0008 	lh	t4,8(a0)
80001538:	848b000a 	lh	t3,10(a0)
8000153c:	848a000c 	lh	t2,12(a0)
80001540:	8493000e 	lh	s3,14(a0)
80001544:	24420020 	addiu	v0,v0,32
80001548:	24840010 	addiu	a0,a0,16
8000154c:	0000c012 	mflo	t8
80001550:	ac58ffe0 	sw	t8,-32(v0)
80001554:	00000000 	nop
80001558:	03250018 	mult	t9,a1
8000155c:	00007812 	mflo	t7
80001560:	ac4fffe4 	sw	t7,-28(v0)
80001564:	00000000 	nop
80001568:	03e50018 	mult	ra,a1
8000156c:	00007012 	mflo	t6
80001570:	ac4effe8 	sw	t6,-24(v0)
80001574:	00000000 	nop
80001578:	01a50018 	mult	t5,a1
8000157c:	00003012 	mflo	a2
80001580:	ac46ffec 	sw	a2,-20(v0)
80001584:	00000000 	nop
80001588:	01850018 	mult	t4,a1
8000158c:	0000a012 	mflo	s4
80001590:	ac54fff0 	sw	s4,-16(v0)
80001594:	00000000 	nop
80001598:	01650018 	mult	t3,a1
8000159c:	0000c812 	mflo	t9
800015a0:	ac59fff4 	sw	t9,-12(v0)
800015a4:	00000000 	nop
800015a8:	01450018 	mult	t2,a1
800015ac:	0000f812 	mflo	ra
800015b0:	ac5ffff8 	sw	ra,-8(v0)
800015b4:	00000000 	nop
800015b8:	02650018 	mult	s3,a1
800015bc:	00006812 	mflo	t5
800015c0:	14e4ffd7 	bne	a3,a0,80001520 <core_bench_matrix+0x2c0>
800015c4:	ac4dfffc 	sw	t5,-4(v0)
800015c8:	25040001 	addiu	a0,t0,1
800015cc:	10680004 	beq	v1,t0,800015e0 <core_bench_matrix+0x380>
800015d0:	01304821 	addu	t1,t1,s0
800015d4:	1000ff90 	b	80001418 <core_bench_matrix+0x1b8>
800015d8:	00804025 	move	t0,a0
800015dc:	00000000 	nop
800015e0:	00109880 	sll	s3,s0,0x2
800015e4:	02a01025 	move	v0,s5
800015e8:	00002025 	move	a0,zero
800015ec:	00004025 	move	t0,zero
800015f0:	00004825 	move	t1,zero
800015f4:	00002825 	move	a1,zero
800015f8:	00403825 	move	a3,v0
800015fc:	00531021 	addu	v0,v0,s3
80001600:	00476023 	subu	t4,v0,a3
80001604:	258bfffc 	addiu	t3,t4,-4
80001608:	000b5082 	srl	t2,t3,0x2
8000160c:	25580001 	addiu	t8,t2,1
80001610:	330f0003 	andi	t7,t8,0x3
80001614:	11e00046 	beqz	t7,80001730 <core_bench_matrix+0x4d0>
80001618:	240e0001 	li	t6,1
8000161c:	11ee001b 	beq	t7,t6,8000168c <core_bench_matrix+0x42c>
80001620:	24060002 	li	a2,2
80001624:	11e6000e 	beq	t7,a2,80001660 <core_bench_matrix+0x400>
80001628:	0100c025 	move	t8,t0
8000162c:	0100a025 	move	s4,t0
80001630:	8ce80000 	lw	t0,0(a3)
80001634:	00000000 	nop
80001638:	01284821 	addu	t1,t1,t0
8000163c:	0229f82a 	slt	ra,s1,t1
80001640:	13e0007b 	beqz	ra,80001830 <core_bench_matrix+0x5d0>
80001644:	3099ffff 	andi	t9,a0,0xffff
80001648:	2729000a 	addiu	t1,t9,10
8000164c:	00095c00 	sll	t3,t1,0x10
80001650:	000b2403 	sra	a0,t3,0x10
80001654:	00004825 	move	t1,zero
80001658:	24e70004 	addiu	a3,a3,4
8000165c:	0100c025 	move	t8,t0
80001660:	8ce80000 	lw	t0,0(a3)
80001664:	00000000 	nop
80001668:	01284821 	addu	t1,t1,t0
8000166c:	0229502a 	slt	t2,s1,t1
80001670:	11400067 	beqz	t2,80001810 <core_bench_matrix+0x5b0>
80001674:	308fffff 	andi	t7,a0,0xffff
80001678:	25f9000a 	addiu	t9,t7,10
8000167c:	0019fc00 	sll	ra,t9,0x10
80001680:	001f2403 	sra	a0,ra,0x10
80001684:	00004825 	move	t1,zero
80001688:	24e70004 	addiu	a3,a3,4
8000168c:	01006825 	move	t5,t0
80001690:	8ce80000 	lw	t0,0(a3)
80001694:	00000000 	nop
80001698:	01284821 	addu	t1,t1,t0
8000169c:	0229602a 	slt	t4,s1,t1
800016a0:	1180006b 	beqz	t4,80001850 <core_bench_matrix+0x5f0>
800016a4:	3084ffff 	andi	a0,a0,0xffff
800016a8:	2489000a 	addiu	t1,a0,10
800016ac:	00095400 	sll	t2,t1,0x10
800016b0:	000a2403 	sra	a0,t2,0x10
800016b4:	00004825 	move	t1,zero
800016b8:	24e70004 	addiu	a3,a3,4
800016bc:	1447001c 	bne	v0,a3,80001730 <core_bench_matrix+0x4d0>
800016c0:	24af0001 	addiu	t7,a1,1
800016c4:	10000043 	b	800017d4 <core_bench_matrix+0x574>
800016c8:	00000000 	nop
800016cc:	00000000 	nop
800016d0:	8ded0004 	lw	t5,4(t7)
800016d4:	2699000a 	addiu	t9,s4,10
800016d8:	00004825 	move	t1,zero
800016dc:	0019fc00 	sll	ra,t9,0x10
800016e0:	012d6021 	addu	t4,t1,t5
800016e4:	001f4403 	sra	t0,ra,0x10
800016e8:	022c582a 	slt	t3,s1,t4
800016ec:	11600029 	beqz	t3,80001794 <core_bench_matrix+0x534>
800016f0:	3104ffff 	andi	a0,t0,0xffff
800016f4:	8de80008 	lw	t0,8(t7)
800016f8:	248a000a 	addiu	t2,a0,10
800016fc:	00006025 	move	t4,zero
80001700:	000a7400 	sll	t6,t2,0x10
80001704:	01884821 	addu	t1,t4,t0
80001708:	000ea403 	sra	s4,t6,0x10
8000170c:	0229c82a 	slt	t9,s1,t1
80001710:	13200029 	beqz	t9,800017b8 <core_bench_matrix+0x558>
80001714:	3286ffff 	andi	a2,s4,0xffff
80001718:	24cc000a 	addiu	t4,a2,10
8000171c:	000c5c00 	sll	t3,t4,0x10
80001720:	25e7000c 	addiu	a3,t7,12
80001724:	000b2403 	sra	a0,t3,0x10
80001728:	10470029 	beq	v0,a3,800017d0 <core_bench_matrix+0x570>
8000172c:	00004825 	move	t1,zero
80001730:	8cee0000 	lw	t6,0(a3)
80001734:	00000000 	nop
80001738:	012e5821 	addu	t3,t1,t6
8000173c:	022b302a 	slt	a2,s1,t3
80001740:	14c0002b 	bnez	a2,800017f0 <core_bench_matrix+0x590>
80001744:	3094ffff 	andi	s4,a0,0xffff
80001748:	010e402a 	slt	t0,t0,t6
8000174c:	0288c821 	addu	t9,s4,t0
80001750:	0019fc00 	sll	ra,t9,0x10
80001754:	001f6403 	sra	t4,ra,0x10
80001758:	8cf80004 	lw	t8,4(a3)
8000175c:	24ef0004 	addiu	t7,a3,4
80001760:	01784821 	addu	t1,t3,t8
80001764:	0229382a 	slt	a3,s1,t1
80001768:	14e0ffd9 	bnez	a3,800016d0 <core_bench_matrix+0x470>
8000176c:	3194ffff 	andi	s4,t4,0xffff
80001770:	8ded0004 	lw	t5,4(t7)
80001774:	01d8502a 	slt	t2,t6,t8
80001778:	028a7021 	addu	t6,s4,t2
8000177c:	000e3400 	sll	a2,t6,0x10
80001780:	012d6021 	addu	t4,t1,t5
80001784:	00064403 	sra	t0,a2,0x10
80001788:	022c582a 	slt	t3,s1,t4
8000178c:	1560ffd9 	bnez	t3,800016f4 <core_bench_matrix+0x494>
80001790:	3104ffff 	andi	a0,t0,0xffff
80001794:	8de80008 	lw	t0,8(t7)
80001798:	030dc02a 	slt	t8,t8,t5
8000179c:	00984821 	addu	t1,a0,t8
800017a0:	00093c00 	sll	a3,t1,0x10
800017a4:	01884821 	addu	t1,t4,t0
800017a8:	0007a403 	sra	s4,a3,0x10
800017ac:	0229c82a 	slt	t9,s1,t1
800017b0:	1720ffd9 	bnez	t9,80001718 <core_bench_matrix+0x4b8>
800017b4:	3286ffff 	andi	a2,s4,0xffff
800017b8:	01a8f82a 	slt	ra,t5,t0
800017bc:	00df6821 	addu	t5,a2,ra
800017c0:	000d2400 	sll	a0,t5,0x10
800017c4:	25e7000c 	addiu	a3,t7,12
800017c8:	1447ffd9 	bne	v0,a3,80001730 <core_bench_matrix+0x4d0>
800017cc:	00042403 	sra	a0,a0,0x10
800017d0:	24af0001 	addiu	t7,a1,1
800017d4:	10650026 	beq	v1,a1,80001870 <core_bench_matrix+0x610>
800017d8:	01e02825 	move	a1,t7
800017dc:	1000ff87 	b	800015fc <core_bench_matrix+0x39c>
800017e0:	00403825 	move	a3,v0
	...
800017f0:	268d000a 	addiu	t5,s4,10
800017f4:	000d2400 	sll	a0,t5,0x10
800017f8:	00046403 	sra	t4,a0,0x10
800017fc:	1000ffd6 	b	80001758 <core_bench_matrix+0x4f8>
80001800:	00005825 	move	t3,zero
	...
80001810:	0308702a 	slt	t6,t8,t0
80001814:	01ee3021 	addu	a2,t7,t6
80001818:	0006a400 	sll	s4,a2,0x10
8000181c:	1000ff9a 	b	80001688 <core_bench_matrix+0x428>
80001820:	00142403 	sra	a0,s4,0x10
	...
80001830:	0288682a 	slt	t5,s4,t0
80001834:	032d2021 	addu	a0,t9,t5
80001838:	00046400 	sll	t4,a0,0x10
8000183c:	1000ff86 	b	80001658 <core_bench_matrix+0x3f8>
80001840:	000c2403 	sra	a0,t4,0x10
	...
80001850:	01a8582a 	slt	t3,t5,t0
80001854:	008bc021 	addu	t8,a0,t3
80001858:	00187c00 	sll	t7,t8,0x10
8000185c:	1000ff96 	b	800016b8 <core_bench_matrix+0x458>
80001860:	000f2403 	sra	a0,t7,0x10
	...
80001870:	0c001f5c 	jal	80007d70 <crc16>
80001874:	00002825 	move	a1,zero
80001878:	00402825 	move	a1,v0
8000187c:	02b31021 	addu	v0,s5,s3
80001880:	0220f825 	move	ra,s1
80001884:	afa20020 	sw	v0,32(sp)
80001888:	02dec821 	addu	t9,s6,s8
8000188c:	02a04025 	move	t0,s5
80001890:	0000c025 	move	t8,zero
80001894:	02a07825 	move	t7,s5
80001898:	03c08825 	move	s1,s8
8000189c:	0336a023 	subu	s4,t9,s6
800018a0:	268afffe 	addiu	t2,s4,-2
800018a4:	000a7042 	srl	t6,t2,0x1
800018a8:	25c60001 	addiu	a2,t6,1
800018ac:	00184840 	sll	t1,t8,0x1
800018b0:	30cd0007 	andi	t5,a2,0x7
800018b4:	02e92021 	addu	a0,s7,t1
800018b8:	02c03025 	move	a2,s6
800018bc:	11a0003f 	beqz	t5,800019bc <core_bench_matrix+0x75c>
800018c0:	00001025 	move	v0,zero
800018c4:	240c0001 	li	t4,1
800018c8:	11ac0034 	beq	t5,t4,8000199c <core_bench_matrix+0x73c>
800018cc:	240b0002 	li	t3,2
800018d0:	11ab002b 	beq	t5,t3,80001980 <core_bench_matrix+0x720>
800018d4:	24070003 	li	a3,3
800018d8:	11a70022 	beq	t5,a3,80001964 <core_bench_matrix+0x704>
800018dc:	24030004 	li	v1,4
800018e0:	11a30019 	beq	t5,v1,80001948 <core_bench_matrix+0x6e8>
800018e4:	24130005 	li	s3,5
800018e8:	11b30010 	beq	t5,s3,8000192c <core_bench_matrix+0x6cc>
800018ec:	24150006 	li	s5,6
800018f0:	11b50007 	beq	t5,s5,80001910 <core_bench_matrix+0x6b0>
800018f4:	00000000 	nop
800018f8:	849e0000 	lh	s8,0(a0)
800018fc:	86c20000 	lh	v0,0(s6)
80001900:	24840002 	addiu	a0,a0,2
80001904:	03c20018 	mult	s8,v0
80001908:	26c60002 	addiu	a2,s6,2
8000190c:	00001012 	mflo	v0
80001910:	84940000 	lh	s4,0(a0)
80001914:	84ca0000 	lh	t2,0(a2)
80001918:	24840002 	addiu	a0,a0,2
8000191c:	028a0018 	mult	s4,t2
80001920:	24c60002 	addiu	a2,a2,2
80001924:	00007012 	mflo	t6
80001928:	004e1021 	addu	v0,v0,t6
8000192c:	84890000 	lh	t1,0(a0)
80001930:	84cd0000 	lh	t5,0(a2)
80001934:	24840002 	addiu	a0,a0,2
80001938:	012d0018 	mult	t1,t5
8000193c:	24c60002 	addiu	a2,a2,2
80001940:	00006012 	mflo	t4
80001944:	004c1021 	addu	v0,v0,t4
80001948:	848b0000 	lh	t3,0(a0)
8000194c:	84c70000 	lh	a3,0(a2)
80001950:	24840002 	addiu	a0,a0,2
80001954:	01670018 	mult	t3,a3
80001958:	24c60002 	addiu	a2,a2,2
8000195c:	00001812 	mflo	v1
80001960:	00431021 	addu	v0,v0,v1
80001964:	84930000 	lh	s3,0(a0)
80001968:	84d50000 	lh	s5,0(a2)
8000196c:	24840002 	addiu	a0,a0,2
80001970:	02750018 	mult	s3,s5
80001974:	24c60002 	addiu	a2,a2,2
80001978:	0000f012 	mflo	s8
8000197c:	005e1021 	addu	v0,v0,s8
80001980:	84940000 	lh	s4,0(a0)
80001984:	84ca0000 	lh	t2,0(a2)
80001988:	24840002 	addiu	a0,a0,2
8000198c:	028a0018 	mult	s4,t2
80001990:	24c60002 	addiu	a2,a2,2
80001994:	00007012 	mflo	t6
80001998:	004e1021 	addu	v0,v0,t6
8000199c:	84890000 	lh	t1,0(a0)
800019a0:	84cd0000 	lh	t5,0(a2)
800019a4:	24c60002 	addiu	a2,a2,2
800019a8:	012d0018 	mult	t1,t5
800019ac:	24840002 	addiu	a0,a0,2
800019b0:	00006012 	mflo	t4
800019b4:	1326003b 	beq	t9,a2,80001aa4 <core_bench_matrix+0x844>
800019b8:	004c1021 	addu	v0,v0,t4
800019bc:	848b0000 	lh	t3,0(a0)
800019c0:	84c70000 	lh	a3,0(a2)
800019c4:	848d0002 	lh	t5,2(a0)
800019c8:	01670018 	mult	t3,a3
800019cc:	84de0002 	lh	s8,2(a2)
800019d0:	84950004 	lh	s5,4(a0)
800019d4:	84cc0004 	lh	t4,4(a2)
800019d8:	848b0006 	lh	t3,6(a0)
800019dc:	84d40006 	lh	s4,6(a2)
800019e0:	848a0008 	lh	t2,8(a0)
800019e4:	84d30008 	lh	s3,8(a2)
800019e8:	84ce000a 	lh	t6,10(a2)
800019ec:	8489000a 	lh	t1,10(a0)
800019f0:	afae0014 	sw	t6,20(sp)
800019f4:	8487000c 	lh	a3,12(a0)
800019f8:	00001812 	mflo	v1
800019fc:	84ce000c 	lh	t6,12(a2)
80001a00:	00431021 	addu	v0,v0,v1
80001a04:	01be0018 	mult	t5,s8
80001a08:	afa70018 	sw	a3,24(sp)
80001a0c:	afae001c 	sw	t6,28(sp)
80001a10:	8487000e 	lh	a3,14(a0)
80001a14:	84ce000e 	lh	t6,14(a2)
80001a18:	24c60010 	addiu	a2,a2,16
80001a1c:	24840010 	addiu	a0,a0,16
80001a20:	00006812 	mflo	t5
	...
80001a2c:	02ac0018 	mult	s5,t4
80001a30:	004da821 	addu	s5,v0,t5
80001a34:	8fa2001c 	lw	v0,28(sp)
80001a38:	8fad0018 	lw	t5,24(sp)
80001a3c:	0000f012 	mflo	s8
80001a40:	02be1821 	addu	v1,s5,s8
80001a44:	00000000 	nop
80001a48:	01740018 	mult	t3,s4
80001a4c:	00006012 	mflo	t4
80001a50:	006c5821 	addu	t3,v1,t4
80001a54:	00000000 	nop
80001a58:	01530018 	mult	t2,s3
80001a5c:	8faa0014 	lw	t2,20(sp)
80001a60:	0000a012 	mflo	s4
	...
80001a6c:	012a0018 	mult	t1,t2
80001a70:	01744821 	addu	t1,t3,s4
80001a74:	00009812 	mflo	s3
80001a78:	0133a821 	addu	s5,t1,s3
80001a7c:	00000000 	nop
80001a80:	01a20018 	mult	t5,v0
80001a84:	0000f012 	mflo	s8
	...
80001a90:	00ee0018 	mult	a3,t6
80001a94:	02be7021 	addu	t6,s5,s8
80001a98:	00003812 	mflo	a3
80001a9c:	1726ffc7 	bne	t9,a2,800019bc <core_bench_matrix+0x75c>
80001aa0:	01c71021 	addu	v0,t6,a3
80001aa4:	8fa60020 	lw	a2,32(sp)
80001aa8:	ad020000 	sw	v0,0(t0)
80001aac:	25080004 	addiu	t0,t0,4
80001ab0:	14c8ff7a 	bne	a2,t0,8000189c <core_bench_matrix+0x63c>
80001ab4:	0310c021 	addu	t8,t8,s0
80001ab8:	0220f025 	move	s8,s1
80001abc:	01e0a825 	move	s5,t7
80001ac0:	03e08825 	move	s1,ra
80001ac4:	00001825 	move	v1,zero
80001ac8:	00002025 	move	a0,zero
80001acc:	00005025 	move	t2,zero
80001ad0:	00004025 	move	t0,zero
80001ad4:	00001025 	move	v0,zero
80001ad8:	0003c880 	sll	t9,v1,0x2
80001adc:	02b9c021 	addu	t8,s5,t9
80001ae0:	01407825 	move	t7,t2
80001ae4:	8f0a0000 	lw	t2,0(t8)
80001ae8:	261fffff 	addiu	ra,s0,-1
80001aec:	010a4021 	addu	t0,t0,t2
80001af0:	0228602a 	slt	t4,s1,t0
80001af4:	33f40003 	andi	s4,ra,0x3
80001af8:	118003b5 	beqz	t4,800029d0 <core_bench_matrix+0x1770>
80001afc:	3084ffff 	andi	a0,a0,0xffff
80001b00:	2488000a 	addiu	t0,a0,10
80001b04:	00086c00 	sll	t5,t0,0x10
80001b08:	000d2403 	sra	a0,t5,0x10
80001b0c:	00004025 	move	t0,zero
80001b10:	24090001 	li	t1,1
80001b14:	0130702b 	sltu	t6,t1,s0
80001b18:	11c00030 	beqz	t6,80001bdc <core_bench_matrix+0x97c>
80001b1c:	27070004 	addiu	a3,t8,4
80001b20:	128002b4 	beqz	s4,800025f4 <core_bench_matrix+0x1394>
80001b24:	00000000 	nop
80001b28:	1289001d 	beq	s4,t1,80001ba0 <core_bench_matrix+0x940>
80001b2c:	24060002 	li	a2,2
80001b30:	1286000f 	beq	s4,a2,80001b70 <core_bench_matrix+0x910>
80001b34:	01409825 	move	s3,t2
80001b38:	0140c825 	move	t9,t2
80001b3c:	8f0a0004 	lw	t2,4(t8)
80001b40:	00000000 	nop
80001b44:	010a4021 	addu	t0,t0,t2
80001b48:	0228782a 	slt	t7,s1,t0
80001b4c:	11e003b8 	beqz	t7,80002a30 <core_bench_matrix+0x17d0>
80001b50:	3098ffff 	andi	t8,a0,0xffff
80001b54:	2704000a 	addiu	a0,t8,10
80001b58:	00045c00 	sll	t3,a0,0x10
80001b5c:	000b2403 	sra	a0,t3,0x10
80001b60:	00004025 	move	t0,zero
80001b64:	25290001 	addiu	t1,t1,1
80001b68:	24e70004 	addiu	a3,a3,4
80001b6c:	01409825 	move	s3,t2
80001b70:	8cea0000 	lw	t2,0(a3)
80001b74:	00000000 	nop
80001b78:	010a4021 	addu	t0,t0,t2
80001b7c:	0228702a 	slt	t6,s1,t0
80001b80:	11c0038b 	beqz	t6,800029b0 <core_bench_matrix+0x1750>
80001b84:	308dffff 	andi	t5,a0,0xffff
80001b88:	25a8000a 	addiu	t0,t5,10
80001b8c:	00087c00 	sll	t7,t0,0x10
80001b90:	000f2403 	sra	a0,t7,0x10
80001b94:	00004025 	move	t0,zero
80001b98:	25290001 	addiu	t1,t1,1
80001b9c:	24e70004 	addiu	a3,a3,4
80001ba0:	0140f825 	move	ra,t2
80001ba4:	8cea0000 	lw	t2,0(a3)
80001ba8:	00000000 	nop
80001bac:	010a4021 	addu	t0,t0,t2
80001bb0:	0228a02a 	slt	s4,s1,t0
80001bb4:	12800396 	beqz	s4,80002a10 <core_bench_matrix+0x17b0>
80001bb8:	308cffff 	andi	t4,a0,0xffff
80001bbc:	258d000a 	addiu	t5,t4,10
80001bc0:	000d7400 	sll	t6,t5,0x10
80001bc4:	000e2403 	sra	a0,t6,0x10
80001bc8:	00004025 	move	t0,zero
80001bcc:	25290001 	addiu	t1,t1,1
80001bd0:	0130302b 	sltu	a2,t1,s0
80001bd4:	14c00287 	bnez	a2,800025f4 <core_bench_matrix+0x1394>
80001bd8:	24e70004 	addiu	a3,a3,4
80001bdc:	24420001 	addiu	v0,v0,1
80001be0:	0050702b 	sltu	t6,v0,s0
80001be4:	15c0ffbc 	bnez	t6,80001ad8 <core_bench_matrix+0x878>
80001be8:	00701821 	addu	v1,v1,s0
80001bec:	0c001f5c 	jal	80007d70 <crc16>
80001bf0:	00000000 	nop
80001bf4:	0040a025 	move	s4,v0
80001bf8:	02e0c825 	move	t9,s7
80001bfc:	00002825 	move	a1,zero
80001c00:	00005025 	move	t2,zero
80001c04:	02a0c025 	move	t8,s5
80001c08:	02c0b825 	move	s7,s6
80001c0c:	02407825 	move	t7,s2
80001c10:	0005b080 	sll	s6,a1,0x2
80001c14:	00053040 	sll	a2,a1,0x1
80001c18:	02e03825 	move	a3,s7
80001c1c:	02e0f825 	move	ra,s7
80001c20:	0316b021 	addu	s6,t8,s6
80001c24:	03263021 	addu	a2,t9,a2
80001c28:	0000a825 	move	s5,zero
80001c2c:	00a09025 	move	s2,a1
80001c30:	01409825 	move	s3,t2
80001c34:	01e0b825 	move	s7,t7
80001c38:	84e40000 	lh	a0,0(a3)
80001c3c:	84cc0000 	lh	t4,0(a2)
80001c40:	24050001 	li	a1,1
80001c44:	01840018 	mult	t4,a0
80001c48:	2608ffff 	addiu	t0,s0,-1
80001c4c:	00b0582b 	sltu	t3,a1,s0
80001c50:	310d0007 	andi	t5,t0,0x7
80001c54:	24c30002 	addiu	v1,a2,2
80001c58:	00001012 	mflo	v0
80001c5c:	1160008d 	beqz	t3,80001e94 <core_bench_matrix+0xc34>
80001c60:	00fe2021 	addu	a0,a3,s8
80001c64:	11a00047 	beqz	t5,80001d84 <core_bench_matrix+0xb24>
80001c68:	00000000 	nop
80001c6c:	11a5003b 	beq	t5,a1,80001d5c <core_bench_matrix+0xafc>
80001c70:	24090002 	li	t1,2
80001c74:	11a90031 	beq	t5,t1,80001d3c <core_bench_matrix+0xadc>
80001c78:	240e0003 	li	t6,3
80001c7c:	11ae0027 	beq	t5,t6,80001d1c <core_bench_matrix+0xabc>
80001c80:	240a0004 	li	t2,4
80001c84:	11aa001d 	beq	t5,t2,80001cfc <core_bench_matrix+0xa9c>
80001c88:	240f0005 	li	t7,5
80001c8c:	11af0013 	beq	t5,t7,80001cdc <core_bench_matrix+0xa7c>
80001c90:	240c0006 	li	t4,6
80001c94:	11ac0009 	beq	t5,t4,80001cbc <core_bench_matrix+0xa5c>
80001c98:	00000000 	nop
80001c9c:	84880000 	lh	t0,0(a0)
80001ca0:	84c30002 	lh	v1,2(a2)
80001ca4:	24050002 	li	a1,2
80001ca8:	00680018 	mult	v1,t0
80001cac:	009e2021 	addu	a0,a0,s8
80001cb0:	24c30004 	addiu	v1,a2,4
80001cb4:	00005812 	mflo	t3
80001cb8:	004b1021 	addu	v0,v0,t3
80001cbc:	846d0000 	lh	t5,0(v1)
80001cc0:	84890000 	lh	t1,0(a0)
80001cc4:	24a50001 	addiu	a1,a1,1
80001cc8:	01a90018 	mult	t5,t1
80001ccc:	24630002 	addiu	v1,v1,2
80001cd0:	009e2021 	addu	a0,a0,s8
80001cd4:	00007012 	mflo	t6
80001cd8:	004e1021 	addu	v0,v0,t6
80001cdc:	846a0000 	lh	t2,0(v1)
80001ce0:	848f0000 	lh	t7,0(a0)
80001ce4:	24a50001 	addiu	a1,a1,1
80001ce8:	014f0018 	mult	t2,t7
80001cec:	24630002 	addiu	v1,v1,2
80001cf0:	009e2021 	addu	a0,a0,s8
80001cf4:	00006012 	mflo	t4
80001cf8:	004c1021 	addu	v0,v0,t4
80001cfc:	84680000 	lh	t0,0(v1)
80001d00:	848b0000 	lh	t3,0(a0)
80001d04:	24a50001 	addiu	a1,a1,1
80001d08:	010b0018 	mult	t0,t3
80001d0c:	24630002 	addiu	v1,v1,2
80001d10:	009e2021 	addu	a0,a0,s8
80001d14:	00006812 	mflo	t5
80001d18:	004d1021 	addu	v0,v0,t5
80001d1c:	846e0000 	lh	t6,0(v1)
80001d20:	84890000 	lh	t1,0(a0)
80001d24:	24a50001 	addiu	a1,a1,1
80001d28:	01c90018 	mult	t6,t1
80001d2c:	24630002 	addiu	v1,v1,2
80001d30:	009e2021 	addu	a0,a0,s8
80001d34:	00005012 	mflo	t2
80001d38:	004a1021 	addu	v0,v0,t2
80001d3c:	846f0000 	lh	t7,0(v1)
80001d40:	848c0000 	lh	t4,0(a0)
80001d44:	24a50001 	addiu	a1,a1,1
80001d48:	01ec0018 	mult	t7,t4
80001d4c:	24630002 	addiu	v1,v1,2
80001d50:	009e2021 	addu	a0,a0,s8
80001d54:	00004012 	mflo	t0
80001d58:	00481021 	addu	v0,v0,t0
80001d5c:	846b0000 	lh	t3,0(v1)
80001d60:	848d0000 	lh	t5,0(a0)
80001d64:	24a50001 	addiu	a1,a1,1
80001d68:	016d0018 	mult	t3,t5
80001d6c:	00b0482b 	sltu	t1,a1,s0
80001d70:	24630002 	addiu	v1,v1,2
80001d74:	009e2021 	addu	a0,a0,s8
80001d78:	00007012 	mflo	t6
80001d7c:	11200045 	beqz	t1,80001e94 <core_bench_matrix+0xc34>
80001d80:	004e1021 	addu	v0,v0,t6
80001d84:	846d0000 	lh	t5,0(v1)
80001d88:	848b0000 	lh	t3,0(a0)
80001d8c:	009e7821 	addu	t7,a0,s8
80001d90:	01ab0018 	mult	t5,t3
80001d94:	846a0002 	lh	t2,2(v1)
80001d98:	85e40000 	lh	a0,0(t7)
80001d9c:	01fe4021 	addu	t0,t7,s8
80001da0:	84690004 	lh	t1,4(v1)
80001da4:	850d0000 	lh	t5,0(t0)
80001da8:	846e0006 	lh	t6,6(v1)
80001dac:	011e6021 	addu	t4,t0,s8
80001db0:	afae0014 	sw	t6,20(sp)
80001db4:	858e0000 	lh	t6,0(t4)
80001db8:	019e7821 	addu	t7,t4,s8
80001dbc:	84680008 	lh	t0,8(v1)
80001dc0:	00005812 	mflo	t3
80001dc4:	004b1021 	addu	v0,v0,t3
80001dc8:	01fe6021 	addu	t4,t7,s8
80001dcc:	01440018 	mult	t2,a0
80001dd0:	85ef0000 	lh	t7,0(t7)
80001dd4:	afa80018 	sw	t0,24(sp)
80001dd8:	afaf001c 	sw	t7,28(sp)
80001ddc:	8468000a 	lh	t0,10(v1)
80001de0:	846f000c 	lh	t7,12(v1)
80001de4:	afa80020 	sw	t0,32(sp)
80001de8:	019e4021 	addu	t0,t4,s8
80001dec:	858c0000 	lh	t4,0(t4)
80001df0:	011e2021 	addu	a0,t0,s8
80001df4:	afac0024 	sw	t4,36(sp)
80001df8:	85080000 	lh	t0,0(t0)
80001dfc:	00005012 	mflo	t2
80001e00:	afa80028 	sw	t0,40(sp)
80001e04:	848c0000 	lh	t4,0(a0)
80001e08:	012d0018 	mult	t1,t5
80001e0c:	004a6821 	addu	t5,v0,t2
80001e10:	8faa0014 	lw	t2,20(sp)
80001e14:	8468000e 	lh	t0,14(v1)
80001e18:	24a50008 	addiu	a1,a1,8
80001e1c:	00b0582b 	sltu	t3,a1,s0
80001e20:	24630010 	addiu	v1,v1,16
80001e24:	009e2021 	addu	a0,a0,s8
80001e28:	00004812 	mflo	t1
80001e2c:	01a91021 	addu	v0,t5,t1
80001e30:	8fa90018 	lw	t1,24(sp)
80001e34:	014e0018 	mult	t2,t6
80001e38:	8fad001c 	lw	t5,28(sp)
80001e3c:	00007012 	mflo	t6
80001e40:	004e1021 	addu	v0,v0,t6
80001e44:	8fae0020 	lw	t6,32(sp)
80001e48:	012d0018 	mult	t1,t5
80001e4c:	8fa90024 	lw	t1,36(sp)
80001e50:	8fad0028 	lw	t5,40(sp)
80001e54:	00005012 	mflo	t2
80001e58:	004a5021 	addu	t2,v0,t2
80001e5c:	00000000 	nop
80001e60:	01c90018 	mult	t6,t1
80001e64:	00007012 	mflo	t6
80001e68:	014e1021 	addu	v0,t2,t6
80001e6c:	00000000 	nop
80001e70:	01ed0018 	mult	t7,t5
80001e74:	00007812 	mflo	t7
	...
80001e80:	010c0018 	mult	t0,t4
80001e84:	004f6021 	addu	t4,v0,t7
80001e88:	00004012 	mflo	t0
80001e8c:	1560ffbd 	bnez	t3,80001d84 <core_bench_matrix+0xb24>
80001e90:	01881021 	addu	v0,t4,t0
80001e94:	26b50001 	addiu	s5,s5,1
80001e98:	02b0282b 	sltu	a1,s5,s0
80001e9c:	aec20000 	sw	v0,0(s6)
80001ea0:	24e70002 	addiu	a3,a3,2
80001ea4:	14a0ff64 	bnez	a1,80001c38 <core_bench_matrix+0x9d8>
80001ea8:	26d60004 	addiu	s6,s6,4
80001eac:	266a0001 	addiu	t2,s3,1
80001eb0:	02e0b025 	move	s6,s7
80001eb4:	02403825 	move	a3,s2
80001eb8:	0150a82b 	sltu	s5,t2,s0
80001ebc:	03e0b825 	move	s7,ra
80001ec0:	02c09025 	move	s2,s6
80001ec4:	16a0ff51 	bnez	s5,80001c0c <core_bench_matrix+0x9ac>
80001ec8:	00f02821 	addu	a1,a3,s0
80001ecc:	0300a825 	move	s5,t8
80001ed0:	03e0b025 	move	s6,ra
80001ed4:	0320b825 	move	s7,t9
80001ed8:	00001825 	move	v1,zero
80001edc:	00002025 	move	a0,zero
80001ee0:	00004825 	move	t1,zero
80001ee4:	00002825 	move	a1,zero
80001ee8:	00001025 	move	v0,zero
80001eec:	0003c080 	sll	t8,v1,0x2
80001ef0:	02b8c821 	addu	t9,s5,t8
80001ef4:	01209825 	move	s3,t1
80001ef8:	8f290000 	lw	t1,0(t9)
80001efc:	261fffff 	addiu	ra,s0,-1
80001f00:	00a92821 	addu	a1,a1,t1
80001f04:	0225582a 	slt	t3,s1,a1
80001f08:	33ee0003 	andi	t6,ra,0x3
80001f0c:	116002b8 	beqz	t3,800029f0 <core_bench_matrix+0x1790>
80001f10:	3084ffff 	andi	a0,a0,0xffff
80001f14:	2488000a 	addiu	t0,a0,10
80001f18:	00086400 	sll	t4,t0,0x10
80001f1c:	000c2403 	sra	a0,t4,0x10
80001f20:	00002825 	move	a1,zero
80001f24:	24080001 	li	t0,1
80001f28:	0110302b 	sltu	a2,t0,s0
80001f2c:	10c00031 	beqz	a2,80001ff4 <core_bench_matrix+0xd94>
80001f30:	27270004 	addiu	a3,t9,4
80001f34:	11c001f4 	beqz	t6,80002708 <core_bench_matrix+0x14a8>
80001f38:	00000000 	nop
80001f3c:	11c8001e 	beq	t6,t0,80001fb8 <core_bench_matrix+0xd58>
80001f40:	00000000 	nop
80001f44:	24180002 	li	t8,2
80001f48:	11d8000f 	beq	t6,t8,80001f88 <core_bench_matrix+0xd28>
80001f4c:	01206825 	move	t5,t1
80001f50:	01209825 	move	s3,t1
80001f54:	8f290004 	lw	t1,4(t9)
80001f58:	00000000 	nop
80001f5c:	00a92821 	addu	a1,a1,t1
80001f60:	0225f82a 	slt	ra,s1,a1
80001f64:	13e002c2 	beqz	ra,80002a70 <core_bench_matrix+0x1810>
80001f68:	3099ffff 	andi	t9,a0,0xffff
80001f6c:	2725000a 	addiu	a1,t9,10
80001f70:	00055400 	sll	t2,a1,0x10
80001f74:	000a2403 	sra	a0,t2,0x10
80001f78:	00002825 	move	a1,zero
80001f7c:	25080001 	addiu	t0,t0,1
80001f80:	24e70004 	addiu	a3,a3,4
80001f84:	01206825 	move	t5,t1
80001f88:	8ce90000 	lw	t1,0(a3)
80001f8c:	00000000 	nop
80001f90:	00a92821 	addu	a1,a1,t1
80001f94:	0225602a 	slt	t4,s1,a1
80001f98:	11800275 	beqz	t4,80002970 <core_bench_matrix+0x1710>
80001f9c:	308fffff 	andi	t7,a0,0xffff
80001fa0:	25f9000a 	addiu	t9,t7,10
80001fa4:	0019fc00 	sll	ra,t9,0x10
80001fa8:	001f2403 	sra	a0,ra,0x10
80001fac:	00002825 	move	a1,zero
80001fb0:	25080001 	addiu	t0,t0,1
80001fb4:	24e70004 	addiu	a3,a3,4
80001fb8:	01205825 	move	t3,t1
80001fbc:	8ce90000 	lw	t1,0(a3)
80001fc0:	308effff 	andi	t6,a0,0xffff
80001fc4:	00a92821 	addu	a1,a1,t1
80001fc8:	0225202a 	slt	a0,s1,a1
80001fcc:	10800260 	beqz	a0,80002950 <core_bench_matrix+0x16f0>
80001fd0:	00000000 	nop
80001fd4:	25c5000a 	addiu	a1,t6,10
80001fd8:	00056400 	sll	t4,a1,0x10
80001fdc:	000c2403 	sra	a0,t4,0x10
80001fe0:	00002825 	move	a1,zero
80001fe4:	25080001 	addiu	t0,t0,1
80001fe8:	0110302b 	sltu	a2,t0,s0
80001fec:	14c001c6 	bnez	a2,80002708 <core_bench_matrix+0x14a8>
80001ff0:	24e70004 	addiu	a3,a3,4
80001ff4:	24420001 	addiu	v0,v0,1
80001ff8:	0050782b 	sltu	t7,v0,s0
80001ffc:	15e0ffbb 	bnez	t7,80001eec <core_bench_matrix+0xc8c>
80002000:	00701821 	addu	v1,v1,s0
80002004:	0c001f5c 	jal	80007d70 <crc16>
80002008:	02802825 	move	a1,s4
8000200c:	00402825 	move	a1,v0
80002010:	0000c025 	move	t8,zero
80002014:	00009825 	move	s3,zero
80002018:	0018a080 	sll	s4,t8,0x2
8000201c:	00183040 	sll	a2,t8,0x1
80002020:	02b44821 	addu	t1,s5,s4
80002024:	02e63821 	addu	a3,s7,a2
80002028:	02c05025 	move	t2,s6
8000202c:	00005825 	move	t3,zero
80002030:	84f90000 	lh	t9,0(a3)
80002034:	855f0000 	lh	ra,0(t2)
80002038:	24060001 	li	a2,1
8000203c:	033f0018 	mult	t9,ra
80002040:	2604ffff 	addiu	a0,s0,-1
80002044:	00d0682b 	sltu	t5,a2,s0
80002048:	308c0003 	andi	t4,a0,0x3
8000204c:	015e1021 	addu	v0,t2,s8
80002050:	00007012 	mflo	t6
80002054:	000e7883 	sra	t7,t6,0x2
80002058:	000e4143 	sra	t0,t6,0x5
8000205c:	31e3000f 	andi	v1,t7,0xf
80002060:	3114007f 	andi	s4,t0,0x7f
80002064:	00740018 	mult	v1,s4
80002068:	00001812 	mflo	v1
8000206c:	11a00074 	beqz	t5,80002240 <core_bench_matrix+0xfe0>
80002070:	24e40002 	addiu	a0,a3,2
80002074:	11800031 	beqz	t4,8000213c <core_bench_matrix+0xedc>
80002078:	00000000 	nop
8000207c:	1186001f 	beq	t4,a2,800020fc <core_bench_matrix+0xe9c>
80002080:	24190002 	li	t9,2
80002084:	1199000f 	beq	t4,t9,800020c4 <core_bench_matrix+0xe64>
80002088:	00000000 	nop
8000208c:	845f0000 	lh	ra,0(v0)
80002090:	84ee0002 	lh	t6,2(a3)
80002094:	24060002 	li	a2,2
80002098:	01df0018 	mult	t6,ra
8000209c:	24e40004 	addiu	a0,a3,4
800020a0:	005e1021 	addu	v0,v0,s8
800020a4:	00006812 	mflo	t5
800020a8:	000d6083 	sra	t4,t5,0x2
800020ac:	000d7943 	sra	t7,t5,0x5
800020b0:	3194000f 	andi	s4,t4,0xf
800020b4:	31e8007f 	andi	t0,t7,0x7f
800020b8:	02880018 	mult	s4,t0
800020bc:	0000c812 	mflo	t9
800020c0:	00791821 	addu	v1,v1,t9
800020c4:	849f0000 	lh	ra,0(a0)
800020c8:	844e0000 	lh	t6,0(v0)
800020cc:	24c60001 	addiu	a2,a2,1
800020d0:	03ee0018 	mult	ra,t6
800020d4:	24840002 	addiu	a0,a0,2
800020d8:	005e1021 	addu	v0,v0,s8
800020dc:	00006812 	mflo	t5
800020e0:	000d6083 	sra	t4,t5,0x2
800020e4:	000d7943 	sra	t7,t5,0x5
800020e8:	3194000f 	andi	s4,t4,0xf
800020ec:	31e8007f 	andi	t0,t7,0x7f
800020f0:	02880018 	mult	s4,t0
800020f4:	0000c812 	mflo	t9
800020f8:	00791821 	addu	v1,v1,t9
800020fc:	849f0000 	lh	ra,0(a0)
80002100:	844e0000 	lh	t6,0(v0)
80002104:	24c60001 	addiu	a2,a2,1
80002108:	03ee0018 	mult	ra,t6
8000210c:	00d0682b 	sltu	t5,a2,s0
80002110:	24840002 	addiu	a0,a0,2
80002114:	005e1021 	addu	v0,v0,s8
80002118:	00007812 	mflo	t7
8000211c:	000f6083 	sra	t4,t7,0x2
80002120:	000fa143 	sra	s4,t7,0x5
80002124:	3199000f 	andi	t9,t4,0xf
80002128:	3288007f 	andi	t0,s4,0x7f
8000212c:	03280018 	mult	t9,t0
80002130:	0000f812 	mflo	ra
80002134:	11a00042 	beqz	t5,80002240 <core_bench_matrix+0xfe0>
80002138:	007f1821 	addu	v1,v1,ra
8000213c:	005e7021 	addu	t6,v0,s8
80002140:	848f0000 	lh	t7,0(a0)
80002144:	84420000 	lh	v0,0(v0)
80002148:	84940002 	lh	s4,2(a0)
8000214c:	01e20018 	mult	t7,v0
80002150:	85cc0000 	lh	t4,0(t6)
80002154:	01de6821 	addu	t5,t6,s8
80002158:	849f0004 	lh	ra,4(a0)
8000215c:	85ae0000 	lh	t6,0(t5)
80002160:	01be1021 	addu	v0,t5,s8
80002164:	848f0006 	lh	t7,6(a0)
80002168:	844d0000 	lh	t5,0(v0)
8000216c:	24c60004 	addiu	a2,a2,4
80002170:	00d0c82b 	sltu	t9,a2,s0
80002174:	24840008 	addiu	a0,a0,8
80002178:	005e1021 	addu	v0,v0,s8
8000217c:	00004012 	mflo	t0
	...
80002188:	028c0018 	mult	s4,t4
8000218c:	0008a083 	sra	s4,t0,0x2
80002190:	00084143 	sra	t0,t0,0x5
80002194:	3294000f 	andi	s4,s4,0xf
80002198:	3108007f 	andi	t0,t0,0x7f
8000219c:	00006012 	mflo	t4
	...
800021a8:	03ee0018 	mult	ra,t6
800021ac:	000cf883 	sra	ra,t4,0x2
800021b0:	000c6143 	sra	t4,t4,0x5
800021b4:	33ff000f 	andi	ra,ra,0xf
800021b8:	318c007f 	andi	t4,t4,0x7f
800021bc:	00007012 	mflo	t6
	...
800021c8:	01ed0018 	mult	t7,t5
800021cc:	000e7883 	sra	t7,t6,0x2
800021d0:	000e7143 	sra	t6,t6,0x5
800021d4:	31ef000f 	andi	t7,t7,0xf
800021d8:	31ce007f 	andi	t6,t6,0x7f
800021dc:	00006812 	mflo	t5
	...
800021e8:	02880018 	mult	s4,t0
800021ec:	000da083 	sra	s4,t5,0x2
800021f0:	000d6943 	sra	t5,t5,0x5
800021f4:	3294000f 	andi	s4,s4,0xf
800021f8:	31ad007f 	andi	t5,t5,0x7f
800021fc:	00004012 	mflo	t0
	...
80002208:	03ec0018 	mult	ra,t4
8000220c:	00686021 	addu	t4,v1,t0
80002210:	0000f812 	mflo	ra
	...
8000221c:	01ee0018 	mult	t7,t6
80002220:	019f7821 	addu	t7,t4,ra
80002224:	00001812 	mflo	v1
80002228:	01e34021 	addu	t0,t7,v1
8000222c:	00000000 	nop
80002230:	028d0018 	mult	s4,t5
80002234:	00007012 	mflo	t6
80002238:	1720ffc0 	bnez	t9,8000213c <core_bench_matrix+0xedc>
8000223c:	010e1821 	addu	v1,t0,t6
80002240:	256b0001 	addiu	t3,t3,1
80002244:	0170302b 	sltu	a2,t3,s0
80002248:	ad230000 	sw	v1,0(t1)
8000224c:	254a0002 	addiu	t2,t2,2
80002250:	14c0ff77 	bnez	a2,80002030 <core_bench_matrix+0xdd0>
80002254:	25290004 	addiu	t1,t1,4
80002258:	26730001 	addiu	s3,s3,1
8000225c:	0270482b 	sltu	t1,s3,s0
80002260:	1520ff6d 	bnez	t1,80002018 <core_bench_matrix+0xdb8>
80002264:	0310c021 	addu	t8,t8,s0
80002268:	00003025 	move	a2,zero
8000226c:	00002025 	move	a0,zero
80002270:	00004825 	move	t1,zero
80002274:	00001025 	move	v0,zero
80002278:	00001825 	move	v1,zero
8000227c:	0006f080 	sll	s8,a2,0x2
80002280:	02beb021 	addu	s6,s5,s8
80002284:	0120c025 	move	t8,t1
80002288:	8ec90000 	lw	t1,0(s6)
8000228c:	2613ffff 	addiu	s3,s0,-1
80002290:	00491021 	addu	v0,v0,t1
80002294:	0222502a 	slt	t2,s1,v0
80002298:	32670003 	andi	a3,s3,0x3
8000229c:	114001a4 	beqz	t2,80002930 <core_bench_matrix+0x16d0>
800022a0:	308bffff 	andi	t3,a0,0xffff
800022a4:	2562000a 	addiu	v0,t3,10
800022a8:	00026c00 	sll	t5,v0,0x10
800022ac:	000d2403 	sra	a0,t5,0x10
800022b0:	00001025 	move	v0,zero
800022b4:	240a0001 	li	t2,1
800022b8:	0150f82b 	sltu	ra,t2,s0
800022bc:	13e00031 	beqz	ra,80002384 <core_bench_matrix+0x1124>
800022c0:	26c80004 	addiu	t0,s6,4
800022c4:	10e0015f 	beqz	a3,80002844 <core_bench_matrix+0x15e4>
800022c8:	00000000 	nop
800022cc:	10ea001e 	beq	a3,t2,80002348 <core_bench_matrix+0x10e8>
800022d0:	00000000 	nop
800022d4:	240c0002 	li	t4,2
800022d8:	10ec000f 	beq	a3,t4,80002318 <core_bench_matrix+0x10b8>
800022dc:	0120c825 	move	t9,t1
800022e0:	01207825 	move	t7,t1
800022e4:	8ec90004 	lw	t1,4(s6)
800022e8:	00000000 	nop
800022ec:	00491021 	addu	v0,v0,t1
800022f0:	0222f02a 	slt	s8,s1,v0
800022f4:	13c001d6 	beqz	s8,80002a50 <core_bench_matrix+0x17f0>
800022f8:	308effff 	andi	t6,a0,0xffff
800022fc:	25c7000a 	addiu	a3,t6,10
80002300:	00075c00 	sll	t3,a3,0x10
80002304:	000b2403 	sra	a0,t3,0x10
80002308:	00001025 	move	v0,zero
8000230c:	254a0001 	addiu	t2,t2,1
80002310:	25080004 	addiu	t0,t0,4
80002314:	0120c825 	move	t9,t1
80002318:	8d090000 	lw	t1,0(t0)
8000231c:	00000000 	nop
80002320:	00491021 	addu	v0,v0,t1
80002324:	0222a02a 	slt	s4,s1,v0
80002328:	12800171 	beqz	s4,800028f0 <core_bench_matrix+0x1690>
8000232c:	3084ffff 	andi	a0,a0,0xffff
80002330:	2482000a 	addiu	v0,a0,10
80002334:	00027c00 	sll	t7,v0,0x10
80002338:	000f2403 	sra	a0,t7,0x10
8000233c:	00001025 	move	v0,zero
80002340:	254a0001 	addiu	t2,t2,1
80002344:	25080004 	addiu	t0,t0,4
80002348:	01207025 	move	t6,t1
8000234c:	8d090000 	lw	t1,0(t0)
80002350:	00000000 	nop
80002354:	00491021 	addu	v0,v0,t1
80002358:	0222b02a 	slt	s6,s1,v0
8000235c:	12c0018c 	beqz	s6,80002990 <core_bench_matrix+0x1730>
80002360:	309effff 	andi	s8,a0,0xffff
80002364:	27cb000a 	addiu	t3,s8,10
80002368:	000bcc00 	sll	t9,t3,0x10
8000236c:	00192403 	sra	a0,t9,0x10
80002370:	00001025 	move	v0,zero
80002374:	254a0001 	addiu	t2,t2,1
80002378:	0150a02b 	sltu	s4,t2,s0
8000237c:	16800131 	bnez	s4,80002844 <core_bench_matrix+0x15e4>
80002380:	25080004 	addiu	t0,t0,4
80002384:	24630001 	addiu	v1,v1,1
80002388:	0070702b 	sltu	t6,v1,s0
8000238c:	15c0ffbb 	bnez	t6,8000227c <core_bench_matrix+0x101c>
80002390:	00d03021 	addu	a2,a2,s0
80002394:	0c001f5c 	jal	80007d70 <crc16>
80002398:	00008825 	move	s1,zero
8000239c:	0000a825 	move	s5,zero
800023a0:	00112840 	sll	a1,s1,0x1
800023a4:	02e5f021 	addu	s8,s7,a1
800023a8:	97d60000 	lhu	s6,0(s8)
800023ac:	24050001 	li	a1,1
800023b0:	2618ffff 	addiu	t8,s0,-1
800023b4:	02d23823 	subu	a3,s6,s2
800023b8:	00b0c82b 	sltu	t9,a1,s0
800023bc:	33140007 	andi	s4,t8,0x7
800023c0:	a7c70000 	sh	a3,0(s8)
800023c4:	13200053 	beqz	t9,80002514 <core_bench_matrix+0x12b4>
800023c8:	27c30002 	addiu	v1,s8,2
800023cc:	12800035 	beqz	s4,800024a4 <core_bench_matrix+0x1244>
800023d0:	00000000 	nop
800023d4:	1285002c 	beq	s4,a1,80002488 <core_bench_matrix+0x1228>
800023d8:	24090002 	li	t1,2
800023dc:	12890025 	beq	s4,t1,80002474 <core_bench_matrix+0x1214>
800023e0:	240b0003 	li	t3,3
800023e4:	128b001e 	beq	s4,t3,80002460 <core_bench_matrix+0x1200>
800023e8:	00000000 	nop
800023ec:	240d0004 	li	t5,4
800023f0:	128d0016 	beq	s4,t5,8000244c <core_bench_matrix+0x11ec>
800023f4:	00000000 	nop
800023f8:	24040005 	li	a0,5
800023fc:	1284000e 	beq	s4,a0,80002438 <core_bench_matrix+0x11d8>
80002400:	00000000 	nop
80002404:	241f0006 	li	ra,6
80002408:	129f0006 	beq	s4,ra,80002424 <core_bench_matrix+0x11c4>
8000240c:	00000000 	nop
80002410:	97cc0002 	lhu	t4,2(s8)
80002414:	24050002 	li	a1,2
80002418:	01927823 	subu	t7,t4,s2
8000241c:	a7cf0002 	sh	t7,2(s8)
80002420:	27c30004 	addiu	v1,s8,4
80002424:	946a0000 	lhu	t2,0(v1)
80002428:	24a50001 	addiu	a1,a1,1
8000242c:	01529823 	subu	s3,t2,s2
80002430:	a4730000 	sh	s3,0(v1)
80002434:	24630002 	addiu	v1,v1,2
80002438:	94680000 	lhu	t0,0(v1)
8000243c:	24a50001 	addiu	a1,a1,1
80002440:	01127023 	subu	t6,t0,s2
80002444:	a46e0000 	sh	t6,0(v1)
80002448:	24630002 	addiu	v1,v1,2
8000244c:	94660000 	lhu	a2,0(v1)
80002450:	24a50001 	addiu	a1,a1,1
80002454:	00d2f023 	subu	s8,a2,s2
80002458:	a47e0000 	sh	s8,0(v1)
8000245c:	24630002 	addiu	v1,v1,2
80002460:	94760000 	lhu	s6,0(v1)
80002464:	24a50001 	addiu	a1,a1,1
80002468:	02d2c023 	subu	t8,s6,s2
8000246c:	a4780000 	sh	t8,0(v1)
80002470:	24630002 	addiu	v1,v1,2
80002474:	94670000 	lhu	a3,0(v1)
80002478:	24a50001 	addiu	a1,a1,1
8000247c:	00f2c823 	subu	t9,a3,s2
80002480:	a4790000 	sh	t9,0(v1)
80002484:	24630002 	addiu	v1,v1,2
80002488:	94740000 	lhu	s4,0(v1)
8000248c:	24a50001 	addiu	a1,a1,1
80002490:	02924823 	subu	t1,s4,s2
80002494:	00b0582b 	sltu	t3,a1,s0
80002498:	a4690000 	sh	t1,0(v1)
8000249c:	1160001d 	beqz	t3,80002514 <core_bench_matrix+0x12b4>
800024a0:	24630002 	addiu	v1,v1,2
800024a4:	94640000 	lhu	a0,0(v1)
800024a8:	946d0002 	lhu	t5,2(v1)
800024ac:	947f0004 	lhu	ra,4(v1)
800024b0:	946f0006 	lhu	t7,6(v1)
800024b4:	946a0008 	lhu	t2,8(v1)
800024b8:	9473000a 	lhu	s3,10(v1)
800024bc:	9468000c 	lhu	t0,12(v1)
800024c0:	9466000e 	lhu	a2,14(v1)
800024c4:	24a50008 	addiu	a1,a1,8
800024c8:	00927023 	subu	t6,a0,s2
800024cc:	01b2f023 	subu	s8,t5,s2
800024d0:	03f26023 	subu	t4,ra,s2
800024d4:	01f2b023 	subu	s6,t7,s2
800024d8:	0152c023 	subu	t8,t2,s2
800024dc:	0272c823 	subu	t9,s3,s2
800024e0:	01123823 	subu	a3,t0,s2
800024e4:	00d2a023 	subu	s4,a2,s2
800024e8:	00b0482b 	sltu	t1,a1,s0
800024ec:	a46e0000 	sh	t6,0(v1)
800024f0:	a47e0002 	sh	s8,2(v1)
800024f4:	a46c0004 	sh	t4,4(v1)
800024f8:	a4760006 	sh	s6,6(v1)
800024fc:	a4780008 	sh	t8,8(v1)
80002500:	a479000a 	sh	t9,10(v1)
80002504:	a467000c 	sh	a3,12(v1)
80002508:	a474000e 	sh	s4,14(v1)
8000250c:	1520ffe5 	bnez	t1,800024a4 <core_bench_matrix+0x1244>
80002510:	24630010 	addiu	v1,v1,16
80002514:	26b50001 	addiu	s5,s5,1
80002518:	02b0282b 	sltu	a1,s5,s0
8000251c:	14a0ffa0 	bnez	a1,800023a0 <core_bench_matrix+0x1140>
80002520:	02308821 	addu	s1,s1,s0
80002524:	00028400 	sll	s0,v0,0x10
80002528:	8fa50010 	lw	a1,16(sp)
8000252c:	8fbf0054 	lw	ra,84(sp)
80002530:	8fbe0050 	lw	s8,80(sp)
80002534:	8fb7004c 	lw	s7,76(sp)
80002538:	8fb60048 	lw	s6,72(sp)
8000253c:	8fb50044 	lw	s5,68(sp)
80002540:	8fb40040 	lw	s4,64(sp)
80002544:	8fb3003c 	lw	s3,60(sp)
80002548:	8fb20038 	lw	s2,56(sp)
8000254c:	8fb10034 	lw	s1,52(sp)
80002550:	00102403 	sra	a0,s0,0x10
80002554:	8fb00030 	lw	s0,48(sp)
80002558:	08001f5c 	j	80007d70 <crc16>
8000255c:	27bd0058 	addiu	sp,sp,88
80002560:	8cf30004 	lw	s3,4(a3)
80002564:	0159502a 	slt	t2,t2,t9
80002568:	030af821 	addu	ra,t8,t2
8000256c:	001f6400 	sll	t4,ra,0x10
80002570:	01737021 	addu	t6,t3,s3
80002574:	000c2403 	sra	a0,t4,0x10
80002578:	252d0001 	addiu	t5,t1,1
8000257c:	022e482a 	slt	t1,s1,t6
80002580:	24e70004 	addiu	a3,a3,4
80002584:	1120002c 	beqz	t1,80002638 <core_bench_matrix+0x13d8>
80002588:	3086ffff 	andi	a2,a0,0xffff
8000258c:	8cf40004 	lw	s4,4(a3)
80002590:	24df000a 	addiu	ra,a2,10
80002594:	00007025 	move	t6,zero
80002598:	001f6400 	sll	t4,ra,0x10
8000259c:	01d44021 	addu	t0,t6,s4
800025a0:	000c5403 	sra	t2,t4,0x10
800025a4:	0228582a 	slt	t3,s1,t0
800025a8:	1160002c 	beqz	t3,8000265c <core_bench_matrix+0x13fc>
800025ac:	3144ffff 	andi	a0,t2,0xffff
800025b0:	8cea0008 	lw	t2,8(a3)
800025b4:	2499000a 	addiu	t9,a0,10
800025b8:	00004025 	move	t0,zero
800025bc:	0019c400 	sll	t8,t9,0x10
800025c0:	010a4021 	addu	t0,t0,t2
800025c4:	00183403 	sra	a2,t8,0x10
800025c8:	0228f82a 	slt	ra,s1,t0
800025cc:	13e0002c 	beqz	ra,80002680 <core_bench_matrix+0x1420>
800025d0:	30cfffff 	andi	t7,a2,0xffff
800025d4:	25eb000a 	addiu	t3,t7,10
800025d8:	000b9c00 	sll	s3,t3,0x10
800025dc:	00132403 	sra	a0,s3,0x10
800025e0:	00004025 	move	t0,zero
800025e4:	25a90003 	addiu	t1,t5,3
800025e8:	0130682b 	sltu	t5,t1,s0
800025ec:	11a0fd7b 	beqz	t5,80001bdc <core_bench_matrix+0x97c>
800025f0:	24e7000c 	addiu	a3,a3,12
800025f4:	8cf90000 	lw	t9,0(a3)
800025f8:	00000000 	nop
800025fc:	01195821 	addu	t3,t0,t9
80002600:	022b782a 	slt	t7,s1,t3
80002604:	11e0ffd6 	beqz	t7,80002560 <core_bench_matrix+0x1300>
80002608:	3098ffff 	andi	t8,a0,0xffff
8000260c:	8cf30004 	lw	s3,4(a3)
80002610:	2708000a 	addiu	t0,t8,10
80002614:	00005825 	move	t3,zero
80002618:	0008a400 	sll	s4,t0,0x10
8000261c:	01737021 	addu	t6,t3,s3
80002620:	00142403 	sra	a0,s4,0x10
80002624:	252d0001 	addiu	t5,t1,1
80002628:	022e482a 	slt	t1,s1,t6
8000262c:	24e70004 	addiu	a3,a3,4
80002630:	1520ffd6 	bnez	t1,8000258c <core_bench_matrix+0x132c>
80002634:	3086ffff 	andi	a2,a0,0xffff
80002638:	8cf40004 	lw	s4,4(a3)
8000263c:	0333c82a 	slt	t9,t9,s3
80002640:	00d9c021 	addu	t8,a2,t9
80002644:	00187c00 	sll	t7,t8,0x10
80002648:	01d44021 	addu	t0,t6,s4
8000264c:	000f5403 	sra	t2,t7,0x10
80002650:	0228582a 	slt	t3,s1,t0
80002654:	1560ffd6 	bnez	t3,800025b0 <core_bench_matrix+0x1350>
80002658:	3144ffff 	andi	a0,t2,0xffff
8000265c:	8cea0008 	lw	t2,8(a3)
80002660:	0274982a 	slt	s3,s3,s4
80002664:	00937021 	addu	t6,a0,s3
80002668:	000e4c00 	sll	t1,t6,0x10
8000266c:	010a4021 	addu	t0,t0,t2
80002670:	00093403 	sra	a2,t1,0x10
80002674:	0228f82a 	slt	ra,s1,t0
80002678:	17e0ffd6 	bnez	ra,800025d4 <core_bench_matrix+0x1374>
8000267c:	30cfffff 	andi	t7,a2,0xffff
80002680:	028a602a 	slt	t4,s4,t2
80002684:	01eca021 	addu	s4,t7,t4
80002688:	00142400 	sll	a0,s4,0x10
8000268c:	1000ffd5 	b	800025e4 <core_bench_matrix+0x1384>
80002690:	00042403 	sra	a0,a0,0x10
	...
800026a0:	8cee0004 	lw	t6,4(a3)
800026a4:	24df000a 	addiu	ra,a2,10
800026a8:	00002825 	move	a1,zero
800026ac:	001f5c00 	sll	t3,ra,0x10
800026b0:	00ae6821 	addu	t5,a1,t6
800026b4:	000b4c03 	sra	t1,t3,0x10
800026b8:	022d502a 	slt	t2,s1,t5
800026bc:	1140002c 	beqz	t2,80002770 <core_bench_matrix+0x1510>
800026c0:	3124ffff 	andi	a0,t1,0xffff
800026c4:	8ce90008 	lw	t1,8(a3)
800026c8:	2498000a 	addiu	t8,a0,10
800026cc:	00006825 	move	t5,zero
800026d0:	00189c00 	sll	s3,t8,0x10
800026d4:	01a92821 	addu	a1,t5,t1
800026d8:	00133403 	sra	a2,s3,0x10
800026dc:	0225f82a 	slt	ra,s1,a1
800026e0:	13e0002c 	beqz	ra,80002794 <core_bench_matrix+0x1534>
800026e4:	30d9ffff 	andi	t9,a2,0xffff
800026e8:	272d000a 	addiu	t5,t9,10
800026ec:	000d5400 	sll	t2,t5,0x10
800026f0:	000a2403 	sra	a0,t2,0x10
800026f4:	00002825 	move	a1,zero
800026f8:	25880003 	addiu	t0,t4,3
800026fc:	0110602b 	sltu	t4,t0,s0
80002700:	1180fe3c 	beqz	t4,80001ff4 <core_bench_matrix+0xd94>
80002704:	24e7000c 	addiu	a3,a3,12
80002708:	8cf80000 	lw	t8,0(a3)
8000270c:	00000000 	nop
80002710:	00b86821 	addu	t5,a1,t8
80002714:	022dc82a 	slt	t9,s1,t5
80002718:	1720007d 	bnez	t9,80002910 <core_bench_matrix+0x16b0>
8000271c:	3093ffff 	andi	s3,a0,0xffff
80002720:	0138482a 	slt	t1,t1,t8
80002724:	0269f821 	addu	ra,s3,t1
80002728:	001f5c00 	sll	t3,ra,0x10
8000272c:	000b5403 	sra	t2,t3,0x10
80002730:	8cef0004 	lw	t7,4(a3)
80002734:	250c0001 	addiu	t4,t0,1
80002738:	01af2821 	addu	a1,t5,t7
8000273c:	0225402a 	slt	t0,s1,a1
80002740:	24e70004 	addiu	a3,a3,4
80002744:	1500ffd6 	bnez	t0,800026a0 <core_bench_matrix+0x1440>
80002748:	3146ffff 	andi	a2,t2,0xffff
8000274c:	8cee0004 	lw	t6,4(a3)
80002750:	030fc02a 	slt	t8,t8,t7
80002754:	00d89821 	addu	s3,a2,t8
80002758:	0013cc00 	sll	t9,s3,0x10
8000275c:	00ae6821 	addu	t5,a1,t6
80002760:	00194c03 	sra	t1,t9,0x10
80002764:	022d502a 	slt	t2,s1,t5
80002768:	1540ffd6 	bnez	t2,800026c4 <core_bench_matrix+0x1464>
8000276c:	3124ffff 	andi	a0,t1,0xffff
80002770:	8ce90008 	lw	t1,8(a3)
80002774:	01ee782a 	slt	t7,t7,t6
80002778:	008f2821 	addu	a1,a0,t7
8000277c:	00054400 	sll	t0,a1,0x10
80002780:	01a92821 	addu	a1,t5,t1
80002784:	00083403 	sra	a2,t0,0x10
80002788:	0225f82a 	slt	ra,s1,a1
8000278c:	17e0ffd6 	bnez	ra,800026e8 <core_bench_matrix+0x1488>
80002790:	30d9ffff 	andi	t9,a2,0xffff
80002794:	01c9582a 	slt	t3,t6,t1
80002798:	032b7021 	addu	t6,t9,t3
8000279c:	000e2400 	sll	a0,t6,0x10
800027a0:	1000ffd5 	b	800026f8 <core_bench_matrix+0x1498>
800027a4:	00042403 	sra	a0,a0,0x10
	...
800027b0:	8d180004 	lw	t8,4(t0)
800027b4:	012d482a 	slt	t1,t1,t5
800027b8:	00896021 	addu	t4,a0,t1
800027bc:	000c7c00 	sll	t7,t4,0x10
800027c0:	02d83821 	addu	a3,s6,t8
800027c4:	000ff403 	sra	s8,t7,0x10
800027c8:	25530001 	addiu	s3,t2,1
800027cc:	0227502a 	slt	t2,s1,a3
800027d0:	25080004 	addiu	t0,t0,4
800027d4:	1140002c 	beqz	t2,80002888 <core_bench_matrix+0x1628>
800027d8:	33d9ffff 	andi	t9,s8,0xffff
800027dc:	8d0c0004 	lw	t4,4(t0)
800027e0:	273f000a 	addiu	ra,t9,10
800027e4:	00003825 	move	a3,zero
800027e8:	001f4c00 	sll	t1,ra,0x10
800027ec:	00ec1021 	addu	v0,a3,t4
800027f0:	00092403 	sra	a0,t1,0x10
800027f4:	0222702a 	slt	t6,s1,v0
800027f8:	11c0002c 	beqz	t6,800028ac <core_bench_matrix+0x164c>
800027fc:	308fffff 	andi	t7,a0,0xffff
80002800:	8d090008 	lw	t1,8(t0)
80002804:	25ea000a 	addiu	t2,t7,10
80002808:	00001025 	move	v0,zero
8000280c:	000acc00 	sll	t9,t2,0x10
80002810:	00491021 	addu	v0,v0,t1
80002814:	00193c03 	sra	a3,t9,0x10
80002818:	0222582a 	slt	t3,s1,v0
8000281c:	1160002c 	beqz	t3,800028d0 <core_bench_matrix+0x1670>
80002820:	30f4ffff 	andi	s4,a3,0xffff
80002824:	268c000a 	addiu	t4,s4,10
80002828:	000c7c00 	sll	t7,t4,0x10
8000282c:	000f2403 	sra	a0,t7,0x10
80002830:	00001025 	move	v0,zero
80002834:	266a0003 	addiu	t2,s3,3
80002838:	0150982b 	sltu	s3,t2,s0
8000283c:	1260fed1 	beqz	s3,80002384 <core_bench_matrix+0x1124>
80002840:	2508000c 	addiu	t0,t0,12
80002844:	8d0d0000 	lw	t5,0(t0)
80002848:	00000000 	nop
8000284c:	004db021 	addu	s6,v0,t5
80002850:	0236f82a 	slt	ra,s1,s6
80002854:	13e0ffd6 	beqz	ra,800027b0 <core_bench_matrix+0x1550>
80002858:	3084ffff 	andi	a0,a0,0xffff
8000285c:	8d180004 	lw	t8,4(t0)
80002860:	2482000a 	addiu	v0,a0,10
80002864:	0000b025 	move	s6,zero
80002868:	00027400 	sll	t6,v0,0x10
8000286c:	02d83821 	addu	a3,s6,t8
80002870:	000ef403 	sra	s8,t6,0x10
80002874:	25530001 	addiu	s3,t2,1
80002878:	0227502a 	slt	t2,s1,a3
8000287c:	25080004 	addiu	t0,t0,4
80002880:	1540ffd6 	bnez	t2,800027dc <core_bench_matrix+0x157c>
80002884:	33d9ffff 	andi	t9,s8,0xffff
80002888:	01b8582a 	slt	t3,t5,t8
8000288c:	8d0c0004 	lw	t4,4(t0)
80002890:	032ba021 	addu	s4,t9,t3
80002894:	00146c00 	sll	t5,s4,0x10
80002898:	00ec1021 	addu	v0,a3,t4
8000289c:	000d2403 	sra	a0,t5,0x10
800028a0:	0222702a 	slt	t6,s1,v0
800028a4:	15c0ffd6 	bnez	t6,80002800 <core_bench_matrix+0x15a0>
800028a8:	308fffff 	andi	t7,a0,0xffff
800028ac:	030cf02a 	slt	s8,t8,t4
800028b0:	8d090008 	lw	t1,8(t0)
800028b4:	01feb021 	addu	s6,t7,s8
800028b8:	0016c400 	sll	t8,s6,0x10
800028bc:	00491021 	addu	v0,v0,t1
800028c0:	00183c03 	sra	a3,t8,0x10
800028c4:	0222582a 	slt	t3,s1,v0
800028c8:	1560ffd6 	bnez	t3,80002824 <core_bench_matrix+0x15c4>
800028cc:	30f4ffff 	andi	s4,a3,0xffff
800028d0:	0189682a 	slt	t5,t4,t1
800028d4:	028d2021 	addu	a0,s4,t5
800028d8:	0004fc00 	sll	ra,a0,0x10
800028dc:	1000ffd5 	b	80002834 <core_bench_matrix+0x15d4>
800028e0:	001f2403 	sra	a0,ra,0x10
	...
800028f0:	0329682a 	slt	t5,t9,t1
800028f4:	008df821 	addu	ra,a0,t5
800028f8:	001f6400 	sll	t4,ra,0x10
800028fc:	1000fe90 	b	80002340 <core_bench_matrix+0x10e0>
80002900:	000c2403 	sra	a0,t4,0x10
	...
80002910:	266e000a 	addiu	t6,s3,10
80002914:	000e2400 	sll	a0,t6,0x10
80002918:	00045403 	sra	t2,a0,0x10
8000291c:	1000ff84 	b	80002730 <core_bench_matrix+0x14d0>
80002920:	00006825 	move	t5,zero
	...
80002930:	0309202a 	slt	a0,t8,t1
80002934:	0164c821 	addu	t9,t3,a0
80002938:	0019a400 	sll	s4,t9,0x10
8000293c:	1000fe5d 	b	800022b4 <core_bench_matrix+0x1054>
80002940:	00142403 	sra	a0,s4,0x10
	...
80002950:	0169502a 	slt	t2,t3,t1
80002954:	01ca6821 	addu	t5,t6,t2
80002958:	000d7c00 	sll	t7,t5,0x10
8000295c:	1000fda1 	b	80001fe4 <core_bench_matrix+0xd84>
80002960:	000f2403 	sra	a0,t7,0x10
	...
80002970:	01a9302a 	slt	a2,t5,t1
80002974:	01e6c021 	addu	t8,t7,a2
80002978:	00189c00 	sll	s3,t8,0x10
8000297c:	1000fd8c 	b	80001fb0 <core_bench_matrix+0xd50>
80002980:	00132403 	sra	a0,s3,0x10
	...
80002990:	01c9c02a 	slt	t8,t6,t1
80002994:	03d89821 	addu	s3,s8,t8
80002998:	00133c00 	sll	a3,s3,0x10
8000299c:	1000fe75 	b	80002374 <core_bench_matrix+0x1114>
800029a0:	00072403 	sra	a0,a3,0x10
	...
800029b0:	026a302a 	slt	a2,s3,t2
800029b4:	01a6c821 	addu	t9,t5,a2
800029b8:	0019c400 	sll	t8,t9,0x10
800029bc:	1000fc76 	b	80001b98 <core_bench_matrix+0x938>
800029c0:	00182403 	sra	a0,t8,0x10
	...
800029d0:	01ea582a 	slt	t3,t7,t2
800029d4:	008b9821 	addu	s3,a0,t3
800029d8:	00134c00 	sll	t1,s3,0x10
800029dc:	1000fc4c 	b	80001b10 <core_bench_matrix+0x8b0>
800029e0:	00092403 	sra	a0,t1,0x10
	...
800029f0:	0269502a 	slt	t2,s3,t1
800029f4:	008a6821 	addu	t5,a0,t2
800029f8:	000d7c00 	sll	t7,t5,0x10
800029fc:	1000fd49 	b	80001f24 <core_bench_matrix+0xcc4>
80002a00:	000f2403 	sra	a0,t7,0x10
	...
80002a10:	03ea202a 	slt	a0,ra,t2
80002a14:	01845821 	addu	t3,t4,a0
80002a18:	000b9c00 	sll	s3,t3,0x10
80002a1c:	1000fc6b 	b	80001bcc <core_bench_matrix+0x96c>
80002a20:	00132403 	sra	a0,s3,0x10
	...
80002a30:	032af82a 	slt	ra,t9,t2
80002a34:	031f6021 	addu	t4,t8,ra
80002a38:	000ca400 	sll	s4,t4,0x10
80002a3c:	1000fc49 	b	80001b64 <core_bench_matrix+0x904>
80002a40:	00142403 	sra	a0,s4,0x10
	...
80002a50:	01e9b02a 	slt	s6,t7,t1
80002a54:	01d6c021 	addu	t8,t6,s6
80002a58:	00189c00 	sll	s3,t8,0x10
80002a5c:	1000fe2b 	b	8000230c <core_bench_matrix+0x10ac>
80002a60:	00132403 	sra	a0,s3,0x10
	...
80002a70:	0269582a 	slt	t3,s3,t1
80002a74:	032b7021 	addu	t6,t9,t3
80002a78:	000e2400 	sll	a0,t6,0x10
80002a7c:	1000fd3f 	b	80001f7c <core_bench_matrix+0xd1c>
80002a80:	00042403 	sra	a0,a0,0x10
	...
80002a90:	00002025 	move	a0,zero
80002a94:	0c001f5c 	jal	80007d70 <crc16>
80002a98:	00002825 	move	a1,zero
80002a9c:	00402825 	move	a1,v0
80002aa0:	0c001f5c 	jal	80007d70 <crc16>
80002aa4:	00002025 	move	a0,zero
80002aa8:	00402825 	move	a1,v0
80002aac:	0c001f5c 	jal	80007d70 <crc16>
80002ab0:	00002025 	move	a0,zero
80002ab4:	00402825 	move	a1,v0
80002ab8:	0c001f5c 	jal	80007d70 <crc16>
80002abc:	00002025 	move	a0,zero
80002ac0:	1000fe99 	b	80002528 <core_bench_matrix+0x12c8>
80002ac4:	00028400 	sll	s0,v0,0x10
	...

80002ad0 <matrix_test>:
matrix_test():
80002ad0:	27bdffb8 	addiu	sp,sp,-72
80002ad4:	87a90058 	lh	t1,88(sp)
80002ad8:	afb20028 	sw	s2,40(sp)
80002adc:	2412f000 	li	s2,-4096
80002ae0:	afbf0044 	sw	ra,68(sp)
80002ae4:	afbe0040 	sw	s8,64(sp)
80002ae8:	afb7003c 	sw	s7,60(sp)
80002aec:	afb60038 	sw	s6,56(sp)
80002af0:	afb50034 	sw	s5,52(sp)
80002af4:	afb40030 	sw	s4,48(sp)
80002af8:	afb3002c 	sw	s3,44(sp)
80002afc:	afb10024 	sw	s1,36(sp)
80002b00:	afb00020 	sw	s0,32(sp)
80002b04:	afa5004c 	sw	a1,76(sp)
80002b08:	afa60050 	sw	a2,80(sp)
80002b0c:	afa70054 	sw	a3,84(sp)
80002b10:	108005ec 	beqz	a0,800042c4 <matrix_test+0x17f4>
80002b14:	01329025 	or	s2,t1,s2
80002b18:	00048040 	sll	s0,a0,0x1
80002b1c:	00806825 	move	t5,a0
80002b20:	00d03021 	addu	a2,a2,s0
80002b24:	00042023 	negu	a0,a0
80002b28:	00045040 	sll	t2,a0,0x1
80002b2c:	313effff 	andi	s8,t1,0xffff
80002b30:	00c01825 	move	v1,a2
80002b34:	00002825 	move	a1,zero
80002b38:	00042080 	sll	a0,a0,0x2
80002b3c:	006a4021 	addu	t0,v1,t2
80002b40:	00683823 	subu	a3,v1,t0
80002b44:	24ebfffe 	addiu	t3,a3,-2
80002b48:	000b6042 	srl	t4,t3,0x1
80002b4c:	258e0001 	addiu	t6,t4,1
80002b50:	31cf0007 	andi	t7,t6,0x7
80002b54:	11e0002b 	beqz	t7,80002c04 <matrix_test+0x134>
80002b58:	01001025 	move	v0,t0
80002b5c:	24110001 	li	s1,1
80002b60:	11f10023 	beq	t7,s1,80002bf0 <matrix_test+0x120>
80002b64:	24130002 	li	s3,2
80002b68:	11f3001d 	beq	t7,s3,80002be0 <matrix_test+0x110>
80002b6c:	24140003 	li	s4,3
80002b70:	11f40017 	beq	t7,s4,80002bd0 <matrix_test+0x100>
80002b74:	24150004 	li	s5,4
80002b78:	11f50011 	beq	t7,s5,80002bc0 <matrix_test+0xf0>
80002b7c:	24160005 	li	s6,5
80002b80:	11f6000b 	beq	t7,s6,80002bb0 <matrix_test+0xe0>
80002b84:	24170006 	li	s7,6
80002b88:	11f70005 	beq	t7,s7,80002ba0 <matrix_test+0xd0>
80002b8c:	00000000 	nop
80002b90:	95180000 	lhu	t8,0(t0)
80002b94:	25020002 	addiu	v0,t0,2
80002b98:	03d8c821 	addu	t9,s8,t8
80002b9c:	a5190000 	sh	t9,0(t0)
80002ba0:	945f0000 	lhu	ra,0(v0)
80002ba4:	24420002 	addiu	v0,v0,2
80002ba8:	03df3821 	addu	a3,s8,ra
80002bac:	a447fffe 	sh	a3,-2(v0)
80002bb0:	944b0000 	lhu	t3,0(v0)
80002bb4:	24420002 	addiu	v0,v0,2
80002bb8:	03cb6021 	addu	t4,s8,t3
80002bbc:	a44cfffe 	sh	t4,-2(v0)
80002bc0:	944e0000 	lhu	t6,0(v0)
80002bc4:	24420002 	addiu	v0,v0,2
80002bc8:	03ce7821 	addu	t7,s8,t6
80002bcc:	a44ffffe 	sh	t7,-2(v0)
80002bd0:	94510000 	lhu	s1,0(v0)
80002bd4:	24420002 	addiu	v0,v0,2
80002bd8:	03d19821 	addu	s3,s8,s1
80002bdc:	a453fffe 	sh	s3,-2(v0)
80002be0:	94540000 	lhu	s4,0(v0)
80002be4:	24420002 	addiu	v0,v0,2
80002be8:	03d4a821 	addu	s5,s8,s4
80002bec:	a455fffe 	sh	s5,-2(v0)
80002bf0:	94560000 	lhu	s6,0(v0)
80002bf4:	24420002 	addiu	v0,v0,2
80002bf8:	03d6b821 	addu	s7,s8,s6
80002bfc:	1043001c 	beq	v0,v1,80002c70 <matrix_test+0x1a0>
80002c00:	a457fffe 	sh	s7,-2(v0)
80002c04:	945f0000 	lhu	ra,0(v0)
80002c08:	94590002 	lhu	t9,2(v0)
80002c0c:	94580004 	lhu	t8,4(v0)
80002c10:	944f0006 	lhu	t7,6(v0)
80002c14:	944e0008 	lhu	t6,8(v0)
80002c18:	944c000a 	lhu	t4,10(v0)
80002c1c:	944b000c 	lhu	t3,12(v0)
80002c20:	9447000e 	lhu	a3,14(v0)
80002c24:	03df8821 	addu	s1,s8,ra
80002c28:	03d99821 	addu	s3,s8,t9
80002c2c:	03d8a021 	addu	s4,s8,t8
80002c30:	03cfa821 	addu	s5,s8,t7
80002c34:	03ceb021 	addu	s6,s8,t6
80002c38:	03ccb821 	addu	s7,s8,t4
80002c3c:	03cbf821 	addu	ra,s8,t3
80002c40:	03c7c821 	addu	t9,s8,a3
80002c44:	a4510000 	sh	s1,0(v0)
80002c48:	a4530002 	sh	s3,2(v0)
80002c4c:	a4540004 	sh	s4,4(v0)
80002c50:	a4550006 	sh	s5,6(v0)
80002c54:	a4560008 	sh	s6,8(v0)
80002c58:	a457000a 	sh	s7,10(v0)
80002c5c:	a45f000c 	sh	ra,12(v0)
80002c60:	a459000e 	sh	t9,14(v0)
80002c64:	24420010 	addiu	v0,v0,16
80002c68:	1443ffe6 	bne	v0,v1,80002c04 <matrix_test+0x134>
80002c6c:	00000000 	nop
80002c70:	24b10001 	addiu	s1,a1,1
80002c74:	11b10006 	beq	t5,s1,80002c90 <matrix_test+0x1c0>
80002c78:	01041823 	subu	v1,t0,a0
80002c7c:	1000ffaf 	b	80002b3c <matrix_test+0x6c>
80002c80:	02202825 	move	a1,s1
	...
80002c90:	00114023 	negu	t0,s1
80002c94:	8faf004c 	lw	t7,76(sp)
80002c98:	00006025 	move	t4,zero
80002c9c:	00006825 	move	t5,zero
80002ca0:	00083880 	sll	a3,t0,0x2
80002ca4:	01465821 	addu	t3,t2,a2
80002ca8:	00cb1023 	subu	v0,a2,t3
80002cac:	2444fffe 	addiu	a0,v0,-2
80002cb0:	0004c042 	srl	t8,a0,0x1
80002cb4:	270e0001 	addiu	t6,t8,1
80002cb8:	000c9880 	sll	s3,t4,0x2
80002cbc:	31d40007 	andi	s4,t6,0x7
80002cc0:	026f1021 	addu	v0,s3,t7
80002cc4:	12800039 	beqz	s4,80002dac <matrix_test+0x2dc>
80002cc8:	01601825 	move	v1,t3
80002ccc:	24150001 	li	s5,1
80002cd0:	1295002f 	beq	s4,s5,80002d90 <matrix_test+0x2c0>
80002cd4:	24160002 	li	s6,2
80002cd8:	12960027 	beq	s4,s6,80002d78 <matrix_test+0x2a8>
80002cdc:	24170003 	li	s7,3
80002ce0:	1297001f 	beq	s4,s7,80002d60 <matrix_test+0x290>
80002ce4:	241f0004 	li	ra,4
80002ce8:	129f0017 	beq	s4,ra,80002d48 <matrix_test+0x278>
80002cec:	24190005 	li	t9,5
80002cf0:	1299000f 	beq	s4,t9,80002d30 <matrix_test+0x260>
80002cf4:	24040006 	li	a0,6
80002cf8:	12840007 	beq	s4,a0,80002d18 <matrix_test+0x248>
80002cfc:	00000000 	nop
80002d00:	85780000 	lh	t8,0(t3)
80002d04:	25630002 	addiu	v1,t3,2
80002d08:	03090018 	mult	t8,t1
80002d0c:	24420004 	addiu	v0,v0,4
80002d10:	00007012 	mflo	t6
80002d14:	ac4efffc 	sw	t6,-4(v0)
80002d18:	84730000 	lh	s3,0(v1)
80002d1c:	24420004 	addiu	v0,v0,4
80002d20:	02690018 	mult	s3,t1
80002d24:	24630002 	addiu	v1,v1,2
80002d28:	0000a012 	mflo	s4
80002d2c:	ac54fffc 	sw	s4,-4(v0)
80002d30:	84750000 	lh	s5,0(v1)
80002d34:	24420004 	addiu	v0,v0,4
80002d38:	02a90018 	mult	s5,t1
80002d3c:	24630002 	addiu	v1,v1,2
80002d40:	0000b012 	mflo	s6
80002d44:	ac56fffc 	sw	s6,-4(v0)
80002d48:	84770000 	lh	s7,0(v1)
80002d4c:	24420004 	addiu	v0,v0,4
80002d50:	02e90018 	mult	s7,t1
80002d54:	24630002 	addiu	v1,v1,2
80002d58:	0000f812 	mflo	ra
80002d5c:	ac5ffffc 	sw	ra,-4(v0)
80002d60:	84790000 	lh	t9,0(v1)
80002d64:	24420004 	addiu	v0,v0,4
80002d68:	03290018 	mult	t9,t1
80002d6c:	24630002 	addiu	v1,v1,2
80002d70:	00002012 	mflo	a0
80002d74:	ac44fffc 	sw	a0,-4(v0)
80002d78:	84780000 	lh	t8,0(v1)
80002d7c:	24420004 	addiu	v0,v0,4
80002d80:	03090018 	mult	t8,t1
80002d84:	24630002 	addiu	v1,v1,2
80002d88:	00007012 	mflo	t6
80002d8c:	ac4efffc 	sw	t6,-4(v0)
80002d90:	84730000 	lh	s3,0(v1)
80002d94:	24420004 	addiu	v0,v0,4
80002d98:	02690018 	mult	s3,t1
80002d9c:	24630002 	addiu	v1,v1,2
80002da0:	0000a012 	mflo	s4
80002da4:	1066002b 	beq	v1,a2,80002e54 <matrix_test+0x384>
80002da8:	ac54fffc 	sw	s4,-4(v0)
80002dac:	84750000 	lh	s5,0(v1)
80002db0:	84760002 	lh	s6,2(v1)
80002db4:	02a90018 	mult	s5,t1
80002db8:	84770004 	lh	s7,4(v1)
80002dbc:	847f0006 	lh	ra,6(v1)
80002dc0:	84790008 	lh	t9,8(v1)
80002dc4:	8478000a 	lh	t8,10(v1)
80002dc8:	846e000c 	lh	t6,12(v1)
80002dcc:	8464000e 	lh	a0,14(v1)
80002dd0:	24420020 	addiu	v0,v0,32
80002dd4:	24630010 	addiu	v1,v1,16
80002dd8:	00009812 	mflo	s3
80002ddc:	ac53ffe0 	sw	s3,-32(v0)
80002de0:	00000000 	nop
80002de4:	02c90018 	mult	s6,t1
80002de8:	0000a012 	mflo	s4
80002dec:	ac54ffe4 	sw	s4,-28(v0)
80002df0:	00000000 	nop
80002df4:	02e90018 	mult	s7,t1
80002df8:	0000a812 	mflo	s5
80002dfc:	ac55ffe8 	sw	s5,-24(v0)
80002e00:	00000000 	nop
80002e04:	03e90018 	mult	ra,t1
80002e08:	0000b012 	mflo	s6
80002e0c:	ac56ffec 	sw	s6,-20(v0)
80002e10:	00000000 	nop
80002e14:	03290018 	mult	t9,t1
80002e18:	0000b812 	mflo	s7
80002e1c:	ac57fff0 	sw	s7,-16(v0)
80002e20:	00000000 	nop
80002e24:	03090018 	mult	t8,t1
80002e28:	0000f812 	mflo	ra
80002e2c:	ac5ffff4 	sw	ra,-12(v0)
80002e30:	00000000 	nop
80002e34:	01c90018 	mult	t6,t1
80002e38:	0000c812 	mflo	t9
80002e3c:	ac59fff8 	sw	t9,-8(v0)
80002e40:	00000000 	nop
80002e44:	00890018 	mult	a0,t1
80002e48:	0000c012 	mflo	t8
80002e4c:	1466ffd7 	bne	v1,a2,80002dac <matrix_test+0x2dc>
80002e50:	ac58fffc 	sw	t8,-4(v0)
80002e54:	25a30001 	addiu	v1,t5,1
80002e58:	01916021 	addu	t4,t4,s1
80002e5c:	11a50004 	beq	t5,a1,80002e70 <matrix_test+0x3a0>
80002e60:	01673023 	subu	a2,t3,a3
80002e64:	1000ff8f 	b	80002ca4 <matrix_test+0x1d4>
80002e68:	00606825 	move	t5,v1
80002e6c:	00000000 	nop
80002e70:	8fab004c 	lw	t3,76(sp)
80002e74:	00116880 	sll	t5,s1,0x2
80002e78:	016db821 	addu	s7,t3,t5
80002e7c:	afad0010 	sw	t5,16(sp)
80002e80:	02e01025 	move	v0,s7
80002e84:	00002025 	move	a0,zero
80002e88:	00005825 	move	t3,zero
80002e8c:	00004825 	move	t1,zero
80002e90:	00003025 	move	a2,zero
80002e94:	000840c0 	sll	t0,t0,0x3
80002e98:	00e27821 	addu	t7,a3,v0
80002e9c:	004f5023 	subu	t2,v0,t7
80002ea0:	254efffc 	addiu	t6,t2,-4
80002ea4:	000e9882 	srl	s3,t6,0x2
80002ea8:	26740001 	addiu	s4,s3,1
80002eac:	32950003 	andi	s5,s4,0x3
80002eb0:	12a0004c 	beqz	s5,80002fe4 <matrix_test+0x514>
80002eb4:	01e06025 	move	t4,t7
80002eb8:	24160001 	li	s6,1
80002ebc:	12b6001b 	beq	s5,s6,80002f2c <matrix_test+0x45c>
80002ec0:	241f0002 	li	ra,2
80002ec4:	12bf000e 	beq	s5,ra,80002f00 <matrix_test+0x430>
80002ec8:	01607025 	move	t6,t3
80002ecc:	0160c825 	move	t9,t3
80002ed0:	8deb0000 	lw	t3,0(t7)
80002ed4:	00000000 	nop
80002ed8:	012b4821 	addu	t1,t1,t3
80002edc:	0249c02a 	slt	t8,s2,t1
80002ee0:	1300007f 	beqz	t8,800030e0 <matrix_test+0x610>
80002ee4:	3084ffff 	andi	a0,a0,0xffff
80002ee8:	2489000a 	addiu	t1,a0,10
80002eec:	00095400 	sll	t2,t1,0x10
80002ef0:	000a2403 	sra	a0,t2,0x10
80002ef4:	00004825 	move	t1,zero
80002ef8:	25ec0004 	addiu	t4,t7,4
80002efc:	01607025 	move	t6,t3
80002f00:	8d8b0000 	lw	t3,0(t4)
80002f04:	00000000 	nop
80002f08:	012b4821 	addu	t1,t1,t3
80002f0c:	0249a02a 	slt	s4,s2,t1
80002f10:	1280006b 	beqz	s4,800030c0 <matrix_test+0x5f0>
80002f14:	3093ffff 	andi	s3,a0,0xffff
80002f18:	2679000a 	addiu	t9,s3,10
80002f1c:	00192400 	sll	a0,t9,0x10
80002f20:	00042403 	sra	a0,a0,0x10
80002f24:	00004825 	move	t1,zero
80002f28:	258c0004 	addiu	t4,t4,4
80002f2c:	0160c025 	move	t8,t3
80002f30:	8d8b0000 	lw	t3,0(t4)
80002f34:	00000000 	nop
80002f38:	012b4821 	addu	t1,t1,t3
80002f3c:	0249682a 	slt	t5,s2,t1
80002f40:	11a00057 	beqz	t5,800030a0 <matrix_test+0x5d0>
80002f44:	3083ffff 	andi	v1,a0,0xffff
80002f48:	2469000a 	addiu	t1,v1,10
80002f4c:	0009a400 	sll	s4,t1,0x10
80002f50:	00142403 	sra	a0,s4,0x10
80002f54:	00004825 	move	t1,zero
80002f58:	258c0004 	addiu	t4,t4,4
80002f5c:	15820021 	bne	t4,v0,80002fe4 <matrix_test+0x514>
80002f60:	24ca0001 	addiu	t2,a2,1
80002f64:	10a60066 	beq	a1,a2,80003100 <matrix_test+0x630>
80002f68:	01e81023 	subu	v0,t7,t0
80002f6c:	1000ffca 	b	80002e98 <matrix_test+0x3c8>
80002f70:	01403025 	move	a2,t2
	...
80002f80:	8d980004 	lw	t8,4(t4)
80002f84:	2699000a 	addiu	t9,s4,10
80002f88:	00009825 	move	s3,zero
80002f8c:	00192400 	sll	a0,t9,0x10
80002f90:	02787021 	addu	t6,s3,t8
80002f94:	00045c03 	sra	t3,a0,0x10
80002f98:	024e682a 	slt	t5,s2,t6
80002f9c:	11a0002a 	beqz	t5,80003048 <matrix_test+0x578>
80002fa0:	3163ffff 	andi	v1,t3,0xffff
80002fa4:	8d8b0008 	lw	t3,8(t4)
80002fa8:	2475000a 	addiu	s5,v1,10
80002fac:	00007025 	move	t6,zero
80002fb0:	0015b400 	sll	s6,s5,0x10
80002fb4:	01cb4821 	addu	t1,t6,t3
80002fb8:	0016a403 	sra	s4,s6,0x10
80002fbc:	0249c82a 	slt	t9,s2,t1
80002fc0:	1320002a 	beqz	t9,8000306c <matrix_test+0x59c>
80002fc4:	329fffff 	andi	ra,s4,0xffff
80002fc8:	27ee000a 	addiu	t6,ra,10
80002fcc:	000e6c00 	sll	t5,t6,0x10
80002fd0:	000d2403 	sra	a0,t5,0x10
80002fd4:	00004825 	move	t1,zero
80002fd8:	258c000c 	addiu	t4,t4,12
80002fdc:	1182ffe1 	beq	t4,v0,80002f64 <matrix_test+0x494>
80002fe0:	24ca0001 	addiu	t2,a2,1
80002fe4:	8d950000 	lw	s5,0(t4)
80002fe8:	00000000 	nop
80002fec:	01356821 	addu	t5,t1,s5
80002ff0:	024df82a 	slt	ra,s2,t5
80002ff4:	17e00022 	bnez	ra,80003080 <matrix_test+0x5b0>
80002ff8:	3096ffff 	andi	s6,a0,0xffff
80002ffc:	0175582a 	slt	t3,t3,s5
80003000:	02cbc821 	addu	t9,s6,t3
80003004:	00192400 	sll	a0,t9,0x10
80003008:	00047403 	sra	t6,a0,0x10
8000300c:	8d8a0004 	lw	t2,4(t4)
80003010:	31d4ffff 	andi	s4,t6,0xffff
80003014:	01aa9821 	addu	s3,t5,t2
80003018:	0253482a 	slt	t1,s2,s3
8000301c:	1520ffd8 	bnez	t1,80002f80 <matrix_test+0x4b0>
80003020:	258c0004 	addiu	t4,t4,4
80003024:	8d980004 	lw	t8,4(t4)
80003028:	02aaa82a 	slt	s5,s5,t2
8000302c:	0295b021 	addu	s6,s4,s5
80003030:	0016fc00 	sll	ra,s6,0x10
80003034:	02787021 	addu	t6,s3,t8
80003038:	001f5c03 	sra	t3,ra,0x10
8000303c:	024e682a 	slt	t5,s2,t6
80003040:	15a0ffd8 	bnez	t5,80002fa4 <matrix_test+0x4d4>
80003044:	3163ffff 	andi	v1,t3,0xffff
80003048:	0158502a 	slt	t2,t2,t8
8000304c:	8d8b0008 	lw	t3,8(t4)
80003050:	006a9821 	addu	s3,v1,t2
80003054:	00134c00 	sll	t1,s3,0x10
80003058:	0009a403 	sra	s4,t1,0x10
8000305c:	01cb4821 	addu	t1,t6,t3
80003060:	0249c82a 	slt	t9,s2,t1
80003064:	1720ffd8 	bnez	t9,80002fc8 <matrix_test+0x4f8>
80003068:	329fffff 	andi	ra,s4,0xffff
8000306c:	030b202a 	slt	a0,t8,t3
80003070:	03e4c021 	addu	t8,ra,a0
80003074:	00181c00 	sll	v1,t8,0x10
80003078:	1000ffd7 	b	80002fd8 <matrix_test+0x508>
8000307c:	00032403 	sra	a0,v1,0x10
80003080:	26d8000a 	addiu	t8,s6,10
80003084:	00181c00 	sll	v1,t8,0x10
80003088:	00037403 	sra	t6,v1,0x10
8000308c:	1000ffdf 	b	8000300c <matrix_test+0x53c>
80003090:	00006825 	move	t5,zero
	...
800030a0:	030b502a 	slt	t2,t8,t3
800030a4:	006a7021 	addu	t6,v1,t2
800030a8:	000e9c00 	sll	s3,t6,0x10
800030ac:	1000ffaa 	b	80002f58 <matrix_test+0x488>
800030b0:	00132403 	sra	a0,s3,0x10
	...
800030c0:	01cba82a 	slt	s5,t6,t3
800030c4:	0275b021 	addu	s6,s3,s5
800030c8:	0016fc00 	sll	ra,s6,0x10
800030cc:	1000ff96 	b	80002f28 <matrix_test+0x458>
800030d0:	001f2403 	sra	a0,ra,0x10
	...
800030e0:	032b182a 	slt	v1,t9,t3
800030e4:	00836021 	addu	t4,a0,v1
800030e8:	000c6c00 	sll	t5,t4,0x10
800030ec:	1000ff82 	b	80002ef8 <matrix_test+0x428>
800030f0:	000d2403 	sra	a0,t5,0x10
	...
80003100:	0c001f5c 	jal	80007d70 <crc16>
80003104:	00002825 	move	a1,zero
80003108:	8fb80054 	lw	t8,84(sp)
8000310c:	8fa6004c 	lw	a2,76(sp)
80003110:	8fb60050 	lw	s6,80(sp)
80003114:	afa20014 	sw	v0,20(sp)
80003118:	03107021 	addu	t6,t8,s0
8000311c:	00007825 	move	t7,zero
80003120:	afb20018 	sw	s2,24(sp)
80003124:	afb0001c 	sw	s0,28(sp)
80003128:	01d89823 	subu	s3,t6,t8
8000312c:	2674fffe 	addiu	s4,s3,-2
80003130:	0014a842 	srl	s5,s4,0x1
80003134:	26ab0001 	addiu	t3,s5,1
80003138:	000ff840 	sll	ra,t7,0x1
8000313c:	31690007 	andi	t1,t3,0x7
80003140:	02df2021 	addu	a0,s6,ra
80003144:	03002825 	move	a1,t8
80003148:	1120003f 	beqz	t1,80003248 <matrix_test+0x778>
8000314c:	00001025 	move	v0,zero
80003150:	24190001 	li	t9,1
80003154:	11390034 	beq	t1,t9,80003228 <matrix_test+0x758>
80003158:	24030002 	li	v1,2
8000315c:	1123002b 	beq	t1,v1,8000320c <matrix_test+0x73c>
80003160:	240d0003 	li	t5,3
80003164:	112d0022 	beq	t1,t5,800031f0 <matrix_test+0x720>
80003168:	240c0004 	li	t4,4
8000316c:	112c0019 	beq	t1,t4,800031d4 <matrix_test+0x704>
80003170:	24070005 	li	a3,5
80003174:	11270010 	beq	t1,a3,800031b8 <matrix_test+0x6e8>
80003178:	24080006 	li	t0,6
8000317c:	11280007 	beq	t1,t0,8000319c <matrix_test+0x6cc>
80003180:	00000000 	nop
80003184:	84850000 	lh	a1,0(a0)
80003188:	87100000 	lh	s0,0(t8)
8000318c:	24840002 	addiu	a0,a0,2
80003190:	00b00018 	mult	a1,s0
80003194:	27050002 	addiu	a1,t8,2
80003198:	00001012 	mflo	v0
8000319c:	84920000 	lh	s2,0(a0)
800031a0:	84aa0000 	lh	t2,0(a1)
800031a4:	24840002 	addiu	a0,a0,2
800031a8:	024a0018 	mult	s2,t2
800031ac:	24a50002 	addiu	a1,a1,2
800031b0:	00009812 	mflo	s3
800031b4:	00531021 	addu	v0,v0,s3
800031b8:	84940000 	lh	s4,0(a0)
800031bc:	84b50000 	lh	s5,0(a1)
800031c0:	24840002 	addiu	a0,a0,2
800031c4:	02950018 	mult	s4,s5
800031c8:	24a50002 	addiu	a1,a1,2
800031cc:	00005812 	mflo	t3
800031d0:	004b1021 	addu	v0,v0,t3
800031d4:	849f0000 	lh	ra,0(a0)
800031d8:	84a90000 	lh	t1,0(a1)
800031dc:	24840002 	addiu	a0,a0,2
800031e0:	03e90018 	mult	ra,t1
800031e4:	24a50002 	addiu	a1,a1,2
800031e8:	0000c812 	mflo	t9
800031ec:	00591021 	addu	v0,v0,t9
800031f0:	84830000 	lh	v1,0(a0)
800031f4:	84ad0000 	lh	t5,0(a1)
800031f8:	24840002 	addiu	a0,a0,2
800031fc:	006d0018 	mult	v1,t5
80003200:	24a50002 	addiu	a1,a1,2
80003204:	00006012 	mflo	t4
80003208:	004c1021 	addu	v0,v0,t4
8000320c:	84880000 	lh	t0,0(a0)
80003210:	84a70000 	lh	a3,0(a1)
80003214:	24840002 	addiu	a0,a0,2
80003218:	01070018 	mult	t0,a3
8000321c:	24a50002 	addiu	a1,a1,2
80003220:	00008012 	mflo	s0
80003224:	00501021 	addu	v0,v0,s0
80003228:	84920000 	lh	s2,0(a0)
8000322c:	84aa0000 	lh	t2,0(a1)
80003230:	24a50002 	addiu	a1,a1,2
80003234:	024a0018 	mult	s2,t2
80003238:	24840002 	addiu	a0,a0,2
8000323c:	00009812 	mflo	s3
80003240:	11c50033 	beq	t6,a1,80003310 <matrix_test+0x840>
80003244:	00531021 	addu	v0,v0,s3
80003248:	848b0000 	lh	t3,0(a0)
8000324c:	84bf0000 	lh	ra,0(a1)
80003250:	84950002 	lh	s5,2(a0)
80003254:	017f0018 	mult	t3,ra
80003258:	84b20002 	lh	s2,2(a1)
8000325c:	84870004 	lh	a3,4(a0)
80003260:	84b40004 	lh	s4,4(a1)
80003264:	848d0006 	lh	t5,6(a0)
80003268:	84b30006 	lh	s3,6(a1)
8000326c:	848c0008 	lh	t4,8(a0)
80003270:	84a30008 	lh	v1,8(a1)
80003274:	848b000a 	lh	t3,10(a0)
80003278:	84b0000a 	lh	s0,10(a1)
8000327c:	848a000c 	lh	t2,12(a0)
80003280:	84bf000c 	lh	ra,12(a1)
80003284:	00004012 	mflo	t0
80003288:	8489000e 	lh	t1,14(a0)
8000328c:	84b9000e 	lh	t9,14(a1)
80003290:	02b20018 	mult	s5,s2
80003294:	00481021 	addu	v0,v0,t0
80003298:	24a50010 	addiu	a1,a1,16
8000329c:	24840010 	addiu	a0,a0,16
800032a0:	0000a812 	mflo	s5
	...
800032ac:	00f40018 	mult	a3,s4
800032b0:	00553821 	addu	a3,v0,s5
800032b4:	00009012 	mflo	s2
800032b8:	00f24021 	addu	t0,a3,s2
800032bc:	00000000 	nop
800032c0:	01b30018 	mult	t5,s3
800032c4:	0000a012 	mflo	s4
800032c8:	01149821 	addu	s3,t0,s4
800032cc:	00000000 	nop
800032d0:	01830018 	mult	t4,v1
800032d4:	00006812 	mflo	t5
800032d8:	026d1821 	addu	v1,s3,t5
800032dc:	00000000 	nop
800032e0:	01700018 	mult	t3,s0
800032e4:	00006012 	mflo	t4
800032e8:	006c8021 	addu	s0,v1,t4
800032ec:	00000000 	nop
800032f0:	015f0018 	mult	t2,ra
800032f4:	00005812 	mflo	t3
800032f8:	020bf821 	addu	ra,s0,t3
800032fc:	00000000 	nop
80003300:	01390018 	mult	t1,t9
80003304:	00005012 	mflo	t2
80003308:	15c5ffcf 	bne	t6,a1,80003248 <matrix_test+0x778>
8000330c:	03ea1021 	addu	v0,ra,t2
80003310:	acc20000 	sw	v0,0(a2)
80003314:	24c60004 	addiu	a2,a2,4
80003318:	14d7ff83 	bne	a2,s7,80003128 <matrix_test+0x658>
8000331c:	01f17821 	addu	t7,t7,s1
80003320:	8fb20018 	lw	s2,24(sp)
80003324:	8fb0001c 	lw	s0,28(sp)
80003328:	8fa6004c 	lw	a2,76(sp)
8000332c:	00001025 	move	v0,zero
80003330:	00002025 	move	a0,zero
80003334:	00004825 	move	t1,zero
80003338:	00002825 	move	a1,zero
8000333c:	00001825 	move	v1,zero
80003340:	0002b880 	sll	s7,v0,0x2
80003344:	00d77021 	addu	t6,a2,s7
80003348:	01207825 	move	t7,t1
8000334c:	8dc90000 	lw	t1,0(t6)
80003350:	2636ffff 	addiu	s6,s1,-1
80003354:	00a92821 	addu	a1,a1,t1
80003358:	0245c02a 	slt	t8,s2,a1
8000335c:	32d90003 	andi	t9,s6,0x3
80003360:	13000383 	beqz	t8,80004170 <matrix_test+0x16a0>
80003364:	3084ffff 	andi	a0,a0,0xffff
80003368:	2488000a 	addiu	t0,a0,10
8000336c:	00086c00 	sll	t5,t0,0x10
80003370:	000d2403 	sra	a0,t5,0x10
80003374:	00002825 	move	a1,zero
80003378:	240a0001 	li	t2,1
8000337c:	0151982b 	sltu	s3,t2,s1
80003380:	12600030 	beqz	s3,80003444 <matrix_test+0x974>
80003384:	25c80004 	addiu	t0,t6,4
80003388:	132002a6 	beqz	t9,80003e24 <matrix_test+0x1354>
8000338c:	00000000 	nop
80003390:	132a001d 	beq	t9,t2,80003408 <matrix_test+0x938>
80003394:	240c0002 	li	t4,2
80003398:	132c000f 	beq	t9,t4,800033d8 <matrix_test+0x908>
8000339c:	0120c825 	move	t9,t1
800033a0:	0120f825 	move	ra,t1
800033a4:	8dc90004 	lw	t1,4(t6)
800033a8:	00000000 	nop
800033ac:	00a92821 	addu	a1,a1,t1
800033b0:	0245582a 	slt	t3,s2,a1
800033b4:	116003be 	beqz	t3,800042b0 <matrix_test+0x17e0>
800033b8:	3097ffff 	andi	s7,a0,0xffff
800033bc:	26e5000a 	addiu	a1,s7,10
800033c0:	0005c400 	sll	t8,a1,0x10
800033c4:	00182403 	sra	a0,t8,0x10
800033c8:	00002825 	move	a1,zero
800033cc:	254a0001 	addiu	t2,t2,1
800033d0:	25080004 	addiu	t0,t0,4
800033d4:	0120c825 	move	t9,t1
800033d8:	8d090000 	lw	t1,0(t0)
800033dc:	00000000 	nop
800033e0:	00a92821 	addu	a1,a1,t1
800033e4:	0245a82a 	slt	s5,s2,a1
800033e8:	12a00391 	beqz	s5,80004230 <matrix_test+0x1760>
800033ec:	3084ffff 	andi	a0,a0,0xffff
800033f0:	2493000a 	addiu	s3,a0,10
800033f4:	00136400 	sll	t4,s3,0x10
800033f8:	000c2403 	sra	a0,t4,0x10
800033fc:	00002825 	move	a1,zero
80003400:	254a0001 	addiu	t2,t2,1
80003404:	25080004 	addiu	t0,t0,4
80003408:	0120f825 	move	ra,t1
8000340c:	8d090000 	lw	t1,0(t0)
80003410:	00000000 	nop
80003414:	00a92821 	addu	a1,a1,t1
80003418:	0245582a 	slt	t3,s2,a1
8000341c:	11600374 	beqz	t3,800041f0 <matrix_test+0x1720>
80003420:	3097ffff 	andi	s7,a0,0xffff
80003424:	26e5000a 	addiu	a1,s7,10
80003428:	0005c400 	sll	t8,a1,0x10
8000342c:	00182403 	sra	a0,t8,0x10
80003430:	00002825 	move	a1,zero
80003434:	254a0001 	addiu	t2,t2,1
80003438:	0151c82b 	sltu	t9,t2,s1
8000343c:	17200279 	bnez	t9,80003e24 <matrix_test+0x1354>
80003440:	25080004 	addiu	t0,t0,4
80003444:	24630001 	addiu	v1,v1,1
80003448:	0071982b 	sltu	s3,v1,s1
8000344c:	1660ffbc 	bnez	s3,80003340 <matrix_test+0x870>
80003450:	00511021 	addu	v0,v0,s1
80003454:	8fa50014 	lw	a1,20(sp)
80003458:	0c001f5c 	jal	80007d70 <crc16>
8000345c:	0000b825 	move	s7,zero
80003460:	8fac004c 	lw	t4,76(sp)
80003464:	8fb80050 	lw	t8,80(sp)
80003468:	afbe001c 	sw	s8,28(sp)
8000346c:	afa20014 	sw	v0,20(sp)
80003470:	afb20018 	sw	s2,24(sp)
80003474:	0180f025 	move	s8,t4
80003478:	8fa60054 	lw	a2,84(sp)
8000347c:	03c07825 	move	t7,s8
80003480:	00007025 	move	t6,zero
80003484:	871f0000 	lh	ra,0(t8)
80003488:	84cb0000 	lh	t3,0(a2)
8000348c:	24050001 	li	a1,1
80003490:	03eb0018 	mult	ra,t3
80003494:	2629ffff 	addiu	t1,s1,-1
80003498:	00b1b02b 	sltu	s6,a1,s1
8000349c:	31390007 	andi	t9,t1,0x7
800034a0:	27030002 	addiu	v1,t8,2
800034a4:	00001012 	mflo	v0
800034a8:	12c00087 	beqz	s6,800036c8 <matrix_test+0xbf8>
800034ac:	00d02021 	addu	a0,a2,s0
800034b0:	13200047 	beqz	t9,800035d0 <matrix_test+0xb00>
800034b4:	00000000 	nop
800034b8:	1325003b 	beq	t9,a1,800035a8 <matrix_test+0xad8>
800034bc:	24150002 	li	s5,2
800034c0:	13350031 	beq	t9,s5,80003588 <matrix_test+0xab8>
800034c4:	24070003 	li	a3,3
800034c8:	13270027 	beq	t9,a3,80003568 <matrix_test+0xa98>
800034cc:	24140004 	li	s4,4
800034d0:	1334001d 	beq	t9,s4,80003548 <matrix_test+0xa78>
800034d4:	240a0005 	li	t2,5
800034d8:	132a0013 	beq	t9,t2,80003528 <matrix_test+0xa58>
800034dc:	240d0006 	li	t5,6
800034e0:	132d0009 	beq	t9,t5,80003508 <matrix_test+0xa38>
800034e4:	00000000 	nop
800034e8:	84680000 	lh	t0,0(v1)
800034ec:	84920000 	lh	s2,0(a0)
800034f0:	24050002 	li	a1,2
800034f4:	01120018 	mult	t0,s2
800034f8:	27030004 	addiu	v1,t8,4
800034fc:	00902021 	addu	a0,a0,s0
80003500:	00009812 	mflo	s3
80003504:	00531021 	addu	v0,v0,s3
80003508:	846c0000 	lh	t4,0(v1)
8000350c:	849f0000 	lh	ra,0(a0)
80003510:	24a50001 	addiu	a1,a1,1
80003514:	019f0018 	mult	t4,ra
80003518:	24630002 	addiu	v1,v1,2
8000351c:	00902021 	addu	a0,a0,s0
80003520:	00005812 	mflo	t3
80003524:	004b1021 	addu	v0,v0,t3
80003528:	84690000 	lh	t1,0(v1)
8000352c:	84960000 	lh	s6,0(a0)
80003530:	24a50001 	addiu	a1,a1,1
80003534:	01360018 	mult	t1,s6
80003538:	24630002 	addiu	v1,v1,2
8000353c:	00902021 	addu	a0,a0,s0
80003540:	0000c812 	mflo	t9
80003544:	00591021 	addu	v0,v0,t9
80003548:	84750000 	lh	s5,0(v1)
8000354c:	84870000 	lh	a3,0(a0)
80003550:	24a50001 	addiu	a1,a1,1
80003554:	02a70018 	mult	s5,a3
80003558:	24630002 	addiu	v1,v1,2
8000355c:	00902021 	addu	a0,a0,s0
80003560:	0000a012 	mflo	s4
80003564:	00541021 	addu	v0,v0,s4
80003568:	846a0000 	lh	t2,0(v1)
8000356c:	848d0000 	lh	t5,0(a0)
80003570:	24a50001 	addiu	a1,a1,1
80003574:	014d0018 	mult	t2,t5
80003578:	24630002 	addiu	v1,v1,2
8000357c:	00902021 	addu	a0,a0,s0
80003580:	00004012 	mflo	t0
80003584:	00481021 	addu	v0,v0,t0
80003588:	84720000 	lh	s2,0(v1)
8000358c:	84930000 	lh	s3,0(a0)
80003590:	24a50001 	addiu	a1,a1,1
80003594:	02530018 	mult	s2,s3
80003598:	24630002 	addiu	v1,v1,2
8000359c:	00902021 	addu	a0,a0,s0
800035a0:	00006012 	mflo	t4
800035a4:	004c1021 	addu	v0,v0,t4
800035a8:	847f0000 	lh	ra,0(v1)
800035ac:	848b0000 	lh	t3,0(a0)
800035b0:	24a50001 	addiu	a1,a1,1
800035b4:	03eb0018 	mult	ra,t3
800035b8:	00b1b02b 	sltu	s6,a1,s1
800035bc:	24630002 	addiu	v1,v1,2
800035c0:	00902021 	addu	a0,a0,s0
800035c4:	00004812 	mflo	t1
800035c8:	12c0003f 	beqz	s6,800036c8 <matrix_test+0xbf8>
800035cc:	00491021 	addu	v0,v0,t1
800035d0:	84740000 	lh	s4,0(v1)
800035d4:	848a0000 	lh	t2,0(a0)
800035d8:	0090a821 	addu	s5,a0,s0
800035dc:	028a0018 	mult	s4,t2
800035e0:	84790002 	lh	t9,2(v1)
800035e4:	86ac0000 	lh	t4,0(s5)
800035e8:	02b03821 	addu	a3,s5,s0
800035ec:	84eb0000 	lh	t3,0(a3)
800035f0:	84750004 	lh	s5,4(v1)
800035f4:	00f04021 	addu	t0,a3,s0
800035f8:	846a0006 	lh	t2,6(v1)
800035fc:	85140000 	lh	s4,0(t0)
80003600:	01109021 	addu	s2,t0,s0
80003604:	84690008 	lh	t1,8(v1)
80003608:	86530000 	lh	s3,0(s2)
8000360c:	00006812 	mflo	t5
80003610:	0250f821 	addu	ra,s2,s0
80003614:	8476000a 	lh	s6,10(v1)
80003618:	032c0018 	mult	t9,t4
8000361c:	87f20000 	lh	s2,0(ra)
80003620:	03f03821 	addu	a3,ra,s0
80003624:	8468000c 	lh	t0,12(v1)
80003628:	84ff0000 	lh	ra,0(a3)
8000362c:	00f02021 	addu	a0,a3,s0
80003630:	84990000 	lh	t9,0(a0)
80003634:	8467000e 	lh	a3,14(v1)
80003638:	004d1021 	addu	v0,v0,t5
8000363c:	24a50008 	addiu	a1,a1,8
80003640:	00b1682b 	sltu	t5,a1,s1
80003644:	24630010 	addiu	v1,v1,16
80003648:	00006012 	mflo	t4
8000364c:	00902021 	addu	a0,a0,s0
80003650:	00000000 	nop
80003654:	02ab0018 	mult	s5,t3
80003658:	004c5821 	addu	t3,v0,t4
8000365c:	0000a812 	mflo	s5
	...
80003668:	01540018 	mult	t2,s4
8000366c:	0175a021 	addu	s4,t3,s5
80003670:	00005012 	mflo	t2
	...
8000367c:	01330018 	mult	t1,s3
80003680:	028a9821 	addu	s3,s4,t2
80003684:	00004812 	mflo	t1
	...
80003690:	02d20018 	mult	s6,s2
80003694:	02699021 	addu	s2,s3,t1
80003698:	0000b012 	mflo	s6
8000369c:	02566021 	addu	t4,s2,s6
800036a0:	00000000 	nop
800036a4:	011f0018 	mult	t0,ra
800036a8:	00004012 	mflo	t0
	...
800036b4:	00f90018 	mult	a3,t9
800036b8:	01883821 	addu	a3,t4,t0
800036bc:	0000f812 	mflo	ra
800036c0:	15a0ffc3 	bnez	t5,800035d0 <matrix_test+0xb00>
800036c4:	00ff1021 	addu	v0,a3,ra
800036c8:	25ce0001 	addiu	t6,t6,1
800036cc:	01d1282b 	sltu	a1,t6,s1
800036d0:	ade20000 	sw	v0,0(t7)
800036d4:	24c60002 	addiu	a2,a2,2
800036d8:	14a0ff6a 	bnez	a1,80003484 <matrix_test+0x9b4>
800036dc:	25ef0004 	addiu	t7,t7,4
800036e0:	8faf0010 	lw	t7,16(sp)
800036e4:	26f70001 	addiu	s7,s7,1
800036e8:	02f1302b 	sltu	a2,s7,s1
800036ec:	0310c021 	addu	t8,t8,s0
800036f0:	14c0ff61 	bnez	a2,80003478 <matrix_test+0x9a8>
800036f4:	03cff021 	addu	s8,s8,t7
800036f8:	8fb20018 	lw	s2,24(sp)
800036fc:	8fbe001c 	lw	s8,28(sp)
80003700:	8fa6004c 	lw	a2,76(sp)
80003704:	00001025 	move	v0,zero
80003708:	00002025 	move	a0,zero
8000370c:	00004825 	move	t1,zero
80003710:	00002825 	move	a1,zero
80003714:	00001825 	move	v1,zero
80003718:	0002c080 	sll	t8,v0,0x2
8000371c:	00d8b821 	addu	s7,a2,t8
80003720:	01207025 	move	t6,t1
80003724:	8ee90000 	lw	t1,0(s7)
80003728:	2639ffff 	addiu	t9,s1,-1
8000372c:	00a92821 	addu	a1,a1,t1
80003730:	0245682a 	slt	t5,s2,a1
80003734:	33350003 	andi	s5,t9,0x3
80003738:	11a00285 	beqz	t5,80004150 <matrix_test+0x1680>
8000373c:	3084ffff 	andi	a0,a0,0xffff
80003740:	2493000a 	addiu	s3,a0,10
80003744:	0013b400 	sll	s6,s3,0x10
80003748:	00162403 	sra	a0,s6,0x10
8000374c:	00002825 	move	a1,zero
80003750:	24080001 	li	t0,1
80003754:	0111602b 	sltu	t4,t0,s1
80003758:	11800031 	beqz	t4,80003820 <matrix_test+0xd50>
8000375c:	26e70004 	addiu	a3,s7,4
80003760:	12a00200 	beqz	s5,80003f64 <matrix_test+0x1494>
80003764:	00000000 	nop
80003768:	12a8001e 	beq	s5,t0,800037e4 <matrix_test+0xd14>
8000376c:	00000000 	nop
80003770:	241f0002 	li	ra,2
80003774:	12bf000f 	beq	s5,ra,800037b4 <matrix_test+0xce4>
80003778:	01205025 	move	t2,t1
8000377c:	01207825 	move	t7,t1
80003780:	8ee90004 	lw	t1,4(s7)
80003784:	00000000 	nop
80003788:	00a92821 	addu	a1,a1,t1
8000378c:	0245b82a 	slt	s7,s2,a1
80003790:	12e002bf 	beqz	s7,80004290 <matrix_test+0x17c0>
80003794:	3098ffff 	andi	t8,a0,0xffff
80003798:	2705000a 	addiu	a1,t8,10
8000379c:	0005ac00 	sll	s5,a1,0x10
800037a0:	00152403 	sra	a0,s5,0x10
800037a4:	00002825 	move	a1,zero
800037a8:	25080001 	addiu	t0,t0,1
800037ac:	24e70004 	addiu	a3,a3,4
800037b0:	01205025 	move	t2,t1
800037b4:	8ce90000 	lw	t1,0(a3)
800037b8:	00000000 	nop
800037bc:	00a92821 	addu	a1,a1,t1
800037c0:	0245582a 	slt	t3,s2,a1
800037c4:	11600292 	beqz	t3,80004210 <matrix_test+0x1740>
800037c8:	3084ffff 	andi	a0,a0,0xffff
800037cc:	248c000a 	addiu	t4,a0,10
800037d0:	000cfc00 	sll	ra,t4,0x10
800037d4:	001f2403 	sra	a0,ra,0x10
800037d8:	00002825 	move	a1,zero
800037dc:	25080001 	addiu	t0,t0,1
800037e0:	24e70004 	addiu	a3,a3,4
800037e4:	01207825 	move	t7,t1
800037e8:	8ce90000 	lw	t1,0(a3)
800037ec:	00000000 	nop
800037f0:	00a92821 	addu	a1,a1,t1
800037f4:	0245b82a 	slt	s7,s2,a1
800037f8:	12e00275 	beqz	s7,800041d0 <matrix_test+0x1700>
800037fc:	3098ffff 	andi	t8,a0,0xffff
80003800:	2705000a 	addiu	a1,t8,10
80003804:	0005ac00 	sll	s5,a1,0x10
80003808:	00152403 	sra	a0,s5,0x10
8000380c:	00002825 	move	a1,zero
80003810:	25080001 	addiu	t0,t0,1
80003814:	0111502b 	sltu	t2,t0,s1
80003818:	154001d2 	bnez	t2,80003f64 <matrix_test+0x1494>
8000381c:	24e70004 	addiu	a3,a3,4
80003820:	24630001 	addiu	v1,v1,1
80003824:	0071602b 	sltu	t4,v1,s1
80003828:	1580ffbb 	bnez	t4,80003718 <matrix_test+0xc48>
8000382c:	00511021 	addu	v0,v0,s1
80003830:	8fa50014 	lw	a1,20(sp)
80003834:	0c001f5c 	jal	80007d70 <crc16>
80003838:	0000a025 	move	s4,zero
8000383c:	8fb7004c 	lw	s7,76(sp)
80003840:	8fb90050 	lw	t9,80(sp)
80003844:	8fab0010 	lw	t3,16(sp)
80003848:	8fb30054 	lw	s3,84(sp)
8000384c:	00402825 	move	a1,v0
80003850:	02604025 	move	t0,s3
80003854:	02e05025 	move	t2,s7
80003858:	00004825 	move	t1,zero
8000385c:	873f0000 	lh	ra,0(t9)
80003860:	850f0000 	lh	t7,0(t0)
80003864:	24070001 	li	a3,1
80003868:	03ef0018 	mult	ra,t7
8000386c:	2638ffff 	addiu	t8,s1,-1
80003870:	00f1702b 	sltu	t6,a3,s1
80003874:	330d0003 	andi	t5,t8,0x3
80003878:	27260002 	addiu	a2,t9,2
8000387c:	00001012 	mflo	v0
80003880:	00021883 	sra	v1,v0,0x2
80003884:	00021143 	sra	v0,v0,0x5
80003888:	3056007f 	andi	s6,v0,0x7f
8000388c:	3075000f 	andi	s5,v1,0xf
80003890:	02b60018 	mult	s5,s6
80003894:	00001012 	mflo	v0
80003898:	11c00071 	beqz	t6,80003a60 <matrix_test+0xf90>
8000389c:	01102021 	addu	a0,t0,s0
800038a0:	11a00031 	beqz	t5,80003968 <matrix_test+0xe98>
800038a4:	00000000 	nop
800038a8:	11a7001f 	beq	t5,a3,80003928 <matrix_test+0xe58>
800038ac:	240c0002 	li	t4,2
800038b0:	11ac000f 	beq	t5,t4,800038f0 <matrix_test+0xe20>
800038b4:	00000000 	nop
800038b8:	84df0000 	lh	ra,0(a2)
800038bc:	84860000 	lh	a2,0(a0)
800038c0:	24070002 	li	a3,2
800038c4:	03e60018 	mult	ra,a2
800038c8:	00902021 	addu	a0,a0,s0
800038cc:	27260004 	addiu	a2,t9,4
800038d0:	00001812 	mflo	v1
800038d4:	00037883 	sra	t7,v1,0x2
800038d8:	00031943 	sra	v1,v1,0x5
800038dc:	31f8000f 	andi	t8,t7,0xf
800038e0:	306e007f 	andi	t6,v1,0x7f
800038e4:	030e0018 	mult	t8,t6
800038e8:	00006812 	mflo	t5
800038ec:	004d1021 	addu	v0,v0,t5
800038f0:	84d50000 	lh	s5,0(a2)
800038f4:	84960000 	lh	s6,0(a0)
800038f8:	24e70001 	addiu	a3,a3,1
800038fc:	02b60018 	mult	s5,s6
80003900:	24c60002 	addiu	a2,a2,2
80003904:	00902021 	addu	a0,a0,s0
80003908:	00001812 	mflo	v1
8000390c:	00036083 	sra	t4,v1,0x2
80003910:	00031943 	sra	v1,v1,0x5
80003914:	319f000f 	andi	ra,t4,0xf
80003918:	306f007f 	andi	t7,v1,0x7f
8000391c:	03ef0018 	mult	ra,t7
80003920:	0000c012 	mflo	t8
80003924:	00581021 	addu	v0,v0,t8
80003928:	84ce0000 	lh	t6,0(a2)
8000392c:	848d0000 	lh	t5,0(a0)
80003930:	24e70001 	addiu	a3,a3,1
80003934:	01cd0018 	mult	t6,t5
80003938:	00f1a82b 	sltu	s5,a3,s1
8000393c:	24c60002 	addiu	a2,a2,2
80003940:	00902021 	addu	a0,a0,s0
80003944:	00001812 	mflo	v1
80003948:	0003b083 	sra	s6,v1,0x2
8000394c:	00031943 	sra	v1,v1,0x5
80003950:	32cc000f 	andi	t4,s6,0xf
80003954:	307f007f 	andi	ra,v1,0x7f
80003958:	019f0018 	mult	t4,ra
8000395c:	00007812 	mflo	t7
80003960:	12a0003f 	beqz	s5,80003a60 <matrix_test+0xf90>
80003964:	004f1021 	addu	v0,v0,t7
80003968:	84d80000 	lh	t8,0(a2)
8000396c:	84950000 	lh	s5,0(a0)
80003970:	00907021 	addu	t6,a0,s0
80003974:	03150018 	mult	t8,s5
80003978:	84cc0002 	lh	t4,2(a2)
8000397c:	85df0000 	lh	ra,0(t6)
80003980:	01d06821 	addu	t5,t6,s0
80003984:	84d60004 	lh	s6,4(a2)
80003988:	85ae0000 	lh	t6,0(t5)
8000398c:	01b02021 	addu	a0,t5,s0
80003990:	84d50006 	lh	s5,6(a2)
80003994:	848d0000 	lh	t5,0(a0)
80003998:	24e70004 	addiu	a3,a3,4
8000399c:	00f1c02b 	sltu	t8,a3,s1
800039a0:	24c60008 	addiu	a2,a2,8
800039a4:	00001812 	mflo	v1
800039a8:	00902021 	addu	a0,a0,s0
800039ac:	00000000 	nop
800039b0:	019f0018 	mult	t4,ra
800039b4:	00036083 	sra	t4,v1,0x2
800039b8:	00031943 	sra	v1,v1,0x5
800039bc:	319f000f 	andi	ra,t4,0xf
800039c0:	306c007f 	andi	t4,v1,0x7f
800039c4:	00007812 	mflo	t7
	...
800039d0:	02ce0018 	mult	s6,t6
800039d4:	000fb083 	sra	s6,t7,0x2
800039d8:	000f7943 	sra	t7,t7,0x5
800039dc:	32d6000f 	andi	s6,s6,0xf
800039e0:	31ef007f 	andi	t7,t7,0x7f
800039e4:	00007012 	mflo	t6
800039e8:	000e1943 	sra	v1,t6,0x5
800039ec:	00000000 	nop
800039f0:	02ad0018 	mult	s5,t5
800039f4:	000ea883 	sra	s5,t6,0x2
800039f8:	32b5000f 	andi	s5,s5,0xf
800039fc:	306e007f 	andi	t6,v1,0x7f
80003a00:	00006812 	mflo	t5
	...
80003a0c:	03ec0018 	mult	ra,t4
80003a10:	000df883 	sra	ra,t5,0x2
80003a14:	000d6943 	sra	t5,t5,0x5
80003a18:	33ff000f 	andi	ra,ra,0xf
80003a1c:	31ad007f 	andi	t5,t5,0x7f
80003a20:	00006012 	mflo	t4
	...
80003a2c:	02cf0018 	mult	s6,t7
80003a30:	004c7821 	addu	t7,v0,t4
80003a34:	0000b012 	mflo	s6
80003a38:	01f61821 	addu	v1,t7,s6
80003a3c:	00000000 	nop
80003a40:	02ae0018 	mult	s5,t6
80003a44:	00001012 	mflo	v0
80003a48:	00627021 	addu	t6,v1,v0
80003a4c:	00000000 	nop
80003a50:	03ed0018 	mult	ra,t5
80003a54:	0000a812 	mflo	s5
80003a58:	1700ffc3 	bnez	t8,80003968 <matrix_test+0xe98>
80003a5c:	01d51021 	addu	v0,t6,s5
80003a60:	25290001 	addiu	t1,t1,1
80003a64:	0131382b 	sltu	a3,t1,s1
80003a68:	ad420000 	sw	v0,0(t2)
80003a6c:	25080002 	addiu	t0,t0,2
80003a70:	14e0ff7a 	bnez	a3,8000385c <matrix_test+0xd8c>
80003a74:	254a0004 	addiu	t2,t2,4
80003a78:	26940001 	addiu	s4,s4,1
80003a7c:	0291402b 	sltu	t0,s4,s1
80003a80:	0330c821 	addu	t9,t9,s0
80003a84:	1500ff72 	bnez	t0,80003850 <matrix_test+0xd80>
80003a88:	02ebb821 	addu	s7,s7,t3
80003a8c:	8fa8004c 	lw	t0,76(sp)
80003a90:	00001825 	move	v1,zero
80003a94:	00002025 	move	a0,zero
80003a98:	00005025 	move	t2,zero
80003a9c:	00001025 	move	v0,zero
80003aa0:	00003025 	move	a2,zero
80003aa4:	00038080 	sll	s0,v1,0x2
80003aa8:	0110b821 	addu	s7,t0,s0
80003aac:	0140c825 	move	t9,t2
80003ab0:	8eea0000 	lw	t2,0(s7)
80003ab4:	2634ffff 	addiu	s4,s1,-1
80003ab8:	004a1021 	addu	v0,v0,t2
80003abc:	0242982a 	slt	s3,s2,v0
80003ac0:	328b0003 	andi	t3,s4,0x3
80003ac4:	126001b2 	beqz	s3,80004190 <matrix_test+0x16c0>
80003ac8:	3089ffff 	andi	t1,a0,0xffff
80003acc:	253f000a 	addiu	ra,t1,10
80003ad0:	001f6c00 	sll	t5,ra,0x10
80003ad4:	000d2403 	sra	a0,t5,0x10
80003ad8:	00001025 	move	v0,zero
80003adc:	24090001 	li	t1,1
80003ae0:	0131b02b 	sltu	s6,t1,s1
80003ae4:	12c00031 	beqz	s6,80003bac <matrix_test+0x10dc>
80003ae8:	26e70004 	addiu	a3,s7,4
80003aec:	1160016d 	beqz	t3,800040a4 <matrix_test+0x15d4>
80003af0:	00000000 	nop
80003af4:	1169001e 	beq	t3,t1,80003b70 <matrix_test+0x10a0>
80003af8:	00000000 	nop
80003afc:	240f0002 	li	t7,2
80003b00:	116f000f 	beq	t3,t7,80003b40 <matrix_test+0x1070>
80003b04:	01405825 	move	t3,t2
80003b08:	0140a825 	move	s5,t2
80003b0c:	8eea0004 	lw	t2,4(s7)
80003b10:	00000000 	nop
80003b14:	004a1021 	addu	v0,v0,t2
80003b18:	0242802a 	slt	s0,s2,v0
80003b1c:	120001d4 	beqz	s0,80004270 <matrix_test+0x17a0>
80003b20:	308effff 	andi	t6,a0,0xffff
80003b24:	25c2000a 	addiu	v0,t6,10
80003b28:	00029c00 	sll	s3,v0,0x10
80003b2c:	00132403 	sra	a0,s3,0x10
80003b30:	00001025 	move	v0,zero
80003b34:	25290001 	addiu	t1,t1,1
80003b38:	24e70004 	addiu	a3,a3,4
80003b3c:	01405825 	move	t3,t2
80003b40:	8cea0000 	lw	t2,0(a3)
80003b44:	00000000 	nop
80003b48:	004a1021 	addu	v0,v0,t2
80003b4c:	0242c02a 	slt	t8,s2,v0
80003b50:	130001bf 	beqz	t8,80004250 <matrix_test+0x1780>
80003b54:	3084ffff 	andi	a0,a0,0xffff
80003b58:	2496000a 	addiu	s6,a0,10
80003b5c:	00167c00 	sll	t7,s6,0x10
80003b60:	000f2403 	sra	a0,t7,0x10
80003b64:	00001025 	move	v0,zero
80003b68:	25290001 	addiu	t1,t1,1
80003b6c:	24e70004 	addiu	a3,a3,4
80003b70:	0140a825 	move	s5,t2
80003b74:	8cea0000 	lw	t2,0(a3)
80003b78:	00000000 	nop
80003b7c:	004a1021 	addu	v0,v0,t2
80003b80:	0242802a 	slt	s0,s2,v0
80003b84:	1200018a 	beqz	s0,800041b0 <matrix_test+0x16e0>
80003b88:	308effff 	andi	t6,a0,0xffff
80003b8c:	25c2000a 	addiu	v0,t6,10
80003b90:	00029c00 	sll	s3,v0,0x10
80003b94:	00132403 	sra	a0,s3,0x10
80003b98:	00001025 	move	v0,zero
80003b9c:	25290001 	addiu	t1,t1,1
80003ba0:	0131582b 	sltu	t3,t1,s1
80003ba4:	1560013f 	bnez	t3,800040a4 <matrix_test+0x15d4>
80003ba8:	24e70004 	addiu	a3,a3,4
80003bac:	24c60001 	addiu	a2,a2,1
80003bb0:	00d1b02b 	sltu	s6,a2,s1
80003bb4:	16c0ffbb 	bnez	s6,80003aa4 <matrix_test+0xfd4>
80003bb8:	00711821 	addu	v1,v1,s1
80003bbc:	0c001f5c 	jal	80007d70 <crc16>
80003bc0:	00009025 	move	s2,zero
80003bc4:	8fb00050 	lw	s0,80(sp)
80003bc8:	0000a825 	move	s5,zero
80003bcc:	00122840 	sll	a1,s2,0x1
80003bd0:	02057821 	addu	t7,s0,a1
80003bd4:	95ee0000 	lhu	t6,0(t7)
80003bd8:	24040001 	li	a0,1
80003bdc:	2637ffff 	addiu	s7,s1,-1
80003be0:	01dec823 	subu	t9,t6,s8
80003be4:	0091502b 	sltu	t2,a0,s1
80003be8:	32f40007 	andi	s4,s7,0x7
80003bec:	a5f90000 	sh	t9,0(t7)
80003bf0:	11400053 	beqz	t2,80003d40 <matrix_test+0x1270>
80003bf4:	25e30002 	addiu	v1,t7,2
80003bf8:	12800035 	beqz	s4,80003cd0 <matrix_test+0x1200>
80003bfc:	00000000 	nop
80003c00:	1284002c 	beq	s4,a0,80003cb4 <matrix_test+0x11e4>
80003c04:	24130002 	li	s3,2
80003c08:	12930025 	beq	s4,s3,80003ca0 <matrix_test+0x11d0>
80003c0c:	240b0003 	li	t3,3
80003c10:	128b001e 	beq	s4,t3,80003c8c <matrix_test+0x11bc>
80003c14:	00000000 	nop
80003c18:	24180004 	li	t8,4
80003c1c:	12980016 	beq	s4,t8,80003c78 <matrix_test+0x11a8>
80003c20:	00000000 	nop
80003c24:	240c0005 	li	t4,5
80003c28:	128c000e 	beq	s4,t4,80003c64 <matrix_test+0x1194>
80003c2c:	00000000 	nop
80003c30:	241f0006 	li	ra,6
80003c34:	129f0006 	beq	s4,ra,80003c50 <matrix_test+0x1180>
80003c38:	00000000 	nop
80003c3c:	95e90002 	lhu	t1,2(t7)
80003c40:	24040002 	li	a0,2
80003c44:	013e6823 	subu	t5,t1,s8
80003c48:	a5ed0002 	sh	t5,2(t7)
80003c4c:	25e30004 	addiu	v1,t7,4
80003c50:	94670000 	lhu	a3,0(v1)
80003c54:	24840001 	addiu	a0,a0,1
80003c58:	00fe4023 	subu	t0,a3,s8
80003c5c:	a4680000 	sh	t0,0(v1)
80003c60:	24630002 	addiu	v1,v1,2
80003c64:	94660000 	lhu	a2,0(v1)
80003c68:	24840001 	addiu	a0,a0,1
80003c6c:	00deb023 	subu	s6,a2,s8
80003c70:	a4760000 	sh	s6,0(v1)
80003c74:	24630002 	addiu	v1,v1,2
80003c78:	94650000 	lhu	a1,0(v1)
80003c7c:	24840001 	addiu	a0,a0,1
80003c80:	00be7823 	subu	t7,a1,s8
80003c84:	a46f0000 	sh	t7,0(v1)
80003c88:	24630002 	addiu	v1,v1,2
80003c8c:	946e0000 	lhu	t6,0(v1)
80003c90:	24840001 	addiu	a0,a0,1
80003c94:	01deb823 	subu	s7,t6,s8
80003c98:	a4770000 	sh	s7,0(v1)
80003c9c:	24630002 	addiu	v1,v1,2
80003ca0:	94790000 	lhu	t9,0(v1)
80003ca4:	24840001 	addiu	a0,a0,1
80003ca8:	033e5023 	subu	t2,t9,s8
80003cac:	a46a0000 	sh	t2,0(v1)
80003cb0:	24630002 	addiu	v1,v1,2
80003cb4:	94740000 	lhu	s4,0(v1)
80003cb8:	24840001 	addiu	a0,a0,1
80003cbc:	029e9823 	subu	s3,s4,s8
80003cc0:	0091582b 	sltu	t3,a0,s1
80003cc4:	a4730000 	sh	s3,0(v1)
80003cc8:	1160001d 	beqz	t3,80003d40 <matrix_test+0x1270>
80003ccc:	24630002 	addiu	v1,v1,2
80003cd0:	94780000 	lhu	t8,0(v1)
80003cd4:	946c0002 	lhu	t4,2(v1)
80003cd8:	947f0004 	lhu	ra,4(v1)
80003cdc:	94690006 	lhu	t1,6(v1)
80003ce0:	94680008 	lhu	t0,8(v1)
80003ce4:	9467000a 	lhu	a3,10(v1)
80003ce8:	9466000c 	lhu	a2,12(v1)
80003cec:	9476000e 	lhu	s6,14(v1)
80003cf0:	24840008 	addiu	a0,a0,8
80003cf4:	031e7823 	subu	t7,t8,s8
80003cf8:	019e7023 	subu	t6,t4,s8
80003cfc:	03fe6823 	subu	t5,ra,s8
80003d00:	013eb823 	subu	s7,t1,s8
80003d04:	011ec823 	subu	t9,t0,s8
80003d08:	00fe5023 	subu	t2,a3,s8
80003d0c:	00dea023 	subu	s4,a2,s8
80003d10:	02de2823 	subu	a1,s6,s8
80003d14:	0091982b 	sltu	s3,a0,s1
80003d18:	a46f0000 	sh	t7,0(v1)
80003d1c:	a46e0002 	sh	t6,2(v1)
80003d20:	a46d0004 	sh	t5,4(v1)
80003d24:	a4770006 	sh	s7,6(v1)
80003d28:	a4790008 	sh	t9,8(v1)
80003d2c:	a46a000a 	sh	t2,10(v1)
80003d30:	a474000c 	sh	s4,12(v1)
80003d34:	a465000e 	sh	a1,14(v1)
80003d38:	1660ffe5 	bnez	s3,80003cd0 <matrix_test+0x1200>
80003d3c:	24630010 	addiu	v1,v1,16
80003d40:	26b50001 	addiu	s5,s5,1
80003d44:	02b1202b 	sltu	a0,s5,s1
80003d48:	1480ffa0 	bnez	a0,80003bcc <matrix_test+0x10fc>
80003d4c:	02519021 	addu	s2,s2,s1
80003d50:	8fbf0044 	lw	ra,68(sp)
80003d54:	00028c00 	sll	s1,v0,0x10
80003d58:	8fbe0040 	lw	s8,64(sp)
80003d5c:	8fb7003c 	lw	s7,60(sp)
80003d60:	8fb60038 	lw	s6,56(sp)
80003d64:	8fb50034 	lw	s5,52(sp)
80003d68:	8fb40030 	lw	s4,48(sp)
80003d6c:	8fb3002c 	lw	s3,44(sp)
80003d70:	8fb20028 	lw	s2,40(sp)
80003d74:	8fb00020 	lw	s0,32(sp)
80003d78:	00111403 	sra	v0,s1,0x10
80003d7c:	8fb10024 	lw	s1,36(sp)
80003d80:	03e00008 	jr	ra
80003d84:	27bd0048 	addiu	sp,sp,72
	...
80003d90:	8d0e0004 	lw	t6,4(t0)
80003d94:	0135482a 	slt	t1,t1,s5
80003d98:	0089a021 	addu	s4,a0,t1
80003d9c:	00146c00 	sll	t5,s4,0x10
80003da0:	02ee7821 	addu	t7,s7,t6
80003da4:	000dfc03 	sra	ra,t5,0x10
80003da8:	024f582a 	slt	t3,s2,t7
80003dac:	254a0001 	addiu	t2,t2,1
80003db0:	25080004 	addiu	t0,t0,4
80003db4:	1160002c 	beqz	t3,80003e68 <matrix_test+0x1398>
80003db8:	33f6ffff 	andi	s6,ra,0xffff
80003dbc:	8d140004 	lw	s4,4(t0)
80003dc0:	26c4000a 	addiu	a0,s6,10
80003dc4:	00007825 	move	t7,zero
80003dc8:	00043c00 	sll	a3,a0,0x10
80003dcc:	01f49821 	addu	s3,t7,s4
80003dd0:	0007ac03 	sra	s5,a3,0x10
80003dd4:	0253482a 	slt	t1,s2,s3
80003dd8:	1120002c 	beqz	t1,80003e8c <matrix_test+0x13bc>
80003ddc:	32adffff 	andi	t5,s5,0xffff
80003de0:	8d090008 	lw	t1,8(t0)
80003de4:	25af000a 	addiu	t7,t5,10
80003de8:	00009825 	move	s3,zero
80003dec:	000f5c00 	sll	t3,t7,0x10
80003df0:	02692821 	addu	a1,s3,t1
80003df4:	000b7403 	sra	t6,t3,0x10
80003df8:	0245c02a 	slt	t8,s2,a1
80003dfc:	1300002c 	beqz	t8,80003eb0 <matrix_test+0x13e0>
80003e00:	31d6ffff 	andi	s6,t6,0xffff
80003e04:	26c7000a 	addiu	a3,s6,10
80003e08:	0007a400 	sll	s4,a3,0x10
80003e0c:	00142403 	sra	a0,s4,0x10
80003e10:	00002825 	move	a1,zero
80003e14:	254a0003 	addiu	t2,t2,3
80003e18:	0151682b 	sltu	t5,t2,s1
80003e1c:	11a0fd89 	beqz	t5,80003444 <matrix_test+0x974>
80003e20:	2508000c 	addiu	t0,t0,12
80003e24:	8d150000 	lw	s5,0(t0)
80003e28:	00000000 	nop
80003e2c:	00b5b821 	addu	s7,a1,s5
80003e30:	0257382a 	slt	a3,s2,s7
80003e34:	10e0ffd6 	beqz	a3,80003d90 <matrix_test+0x12c0>
80003e38:	3084ffff 	andi	a0,a0,0xffff
80003e3c:	8d0e0004 	lw	t6,4(t0)
80003e40:	2493000a 	addiu	s3,a0,10
80003e44:	0000b825 	move	s7,zero
80003e48:	00136400 	sll	t4,s3,0x10
80003e4c:	02ee7821 	addu	t7,s7,t6
80003e50:	000cfc03 	sra	ra,t4,0x10
80003e54:	024f582a 	slt	t3,s2,t7
80003e58:	254a0001 	addiu	t2,t2,1
80003e5c:	25080004 	addiu	t0,t0,4
80003e60:	1560ffd6 	bnez	t3,80003dbc <matrix_test+0x12ec>
80003e64:	33f6ffff 	andi	s6,ra,0xffff
80003e68:	02ae282a 	slt	a1,s5,t6
80003e6c:	8d140004 	lw	s4,4(t0)
80003e70:	02c5c021 	addu	t8,s6,a1
80003e74:	0018cc00 	sll	t9,t8,0x10
80003e78:	01f49821 	addu	s3,t7,s4
80003e7c:	0019ac03 	sra	s5,t9,0x10
80003e80:	0253482a 	slt	t1,s2,s3
80003e84:	1520ffd6 	bnez	t1,80003de0 <matrix_test+0x1310>
80003e88:	32adffff 	andi	t5,s5,0xffff
80003e8c:	01d4602a 	slt	t4,t6,s4
80003e90:	8d090008 	lw	t1,8(t0)
80003e94:	01acf821 	addu	ra,t5,t4
80003e98:	001fbc00 	sll	s7,ra,0x10
80003e9c:	02692821 	addu	a1,s3,t1
80003ea0:	00177403 	sra	t6,s7,0x10
80003ea4:	0245c02a 	slt	t8,s2,a1
80003ea8:	1700ffd6 	bnez	t8,80003e04 <matrix_test+0x1334>
80003eac:	31d6ffff 	andi	s6,t6,0xffff
80003eb0:	0289c82a 	slt	t9,s4,t1
80003eb4:	02d9a821 	addu	s5,s6,t9
80003eb8:	00152400 	sll	a0,s5,0x10
80003ebc:	1000ffd5 	b	80003e14 <matrix_test+0x1344>
80003ec0:	00042403 	sra	a0,a0,0x10
	...
80003ed0:	8cf70004 	lw	s7,4(a3)
80003ed4:	0134482a 	slt	t1,t1,s4
80003ed8:	00899821 	addu	s3,a0,t1
80003edc:	0013b400 	sll	s6,s3,0x10
80003ee0:	03177021 	addu	t6,t8,s7
80003ee4:	00167c03 	sra	t7,s6,0x10
80003ee8:	024ec82a 	slt	t9,s2,t6
80003eec:	25080001 	addiu	t0,t0,1
80003ef0:	24e70004 	addiu	a3,a3,4
80003ef4:	1320002c 	beqz	t9,80003fa8 <matrix_test+0x14d8>
80003ef8:	31edffff 	andi	t5,t7,0xffff
80003efc:	8cf30004 	lw	s3,4(a3)
80003f00:	25a4000a 	addiu	a0,t5,10
80003f04:	00007025 	move	t6,zero
80003f08:	00045c00 	sll	t3,a0,0x10
80003f0c:	01d36021 	addu	t4,t6,s3
80003f10:	000ba403 	sra	s4,t3,0x10
80003f14:	024c482a 	slt	t1,s2,t4
80003f18:	1120002c 	beqz	t1,80003fcc <matrix_test+0x14fc>
80003f1c:	3296ffff 	andi	s6,s4,0xffff
80003f20:	8ce90008 	lw	t1,8(a3)
80003f24:	26ce000a 	addiu	t6,s6,10
80003f28:	00006025 	move	t4,zero
80003f2c:	000ecc00 	sll	t9,t6,0x10
80003f30:	01892821 	addu	a1,t4,t1
80003f34:	0019bc03 	sra	s7,t9,0x10
80003f38:	0245a82a 	slt	s5,s2,a1
80003f3c:	12a0002c 	beqz	s5,80003ff0 <matrix_test+0x1520>
80003f40:	32edffff 	andi	t5,s7,0xffff
80003f44:	25ab000a 	addiu	t3,t5,10
80003f48:	000b9c00 	sll	s3,t3,0x10
80003f4c:	00132403 	sra	a0,s3,0x10
80003f50:	00002825 	move	a1,zero
80003f54:	25080003 	addiu	t0,t0,3
80003f58:	0111b02b 	sltu	s6,t0,s1
80003f5c:	12c0fe30 	beqz	s6,80003820 <matrix_test+0xd50>
80003f60:	24e7000c 	addiu	a3,a3,12
80003f64:	8cf40000 	lw	s4,0(a3)
80003f68:	00000000 	nop
80003f6c:	00b4c021 	addu	t8,a1,s4
80003f70:	0258582a 	slt	t3,s2,t8
80003f74:	1160ffd6 	beqz	t3,80003ed0 <matrix_test+0x1400>
80003f78:	3084ffff 	andi	a0,a0,0xffff
80003f7c:	8cf70004 	lw	s7,4(a3)
80003f80:	248c000a 	addiu	t4,a0,10
80003f84:	0000c025 	move	t8,zero
80003f88:	000cfc00 	sll	ra,t4,0x10
80003f8c:	03177021 	addu	t6,t8,s7
80003f90:	001f7c03 	sra	t7,ra,0x10
80003f94:	024ec82a 	slt	t9,s2,t6
80003f98:	25080001 	addiu	t0,t0,1
80003f9c:	24e70004 	addiu	a3,a3,4
80003fa0:	1720ffd6 	bnez	t9,80003efc <matrix_test+0x142c>
80003fa4:	31edffff 	andi	t5,t7,0xffff
80003fa8:	0297282a 	slt	a1,s4,s7
80003fac:	8cf30004 	lw	s3,4(a3)
80003fb0:	01a5a821 	addu	s5,t5,a1
80003fb4:	00155400 	sll	t2,s5,0x10
80003fb8:	01d36021 	addu	t4,t6,s3
80003fbc:	000aa403 	sra	s4,t2,0x10
80003fc0:	024c482a 	slt	t1,s2,t4
80003fc4:	1520ffd6 	bnez	t1,80003f20 <matrix_test+0x1450>
80003fc8:	3296ffff 	andi	s6,s4,0xffff
80003fcc:	02f3f82a 	slt	ra,s7,s3
80003fd0:	8ce90008 	lw	t1,8(a3)
80003fd4:	02df7821 	addu	t7,s6,ra
80003fd8:	000fc400 	sll	t8,t7,0x10
80003fdc:	01892821 	addu	a1,t4,t1
80003fe0:	0018bc03 	sra	s7,t8,0x10
80003fe4:	0245a82a 	slt	s5,s2,a1
80003fe8:	16a0ffd6 	bnez	s5,80003f44 <matrix_test+0x1474>
80003fec:	32edffff 	andi	t5,s7,0xffff
80003ff0:	0269502a 	slt	t2,s3,t1
80003ff4:	01aaa021 	addu	s4,t5,t2
80003ff8:	00142400 	sll	a0,s4,0x10
80003ffc:	1000ffd5 	b	80003f54 <matrix_test+0x1484>
80004000:	00042403 	sra	a0,a0,0x10
	...
80004010:	8cf00004 	lw	s0,4(a3)
80004014:	0158502a 	slt	t2,t2,t8
80004018:	008af821 	addu	ra,a0,t2
8000401c:	001f6c00 	sll	t5,ra,0x10
80004020:	01d0b821 	addu	s7,t6,s0
80004024:	000dac03 	sra	s5,t5,0x10
80004028:	0257c82a 	slt	t9,s2,s7
8000402c:	25290001 	addiu	t1,t1,1
80004030:	24e70004 	addiu	a3,a3,4
80004034:	1320002c 	beqz	t9,800040e8 <matrix_test+0x1618>
80004038:	32b4ffff 	andi	s4,s5,0xffff
8000403c:	8cff0004 	lw	ra,4(a3)
80004040:	2684000a 	addiu	a0,s4,10
80004044:	0000b825 	move	s7,zero
80004048:	00046400 	sll	t4,a0,0x10
8000404c:	02ffb021 	addu	s6,s7,ra
80004050:	000cc403 	sra	t8,t4,0x10
80004054:	0256502a 	slt	t2,s2,s6
80004058:	1140002c 	beqz	t2,8000410c <matrix_test+0x163c>
8000405c:	330dffff 	andi	t5,t8,0xffff
80004060:	8cea0008 	lw	t2,8(a3)
80004064:	25b7000a 	addiu	s7,t5,10
80004068:	0000b025 	move	s6,zero
8000406c:	0017cc00 	sll	t9,s7,0x10
80004070:	02ca1021 	addu	v0,s6,t2
80004074:	00198403 	sra	s0,t9,0x10
80004078:	0242982a 	slt	s3,s2,v0
8000407c:	1260002c 	beqz	s3,80004130 <matrix_test+0x1660>
80004080:	3214ffff 	andi	s4,s0,0xffff
80004084:	268c000a 	addiu	t4,s4,10
80004088:	000cfc00 	sll	ra,t4,0x10
8000408c:	001f2403 	sra	a0,ra,0x10
80004090:	00001025 	move	v0,zero
80004094:	25290003 	addiu	t1,t1,3
80004098:	0131682b 	sltu	t5,t1,s1
8000409c:	11a0fec3 	beqz	t5,80003bac <matrix_test+0x10dc>
800040a0:	24e7000c 	addiu	a3,a3,12
800040a4:	8cf80000 	lw	t8,0(a3)
800040a8:	00000000 	nop
800040ac:	00587021 	addu	t6,v0,t8
800040b0:	024e602a 	slt	t4,s2,t6
800040b4:	1180ffd6 	beqz	t4,80004010 <matrix_test+0x1540>
800040b8:	3084ffff 	andi	a0,a0,0xffff
800040bc:	8cf00004 	lw	s0,4(a3)
800040c0:	2496000a 	addiu	s6,a0,10
800040c4:	00007025 	move	t6,zero
800040c8:	00167c00 	sll	t7,s6,0x10
800040cc:	01d0b821 	addu	s7,t6,s0
800040d0:	000fac03 	sra	s5,t7,0x10
800040d4:	0257c82a 	slt	t9,s2,s7
800040d8:	25290001 	addiu	t1,t1,1
800040dc:	24e70004 	addiu	a3,a3,4
800040e0:	1720ffd6 	bnez	t9,8000403c <matrix_test+0x156c>
800040e4:	32b4ffff 	andi	s4,s5,0xffff
800040e8:	0310102a 	slt	v0,t8,s0
800040ec:	8cff0004 	lw	ra,4(a3)
800040f0:	02829821 	addu	s3,s4,v0
800040f4:	00135c00 	sll	t3,s3,0x10
800040f8:	02ffb021 	addu	s6,s7,ra
800040fc:	000bc403 	sra	t8,t3,0x10
80004100:	0256502a 	slt	t2,s2,s6
80004104:	1540ffd6 	bnez	t2,80004060 <matrix_test+0x1590>
80004108:	330dffff 	andi	t5,t8,0xffff
8000410c:	021f782a 	slt	t7,s0,ra
80004110:	8cea0008 	lw	t2,8(a3)
80004114:	01afa821 	addu	s5,t5,t7
80004118:	00157400 	sll	t6,s5,0x10
8000411c:	02ca1021 	addu	v0,s6,t2
80004120:	000e8403 	sra	s0,t6,0x10
80004124:	0242982a 	slt	s3,s2,v0
80004128:	1660ffd6 	bnez	s3,80004084 <matrix_test+0x15b4>
8000412c:	3214ffff 	andi	s4,s0,0xffff
80004130:	03ea582a 	slt	t3,ra,t2
80004134:	028bc021 	addu	t8,s4,t3
80004138:	00182400 	sll	a0,t8,0x10
8000413c:	1000ffd5 	b	80004094 <matrix_test+0x15c4>
80004140:	00042403 	sra	a0,a0,0x10
	...
80004150:	01c9582a 	slt	t3,t6,t1
80004154:	008b5021 	addu	t2,a0,t3
80004158:	000aa400 	sll	s4,t2,0x10
8000415c:	1000fd7c 	b	80003750 <matrix_test+0xc80>
80004160:	00142403 	sra	a0,s4,0x10
	...
80004170:	01e9a82a 	slt	s5,t7,t1
80004174:	00953821 	addu	a3,a0,s5
80004178:	0007a400 	sll	s4,a3,0x10
8000417c:	1000fc7e 	b	80003378 <matrix_test+0x8a8>
80004180:	00142403 	sra	a0,s4,0x10
	...
80004190:	032a202a 	slt	a0,t9,t2
80004194:	0124c021 	addu	t8,t1,a0
80004198:	00186400 	sll	t4,t8,0x10
8000419c:	1000fe4f 	b	80003adc <matrix_test+0x100c>
800041a0:	000c2403 	sra	a0,t4,0x10
	...
800041b0:	02aab82a 	slt	s7,s5,t2
800041b4:	01d7c821 	addu	t9,t6,s7
800041b8:	0019a400 	sll	s4,t9,0x10
800041bc:	1000fe77 	b	80003b9c <matrix_test+0x10cc>
800041c0:	00142403 	sra	a0,s4,0x10
	...
800041d0:	01e9702a 	slt	t6,t7,t1
800041d4:	030ec821 	addu	t9,t8,t6
800041d8:	00196c00 	sll	t5,t9,0x10
800041dc:	1000fd8c 	b	80003810 <matrix_test+0xd40>
800041e0:	000d2403 	sra	a0,t5,0x10
	...
800041f0:	03e9702a 	slt	t6,ra,t1
800041f4:	02ee7821 	addu	t7,s7,t6
800041f8:	000fb400 	sll	s6,t7,0x10
800041fc:	1000fc8d 	b	80003434 <matrix_test+0x964>
80004200:	00162403 	sra	a0,s6,0x10
	...
80004210:	0149a02a 	slt	s4,t2,t1
80004214:	00949821 	addu	s3,a0,s4
80004218:	0013b400 	sll	s6,s3,0x10
8000421c:	1000fd6f 	b	800037dc <matrix_test+0xd0c>
80004220:	00162403 	sra	a0,s6,0x10
	...
80004230:	0329382a 	slt	a3,t9,t1
80004234:	0087a021 	addu	s4,a0,a3
80004238:	00146c00 	sll	t5,s4,0x10
8000423c:	1000fc70 	b	80003400 <matrix_test+0x930>
80004240:	000d2403 	sra	a0,t5,0x10
	...
80004250:	016a602a 	slt	t4,t3,t2
80004254:	008cf821 	addu	ra,a0,t4
80004258:	001f6c00 	sll	t5,ra,0x10
8000425c:	1000fe42 	b	80003b68 <matrix_test+0x1098>
80004260:	000d2403 	sra	a0,t5,0x10
	...
80004270:	02aab82a 	slt	s7,s5,t2
80004274:	01d7c821 	addu	t9,t6,s7
80004278:	0019a400 	sll	s4,t9,0x10
8000427c:	1000fe2d 	b	80003b34 <matrix_test+0x1064>
80004280:	00142403 	sra	a0,s4,0x10
	...
80004290:	01e9702a 	slt	t6,t7,t1
80004294:	030ec821 	addu	t9,t8,t6
80004298:	00196c00 	sll	t5,t9,0x10
8000429c:	1000fd42 	b	800037a8 <matrix_test+0xcd8>
800042a0:	000d2403 	sra	a0,t5,0x10
	...
800042b0:	03e9702a 	slt	t6,ra,t1
800042b4:	02ee7821 	addu	t7,s7,t6
800042b8:	000fb400 	sll	s6,t7,0x10
800042bc:	1000fc43 	b	800033cc <matrix_test+0x8fc>
800042c0:	00162403 	sra	a0,s6,0x10
800042c4:	0c001f5c 	jal	80007d70 <crc16>
800042c8:	00002825 	move	a1,zero
800042cc:	00402825 	move	a1,v0
800042d0:	0c001f5c 	jal	80007d70 <crc16>
800042d4:	00002025 	move	a0,zero
800042d8:	00402825 	move	a1,v0
800042dc:	0c001f5c 	jal	80007d70 <crc16>
800042e0:	00002025 	move	a0,zero
800042e4:	00402825 	move	a1,v0
800042e8:	0c001f5c 	jal	80007d70 <crc16>
800042ec:	00002025 	move	a0,zero
800042f0:	1000fe97 	b	80003d50 <matrix_test+0x1280>
800042f4:	00000000 	nop
	...

80004300 <core_init_matrix>:
core_init_matrix():
80004300:	27bdffd8 	addiu	sp,sp,-40
80004304:	afbe0024 	sw	s8,36(sp)
80004308:	afb70020 	sw	s7,32(sp)
8000430c:	afb6001c 	sw	s6,28(sp)
80004310:	afb50018 	sw	s5,24(sp)
80004314:	afb40014 	sw	s4,20(sp)
80004318:	afb30010 	sw	s3,16(sp)
8000431c:	afb2000c 	sw	s2,12(sp)
80004320:	afb10008 	sw	s1,8(sp)
80004324:	14c00002 	bnez	a2,80004330 <core_init_matrix+0x30>
80004328:	afb00004 	sw	s0,4(sp)
8000432c:	24060001 	li	a2,1
80004330:	24a5ffff 	addiu	a1,a1,-1
80004334:	240ffffc 	li	t7,-4
80004338:	00af1024 	and	v0,a1,t7
8000433c:	24500004 	addiu	s0,v0,4
80004340:	10800105 	beqz	a0,80004758 <core_init_matrix+0x458>
80004344:	00001825 	move	v1,zero
80004348:	246a0001 	addiu	t2,v1,1
8000434c:	014a0018 	mult	t2,t2
80004350:	246c0002 	addiu	t4,v1,2
80004354:	246d0003 	addiu	t5,v1,3
80004358:	246e0004 	addiu	t6,v1,4
8000435c:	246b0005 	addiu	t3,v1,5
80004360:	24680006 	addiu	t0,v1,6
80004364:	24690007 	addiu	t1,v1,7
80004368:	00601025 	move	v0,v1
8000436c:	00009012 	mflo	s2
80004370:	001298c0 	sll	s3,s2,0x3
80004374:	0264a02b 	sltu	s4,s3,a0
80004378:	1280002c 	beqz	s4,8000442c <core_init_matrix+0x12c>
8000437c:	24630008 	addiu	v1,v1,8
80004380:	018c0018 	mult	t4,t4
80004384:	0000a812 	mflo	s5
80004388:	0015b0c0 	sll	s6,s5,0x3
8000438c:	02c4b82b 	sltu	s7,s6,a0
80004390:	12e00026 	beqz	s7,8000442c <core_init_matrix+0x12c>
80004394:	01401025 	move	v0,t2
80004398:	01ad0018 	mult	t5,t5
8000439c:	0000c812 	mflo	t9
800043a0:	0019f0c0 	sll	s8,t9,0x3
800043a4:	03c4282b 	sltu	a1,s8,a0
800043a8:	10a00020 	beqz	a1,8000442c <core_init_matrix+0x12c>
800043ac:	01801025 	move	v0,t4
800043b0:	01ce0018 	mult	t6,t6
800043b4:	00007812 	mflo	t7
800043b8:	000f88c0 	sll	s1,t7,0x3
800043bc:	0224c02b 	sltu	t8,s1,a0
800043c0:	1300001a 	beqz	t8,8000442c <core_init_matrix+0x12c>
800043c4:	01a01025 	move	v0,t5
800043c8:	016b0018 	mult	t3,t3
800043cc:	00005012 	mflo	t2
800043d0:	000a60c0 	sll	t4,t2,0x3
800043d4:	0184682b 	sltu	t5,t4,a0
800043d8:	11a00014 	beqz	t5,8000442c <core_init_matrix+0x12c>
800043dc:	01c01025 	move	v0,t6
800043e0:	01080018 	mult	t0,t0
800043e4:	01601025 	move	v0,t3
800043e8:	00007012 	mflo	t6
800043ec:	000e58c0 	sll	t3,t6,0x3
800043f0:	0164902b 	sltu	s2,t3,a0
800043f4:	1240000d 	beqz	s2,8000442c <core_init_matrix+0x12c>
800043f8:	01290018 	mult	t1,t1
800043fc:	01001025 	move	v0,t0
80004400:	00004012 	mflo	t0
80004404:	000898c0 	sll	s3,t0,0x3
80004408:	0264a02b 	sltu	s4,s3,a0
8000440c:	12800007 	beqz	s4,8000442c <core_init_matrix+0x12c>
80004410:	00630018 	mult	v1,v1
80004414:	01201025 	move	v0,t1
80004418:	00004812 	mflo	t1
8000441c:	0009a8c0 	sll	s5,t1,0x3
80004420:	02a4b02b 	sltu	s6,s5,a0
80004424:	16c0ffc9 	bnez	s6,8000434c <core_init_matrix+0x4c>
80004428:	246a0001 	addiu	t2,v1,1
8000442c:	00420018 	mult	v0,v0
80004430:	00408825 	move	s1,v0
80004434:	00002012 	mflo	a0
80004438:	0004c040 	sll	t8,a0,0x1
8000443c:	104000b0 	beqz	v0,80004700 <core_init_matrix+0x400>
80004440:	02187821 	addu	t7,s0,t8
80004444:	3c038000 	lui	v1,0x8000
80004448:	00007025 	move	t6,zero
8000444c:	00006825 	move	t5,zero
80004450:	240b0001 	li	t3,1
80004454:	020f5023 	subu	t2,s0,t7
80004458:	3469ffff 	ori	t1,v1,0xffff
8000445c:	3c0cffff 	lui	t4,0xffff
80004460:	2459ffff 	addiu	t9,v0,-1
80004464:	00cb0018 	mult	a2,t3
80004468:	000eb840 	sll	s7,t6,0x1
8000446c:	245effff 	addiu	s8,v0,-1
80004470:	02ef4021 	addu	t0,s7,t7
80004474:	00003012 	mflo	a2
80004478:	00c9b024 	and	s6,a2,t1
8000447c:	06c10004 	bgez	s6,80004490 <core_init_matrix+0x190>
80004480:	33d30003 	andi	s3,s8,0x3
80004484:	26c5ffff 	addiu	a1,s6,-1
80004488:	00ac9025 	or	s2,a1,t4
8000448c:	26560001 	addiu	s6,s2,1
80004490:	3174ffff 	andi	s4,t3,0xffff
80004494:	0296a821 	addu	s5,s4,s6
80004498:	32a4ffff 	andi	a0,s5,0xffff
8000449c:	00941821 	addu	v1,a0,s4
800044a0:	24120001 	li	s2,1
800044a4:	307e00ff 	andi	s8,v1,0xff
800044a8:	0148b821 	addu	s7,t2,t0
800044ac:	0242282b 	sltu	a1,s2,v0
800044b0:	a5040000 	sh	a0,0(t0)
800044b4:	02c03025 	move	a2,s6
800044b8:	a6fe0000 	sh	s8,0(s7)
800044bc:	25640001 	addiu	a0,t3,1
800044c0:	10a00087 	beqz	a1,800046e0 <core_init_matrix+0x3e0>
800044c4:	25030002 	addiu	v1,t0,2
800044c8:	1260003e 	beqz	s3,800045c4 <core_init_matrix+0x2c4>
800044cc:	00c40018 	mult	a2,a0
800044d0:	12720028 	beq	s3,s2,80004574 <core_init_matrix+0x274>
800044d4:	24150002 	li	s5,2
800044d8:	12750014 	beq	s3,s5,8000452c <core_init_matrix+0x22c>
800044dc:	00000000 	nop
800044e0:	02c40018 	mult	s6,a0
800044e4:	00003012 	mflo	a2
800044e8:	00c93024 	and	a2,a2,t1
800044ec:	04c10004 	bgez	a2,80004500 <core_init_matrix+0x200>
800044f0:	3097ffff 	andi	s7,a0,0xffff
800044f4:	24d3ffff 	addiu	s3,a2,-1
800044f8:	026cb025 	or	s6,s3,t4
800044fc:	26c60001 	addiu	a2,s6,1
80004500:	02e6f021 	addu	s8,s7,a2
80004504:	33d5ffff 	andi	s5,s8,0xffff
80004508:	02b72821 	addu	a1,s5,s7
8000450c:	0143a021 	addu	s4,t2,v1
80004510:	30b300ff 	andi	s3,a1,0xff
80004514:	a5150002 	sh	s5,2(t0)
80004518:	24840001 	addiu	a0,a0,1
8000451c:	a6930000 	sh	s3,0(s4)
80004520:	26520001 	addiu	s2,s2,1
80004524:	24630002 	addiu	v1,v1,2
80004528:	00c40018 	mult	a2,a0
8000452c:	00004012 	mflo	t0
80004530:	01093024 	and	a2,t0,t1
80004534:	04c10004 	bgez	a2,80004548 <core_init_matrix+0x248>
80004538:	3097ffff 	andi	s7,a0,0xffff
8000453c:	24c6ffff 	addiu	a2,a2,-1
80004540:	00ccb025 	or	s6,a2,t4
80004544:	26c60001 	addiu	a2,s6,1
80004548:	02e6f021 	addu	s8,s7,a2
8000454c:	33d5ffff 	andi	s5,s8,0xffff
80004550:	02b72821 	addu	a1,s5,s7
80004554:	0143a021 	addu	s4,t2,v1
80004558:	30b300ff 	andi	s3,a1,0xff
8000455c:	a4750000 	sh	s5,0(v1)
80004560:	24840001 	addiu	a0,a0,1
80004564:	a6930000 	sh	s3,0(s4)
80004568:	26520001 	addiu	s2,s2,1
8000456c:	24630002 	addiu	v1,v1,2
80004570:	00c40018 	mult	a2,a0
80004574:	00004012 	mflo	t0
80004578:	01093024 	and	a2,t0,t1
8000457c:	04c10004 	bgez	a2,80004590 <core_init_matrix+0x290>
80004580:	3097ffff 	andi	s7,a0,0xffff
80004584:	24c6ffff 	addiu	a2,a2,-1
80004588:	00ccb025 	or	s6,a2,t4
8000458c:	26c60001 	addiu	a2,s6,1
80004590:	02e6f021 	addu	s8,s7,a2
80004594:	33d5ffff 	andi	s5,s8,0xffff
80004598:	02b72821 	addu	a1,s5,s7
8000459c:	26520001 	addiu	s2,s2,1
800045a0:	0143a021 	addu	s4,t2,v1
800045a4:	30a800ff 	andi	t0,a1,0xff
800045a8:	0242982b 	sltu	s3,s2,v0
800045ac:	a4750000 	sh	s5,0(v1)
800045b0:	24840001 	addiu	a0,a0,1
800045b4:	a6880000 	sh	t0,0(s4)
800045b8:	12600049 	beqz	s3,800046e0 <core_init_matrix+0x3e0>
800045bc:	24630002 	addiu	v1,v1,2
800045c0:	00c40018 	mult	a2,a0
800045c4:	24880001 	addiu	t0,a0,1
800045c8:	3096ffff 	andi	s6,a0,0xffff
800045cc:	0143b821 	addu	s7,t2,v1
800045d0:	24650002 	addiu	a1,v1,2
800045d4:	26520001 	addiu	s2,s2,1
800045d8:	00003012 	mflo	a2
800045dc:	00c9a824 	and	s5,a2,t1
800045e0:	26a4ffff 	addiu	a0,s5,-1
800045e4:	06a10002 	bgez	s5,800045f0 <core_init_matrix+0x2f0>
800045e8:	008cf025 	or	s8,a0,t4
800045ec:	27d50001 	addiu	s5,s8,1
800045f0:	02a80018 	mult	s5,t0
800045f4:	02d59821 	addu	s3,s6,s5
800045f8:	3266ffff 	andi	a2,s3,0xffff
800045fc:	00d6b021 	addu	s6,a2,s6
80004600:	32c400ff 	andi	a0,s6,0xff
80004604:	a4660000 	sh	a2,0(v1)
80004608:	0000a012 	mflo	s4
8000460c:	0289f024 	and	s8,s4,t1
80004610:	07c10004 	bgez	s8,80004624 <core_init_matrix+0x324>
80004614:	a6e40000 	sh	a0,0(s7)
80004618:	27c3ffff 	addiu	v1,s8,-1
8000461c:	006cb825 	or	s7,v1,t4
80004620:	26fe0001 	addiu	s8,s7,1
80004624:	25140001 	addiu	s4,t0,1
80004628:	03d40018 	mult	s8,s4
8000462c:	3115ffff 	andi	s5,t0,0xffff
80004630:	02beb021 	addu	s6,s5,s8
80004634:	32c4ffff 	andi	a0,s6,0xffff
80004638:	0095f021 	addu	s8,a0,s5
8000463c:	0145b821 	addu	s7,t2,a1
80004640:	33d600ff 	andi	s6,s8,0xff
80004644:	a4a40000 	sh	a0,0(a1)
80004648:	25060002 	addiu	a2,t0,2
8000464c:	26520003 	addiu	s2,s2,3
80004650:	a6f60000 	sh	s6,0(s7)
80004654:	24b70002 	addiu	s7,a1,2
80004658:	00001812 	mflo	v1
8000465c:	00691824 	and	v1,v1,t1
80004660:	2464ffff 	addiu	a0,v1,-1
80004664:	3293ffff 	andi	s3,s4,0xffff
80004668:	008cf025 	or	s8,a0,t4
8000466c:	30d4ffff 	andi	s4,a2,0xffff
80004670:	0242a82b 	sltu	s5,s2,v0
80004674:	04610002 	bgez	v1,80004680 <core_init_matrix+0x380>
80004678:	01572021 	addu	a0,t2,s7
8000467c:	27c30001 	addiu	v1,s8,1
80004680:	00660018 	mult	v1,a2
80004684:	0263b021 	addu	s6,s3,v1
80004688:	32deffff 	andi	s8,s6,0xffff
8000468c:	03d39821 	addu	s3,s8,s3
80004690:	327700ff 	andi	s7,s3,0xff
80004694:	a4be0002 	sh	s8,2(a1)
80004698:	24a30004 	addiu	v1,a1,4
8000469c:	a4970000 	sh	s7,0(a0)
800046a0:	25040003 	addiu	a0,t0,3
800046a4:	0143b021 	addu	s6,t2,v1
800046a8:	24a30006 	addiu	v1,a1,6
800046ac:	00003012 	mflo	a2
800046b0:	00c93024 	and	a2,a2,t1
800046b4:	24c8ffff 	addiu	t0,a2,-1
800046b8:	04c10002 	bgez	a2,800046c4 <core_init_matrix+0x3c4>
800046bc:	010cf025 	or	s8,t0,t4
800046c0:	27c60001 	addiu	a2,s8,1
800046c4:	02869821 	addu	s3,s4,a2
800046c8:	3277ffff 	andi	s7,s3,0xffff
800046cc:	02f4a021 	addu	s4,s7,s4
800046d0:	328800ff 	andi	t0,s4,0xff
800046d4:	a4b70004 	sh	s7,4(a1)
800046d8:	16a0ffb9 	bnez	s5,800045c0 <core_init_matrix+0x2c0>
800046dc:	a6c80000 	sh	t0,0(s6)
800046e0:	1040001b 	beqz	v0,80004750 <core_init_matrix+0x450>
800046e4:	256b0001 	addiu	t3,t3,1
800046e8:	03202825 	move	a1,t9
800046ec:	25ad0001 	addiu	t5,t5,1
800046f0:	01a2902b 	sltu	s2,t5,v0
800046f4:	00ab5821 	addu	t3,a1,t3
800046f8:	1640ff5a 	bnez	s2,80004464 <core_init_matrix+0x164>
800046fc:	01c27021 	addu	t6,t6,v0
80004700:	01f8c021 	addu	t8,t7,t8
80004704:	270effff 	addiu	t6,t8,-1
80004708:	240dfffc 	li	t5,-4
8000470c:	01cd5024 	and	t2,t6,t5
80004710:	25490004 	addiu	t1,t2,4
80004714:	8fbe0024 	lw	s8,36(sp)
80004718:	8fb70020 	lw	s7,32(sp)
8000471c:	8fb6001c 	lw	s6,28(sp)
80004720:	8fb50018 	lw	s5,24(sp)
80004724:	8fb40014 	lw	s4,20(sp)
80004728:	8fb30010 	lw	s3,16(sp)
8000472c:	8fb2000c 	lw	s2,12(sp)
80004730:	acf00004 	sw	s0,4(a3)
80004734:	acf10000 	sw	s1,0(a3)
80004738:	8fb00004 	lw	s0,4(sp)
8000473c:	8fb10008 	lw	s1,8(sp)
80004740:	acef0008 	sw	t7,8(a3)
80004744:	ace9000c 	sw	t1,12(a3)
80004748:	03e00008 	jr	ra
8000474c:	27bd0028 	addiu	sp,sp,40
80004750:	1000ffe6 	b	800046ec <core_init_matrix+0x3ec>
80004754:	00002825 	move	a1,zero
80004758:	244f0006 	addiu	t7,v0,6
8000475c:	2411ffff 	li	s1,-1
80004760:	2402ffff 	li	v0,-1
80004764:	1000ff37 	b	80004444 <core_init_matrix+0x144>
80004768:	24180002 	li	t8,2
8000476c:	00000000 	nop

80004770 <matrix_sum>:
matrix_sum():
80004770:	108000a3 	beqz	a0,80004a00 <matrix_sum+0x290>
80004774:	00044023 	negu	t0,a0
80004778:	00041880 	sll	v1,a0,0x2
8000477c:	00084880 	sll	t1,t0,0x2
80004780:	00a31821 	addu	v1,a1,v1
80004784:	00003825 	move	a3,zero
80004788:	00001025 	move	v0,zero
8000478c:	00006025 	move	t4,zero
80004790:	00005825 	move	t3,zero
80004794:	000840c0 	sll	t0,t0,0x3
80004798:	01232821 	addu	a1,t1,v1
8000479c:	00656823 	subu	t5,v1,a1
800047a0:	25aafffc 	addiu	t2,t5,-4
800047a4:	000a7082 	srl	t6,t2,0x2
800047a8:	25cf0001 	addiu	t7,t6,1
800047ac:	31f80003 	andi	t8,t7,0x3
800047b0:	13000056 	beqz	t8,8000490c <matrix_sum+0x19c>
800047b4:	00a05025 	move	t2,a1
800047b8:	24190001 	li	t9,1
800047bc:	1319001b 	beq	t8,t9,8000482c <matrix_sum+0xbc>
800047c0:	240d0002 	li	t5,2
800047c4:	130d000e 	beq	t8,t5,80004800 <matrix_sum+0x90>
800047c8:	01807825 	move	t7,t4
800047cc:	01807025 	move	t6,t4
800047d0:	8cac0000 	lw	t4,0(a1)
800047d4:	304affff 	andi	t2,v0,0xffff
800047d8:	016c5821 	addu	t3,t3,t4
800047dc:	00cb102a 	slt	v0,a2,t3
800047e0:	10400083 	beqz	v0,800049f0 <matrix_sum+0x280>
800047e4:	01cc782a 	slt	t7,t6,t4
800047e8:	254b000a 	addiu	t3,t2,10
800047ec:	000b6c00 	sll	t5,t3,0x10
800047f0:	000d1403 	sra	v0,t5,0x10
800047f4:	00005825 	move	t3,zero
800047f8:	24aa0004 	addiu	t2,a1,4
800047fc:	01807825 	move	t7,t4
80004800:	8d4c0000 	lw	t4,0(t2)
80004804:	00000000 	nop
80004808:	016c5821 	addu	t3,t3,t4
8000480c:	00cb702a 	slt	t6,a2,t3
80004810:	11c0006f 	beqz	t6,800049d0 <matrix_sum+0x260>
80004814:	3042ffff 	andi	v0,v0,0xffff
80004818:	244b000a 	addiu	t3,v0,10
8000481c:	000b7c00 	sll	t7,t3,0x10
80004820:	000f1403 	sra	v0,t7,0x10
80004824:	00005825 	move	t3,zero
80004828:	254a0004 	addiu	t2,t2,4
8000482c:	0180c025 	move	t8,t4
80004830:	8d4c0000 	lw	t4,0(t2)
80004834:	00000000 	nop
80004838:	016c5821 	addu	t3,t3,t4
8000483c:	00cb702a 	slt	t6,a2,t3
80004840:	11c0005b 	beqz	t6,800049b0 <matrix_sum+0x240>
80004844:	3042ffff 	andi	v0,v0,0xffff
80004848:	244b000a 	addiu	t3,v0,10
8000484c:	000bc400 	sll	t8,t3,0x10
80004850:	00181403 	sra	v0,t8,0x10
80004854:	00005825 	move	t3,zero
80004858:	254a0004 	addiu	t2,t2,4
8000485c:	146a002b 	bne	v1,t2,8000490c <matrix_sum+0x19c>
80004860:	00000000 	nop
80004864:	24e70001 	addiu	a3,a3,1
80004868:	1487ffcb 	bne	a0,a3,80004798 <matrix_sum+0x28>
8000486c:	00a81823 	subu	v1,a1,t0
80004870:	03e00008 	jr	ra
80004874:	00000000 	nop
	...
80004880:	0199602a 	slt	t4,t4,t9
80004884:	004c6821 	addu	t5,v0,t4
80004888:	8d4c0004 	lw	t4,4(t2)
8000488c:	000d7c00 	sll	t7,t5,0x10
80004890:	000f1403 	sra	v0,t7,0x10
80004894:	016c7821 	addu	t7,t3,t4
80004898:	00cf702a 	slt	t6,a2,t7
8000489c:	254a0004 	addiu	t2,t2,4
800048a0:	11c0002a 	beqz	t6,8000494c <matrix_sum+0x1dc>
800048a4:	3058ffff 	andi	t8,v0,0xffff
800048a8:	270f000a 	addiu	t7,t8,10
800048ac:	8d580004 	lw	t8,4(t2)
800048b0:	000f7400 	sll	t6,t7,0x10
800048b4:	00007825 	move	t7,zero
800048b8:	01f86821 	addu	t5,t7,t8
800048bc:	000e5c03 	sra	t3,t6,0x10
800048c0:	00cd102a 	slt	v0,a2,t5
800048c4:	1040002a 	beqz	v0,80004970 <matrix_sum+0x200>
800048c8:	3179ffff 	andi	t9,t3,0xffff
800048cc:	2739000a 	addiu	t9,t9,10
800048d0:	00196c00 	sll	t5,t9,0x10
800048d4:	8d4c0008 	lw	t4,8(t2)
800048d8:	000d7403 	sra	t6,t5,0x10
800048dc:	00006825 	move	t5,zero
800048e0:	01ac5821 	addu	t3,t5,t4
800048e4:	00cb782a 	slt	t7,a2,t3
800048e8:	11e0002a 	beqz	t7,80004994 <matrix_sum+0x224>
800048ec:	31c2ffff 	andi	v0,t6,0xffff
800048f0:	244d000a 	addiu	t5,v0,10
800048f4:	000d1400 	sll	v0,t5,0x10
800048f8:	00021403 	sra	v0,v0,0x10
800048fc:	00005825 	move	t3,zero
80004900:	254a000c 	addiu	t2,t2,12
80004904:	106affd7 	beq	v1,t2,80004864 <matrix_sum+0xf4>
80004908:	00000000 	nop
8000490c:	8d590000 	lw	t9,0(t2)
80004910:	00000000 	nop
80004914:	01795821 	addu	t3,t3,t9
80004918:	00cb702a 	slt	t6,a2,t3
8000491c:	11c0ffd8 	beqz	t6,80004880 <matrix_sum+0x110>
80004920:	3042ffff 	andi	v0,v0,0xffff
80004924:	244b000a 	addiu	t3,v0,10
80004928:	8d4c0004 	lw	t4,4(t2)
8000492c:	000bc400 	sll	t8,t3,0x10
80004930:	00005825 	move	t3,zero
80004934:	016c7821 	addu	t7,t3,t4
80004938:	00181403 	sra	v0,t8,0x10
8000493c:	00cf702a 	slt	t6,a2,t7
80004940:	254a0004 	addiu	t2,t2,4
80004944:	15c0ffd8 	bnez	t6,800048a8 <matrix_sum+0x138>
80004948:	3058ffff 	andi	t8,v0,0xffff
8000494c:	032cc82a 	slt	t9,t9,t4
80004950:	03196821 	addu	t5,t8,t9
80004954:	8d580004 	lw	t8,4(t2)
80004958:	000d1400 	sll	v0,t5,0x10
8000495c:	01f86821 	addu	t5,t7,t8
80004960:	00025c03 	sra	t3,v0,0x10
80004964:	00cd102a 	slt	v0,a2,t5
80004968:	1440ffd8 	bnez	v0,800048cc <matrix_sum+0x15c>
8000496c:	3179ffff 	andi	t9,t3,0xffff
80004970:	0198602a 	slt	t4,t4,t8
80004974:	032c5821 	addu	t3,t9,t4
80004978:	8d4c0008 	lw	t4,8(t2)
8000497c:	000b7c00 	sll	t7,t3,0x10
80004980:	01ac5821 	addu	t3,t5,t4
80004984:	000f7403 	sra	t6,t7,0x10
80004988:	00cb782a 	slt	t7,a2,t3
8000498c:	15e0ffd8 	bnez	t7,800048f0 <matrix_sum+0x180>
80004990:	31c2ffff 	andi	v0,t6,0xffff
80004994:	030cc02a 	slt	t8,t8,t4
80004998:	00587021 	addu	t6,v0,t8
8000499c:	000ecc00 	sll	t9,t6,0x10
800049a0:	1000ffd7 	b	80004900 <matrix_sum+0x190>
800049a4:	00191403 	sra	v0,t9,0x10
	...
800049b0:	030cc82a 	slt	t9,t8,t4
800049b4:	00596821 	addu	t5,v0,t9
800049b8:	000d7c00 	sll	t7,t5,0x10
800049bc:	1000ffa6 	b	80004858 <matrix_sum+0xe8>
800049c0:	000f1403 	sra	v0,t7,0x10
	...
800049d0:	01ecc02a 	slt	t8,t7,t4
800049d4:	0058c821 	addu	t9,v0,t8
800049d8:	00196c00 	sll	t5,t9,0x10
800049dc:	1000ff92 	b	80004828 <matrix_sum+0xb8>
800049e0:	000d1403 	sra	v0,t5,0x10
	...
800049f0:	014fc021 	addu	t8,t2,t7
800049f4:	0018cc00 	sll	t9,t8,0x10
800049f8:	1000ff7f 	b	800047f8 <matrix_sum+0x88>
800049fc:	00191403 	sra	v0,t9,0x10
80004a00:	03e00008 	jr	ra
80004a04:	00001025 	move	v0,zero
	...

80004a10 <matrix_mul_const>:
matrix_mul_const():
80004a10:	108000c4 	beqz	a0,80004d24 <matrix_mul_const+0x314>
80004a14:	00047823 	negu	t7,a0
80004a18:	00044040 	sll	t0,a0,0x1
80004a1c:	000fc040 	sll	t8,t7,0x1
80004a20:	00c84021 	addu	t0,a2,t0
80004a24:	00006825 	move	t5,zero
80004a28:	00007025 	move	t6,zero
80004a2c:	000f7880 	sll	t7,t7,0x2
80004a30:	03084821 	addu	t1,t8,t0
80004a34:	01093023 	subu	a2,t0,t1
80004a38:	24c2fffe 	addiu	v0,a2,-2
80004a3c:	00021842 	srl	v1,v0,0x1
80004a40:	246a0001 	addiu	t2,v1,1
80004a44:	000d5880 	sll	t3,t5,0x2
80004a48:	314c0007 	andi	t4,t2,0x7
80004a4c:	00ab1021 	addu	v0,a1,t3
80004a50:	11800039 	beqz	t4,80004b38 <matrix_mul_const+0x128>
80004a54:	01201825 	move	v1,t1
80004a58:	24190001 	li	t9,1
80004a5c:	1199002f 	beq	t4,t9,80004b1c <matrix_mul_const+0x10c>
80004a60:	24060002 	li	a2,2
80004a64:	11860027 	beq	t4,a2,80004b04 <matrix_mul_const+0xf4>
80004a68:	240a0003 	li	t2,3
80004a6c:	118a001f 	beq	t4,t2,80004aec <matrix_mul_const+0xdc>
80004a70:	240b0004 	li	t3,4
80004a74:	118b0017 	beq	t4,t3,80004ad4 <matrix_mul_const+0xc4>
80004a78:	24190005 	li	t9,5
80004a7c:	1199000f 	beq	t4,t9,80004abc <matrix_mul_const+0xac>
80004a80:	24060006 	li	a2,6
80004a84:	11860007 	beq	t4,a2,80004aa4 <matrix_mul_const+0x94>
80004a88:	00000000 	nop
80004a8c:	852c0000 	lh	t4,0(t1)
80004a90:	25230002 	addiu	v1,t1,2
80004a94:	01870018 	mult	t4,a3
80004a98:	24420004 	addiu	v0,v0,4
80004a9c:	00005012 	mflo	t2
80004aa0:	ac4afffc 	sw	t2,-4(v0)
80004aa4:	846b0000 	lh	t3,0(v1)
80004aa8:	24420004 	addiu	v0,v0,4
80004aac:	01670018 	mult	t3,a3
80004ab0:	24630002 	addiu	v1,v1,2
80004ab4:	0000c812 	mflo	t9
80004ab8:	ac59fffc 	sw	t9,-4(v0)
80004abc:	84660000 	lh	a2,0(v1)
80004ac0:	24420004 	addiu	v0,v0,4
80004ac4:	00c70018 	mult	a2,a3
80004ac8:	24630002 	addiu	v1,v1,2
80004acc:	00006012 	mflo	t4
80004ad0:	ac4cfffc 	sw	t4,-4(v0)
80004ad4:	846a0000 	lh	t2,0(v1)
80004ad8:	24420004 	addiu	v0,v0,4
80004adc:	01470018 	mult	t2,a3
80004ae0:	24630002 	addiu	v1,v1,2
80004ae4:	00005812 	mflo	t3
80004ae8:	ac4bfffc 	sw	t3,-4(v0)
80004aec:	84790000 	lh	t9,0(v1)
80004af0:	24420004 	addiu	v0,v0,4
80004af4:	03270018 	mult	t9,a3
80004af8:	24630002 	addiu	v1,v1,2
80004afc:	00003012 	mflo	a2
80004b00:	ac46fffc 	sw	a2,-4(v0)
80004b04:	846c0000 	lh	t4,0(v1)
80004b08:	24420004 	addiu	v0,v0,4
80004b0c:	01870018 	mult	t4,a3
80004b10:	24630002 	addiu	v1,v1,2
80004b14:	00005012 	mflo	t2
80004b18:	ac4afffc 	sw	t2,-4(v0)
80004b1c:	846b0000 	lh	t3,0(v1)
80004b20:	24420004 	addiu	v0,v0,4
80004b24:	01670018 	mult	t3,a3
80004b28:	24630002 	addiu	v1,v1,2
80004b2c:	0000c812 	mflo	t9
80004b30:	11030078 	beq	t0,v1,80004d14 <matrix_mul_const+0x304>
80004b34:	ac59fffc 	sw	t9,-4(v0)
80004b38:	27bdfff0 	addiu	sp,sp,-16
80004b3c:	afb2000c 	sw	s2,12(sp)
80004b40:	afb10008 	sw	s1,8(sp)
80004b44:	afb00004 	sw	s0,4(sp)
80004b48:	84720000 	lh	s2,0(v1)
80004b4c:	84710002 	lh	s1,2(v1)
80004b50:	02470018 	mult	s2,a3
80004b54:	84700004 	lh	s0,4(v1)
80004b58:	84790006 	lh	t9,6(v1)
80004b5c:	846c0008 	lh	t4,8(v1)
80004b60:	846b000a 	lh	t3,10(v1)
80004b64:	846a000c 	lh	t2,12(v1)
80004b68:	8466000e 	lh	a2,14(v1)
80004b6c:	24420020 	addiu	v0,v0,32
80004b70:	24630010 	addiu	v1,v1,16
80004b74:	00009012 	mflo	s2
80004b78:	ac52ffe0 	sw	s2,-32(v0)
80004b7c:	00000000 	nop
80004b80:	02270018 	mult	s1,a3
80004b84:	00008812 	mflo	s1
80004b88:	ac51ffe4 	sw	s1,-28(v0)
80004b8c:	00000000 	nop
80004b90:	02070018 	mult	s0,a3
80004b94:	00008012 	mflo	s0
80004b98:	ac50ffe8 	sw	s0,-24(v0)
80004b9c:	00000000 	nop
80004ba0:	03270018 	mult	t9,a3
80004ba4:	0000c812 	mflo	t9
80004ba8:	ac59ffec 	sw	t9,-20(v0)
80004bac:	00000000 	nop
80004bb0:	01870018 	mult	t4,a3
80004bb4:	00006012 	mflo	t4
80004bb8:	ac4cfff0 	sw	t4,-16(v0)
80004bbc:	00000000 	nop
80004bc0:	01670018 	mult	t3,a3
80004bc4:	00005812 	mflo	t3
80004bc8:	ac4bfff4 	sw	t3,-12(v0)
80004bcc:	00000000 	nop
80004bd0:	01470018 	mult	t2,a3
80004bd4:	00005012 	mflo	t2
80004bd8:	ac4afff8 	sw	t2,-8(v0)
80004bdc:	00000000 	nop
80004be0:	00c70018 	mult	a2,a3
80004be4:	00003012 	mflo	a2
80004be8:	1503ffd7 	bne	t0,v1,80004b48 <matrix_mul_const+0x138>
80004bec:	ac46fffc 	sw	a2,-4(v0)
80004bf0:	25ce0001 	addiu	t6,t6,1
80004bf4:	01a46821 	addu	t5,t5,a0
80004bf8:	108e0041 	beq	a0,t6,80004d00 <matrix_mul_const+0x2f0>
80004bfc:	012f4023 	subu	t0,t1,t7
80004c00:	03084821 	addu	t1,t8,t0
80004c04:	01091823 	subu	v1,t0,t1
80004c08:	2462fffe 	addiu	v0,v1,-2
80004c0c:	00029042 	srl	s2,v0,0x1
80004c10:	26510001 	addiu	s1,s2,1
80004c14:	000d8080 	sll	s0,t5,0x2
80004c18:	32390007 	andi	t9,s1,0x7
80004c1c:	00b01021 	addu	v0,a1,s0
80004c20:	1320ffc9 	beqz	t9,80004b48 <matrix_mul_const+0x138>
80004c24:	01201825 	move	v1,t1
80004c28:	240c0001 	li	t4,1
80004c2c:	132c0029 	beq	t9,t4,80004cd4 <matrix_mul_const+0x2c4>
80004c30:	240b0002 	li	t3,2
80004c34:	132b0021 	beq	t9,t3,80004cbc <matrix_mul_const+0x2ac>
80004c38:	240a0003 	li	t2,3
80004c3c:	132a0019 	beq	t9,t2,80004ca4 <matrix_mul_const+0x294>
80004c40:	24060004 	li	a2,4
80004c44:	13260011 	beq	t9,a2,80004c8c <matrix_mul_const+0x27c>
80004c48:	24120005 	li	s2,5
80004c4c:	13320009 	beq	t9,s2,80004c74 <matrix_mul_const+0x264>
80004c50:	24110006 	li	s1,6
80004c54:	17310035 	bne	t9,s1,80004d2c <matrix_mul_const+0x31c>
80004c58:	00000000 	nop
80004c5c:	846c0000 	lh	t4,0(v1)
80004c60:	24420004 	addiu	v0,v0,4
80004c64:	01870018 	mult	t4,a3
80004c68:	24630002 	addiu	v1,v1,2
80004c6c:	00005812 	mflo	t3
80004c70:	ac4bfffc 	sw	t3,-4(v0)
80004c74:	846a0000 	lh	t2,0(v1)
80004c78:	24420004 	addiu	v0,v0,4
80004c7c:	01470018 	mult	t2,a3
80004c80:	24630002 	addiu	v1,v1,2
80004c84:	00003012 	mflo	a2
80004c88:	ac46fffc 	sw	a2,-4(v0)
80004c8c:	84720000 	lh	s2,0(v1)
80004c90:	24420004 	addiu	v0,v0,4
80004c94:	02470018 	mult	s2,a3
80004c98:	24630002 	addiu	v1,v1,2
80004c9c:	00008812 	mflo	s1
80004ca0:	ac51fffc 	sw	s1,-4(v0)
80004ca4:	84700000 	lh	s0,0(v1)
80004ca8:	24420004 	addiu	v0,v0,4
80004cac:	02070018 	mult	s0,a3
80004cb0:	24630002 	addiu	v1,v1,2
80004cb4:	0000c812 	mflo	t9
80004cb8:	ac59fffc 	sw	t9,-4(v0)
80004cbc:	846c0000 	lh	t4,0(v1)
80004cc0:	24420004 	addiu	v0,v0,4
80004cc4:	01870018 	mult	t4,a3
80004cc8:	24630002 	addiu	v1,v1,2
80004ccc:	00005812 	mflo	t3
80004cd0:	ac4bfffc 	sw	t3,-4(v0)
80004cd4:	846a0000 	lh	t2,0(v1)
80004cd8:	24420004 	addiu	v0,v0,4
80004cdc:	01470018 	mult	t2,a3
80004ce0:	24630002 	addiu	v1,v1,2
80004ce4:	00003012 	mflo	a2
80004ce8:	1503ff97 	bne	t0,v1,80004b48 <matrix_mul_const+0x138>
80004cec:	ac46fffc 	sw	a2,-4(v0)
80004cf0:	25ce0001 	addiu	t6,t6,1
80004cf4:	01a46821 	addu	t5,t5,a0
80004cf8:	148effc1 	bne	a0,t6,80004c00 <matrix_mul_const+0x1f0>
80004cfc:	012f4023 	subu	t0,t1,t7
80004d00:	8fb2000c 	lw	s2,12(sp)
80004d04:	8fb10008 	lw	s1,8(sp)
80004d08:	8fb00004 	lw	s0,4(sp)
80004d0c:	03e00008 	jr	ra
80004d10:	27bd0010 	addiu	sp,sp,16
80004d14:	25ce0001 	addiu	t6,t6,1
80004d18:	01a46821 	addu	t5,t5,a0
80004d1c:	148eff44 	bne	a0,t6,80004a30 <matrix_mul_const+0x20>
80004d20:	012f4023 	subu	t0,t1,t7
80004d24:	03e00008 	jr	ra
80004d28:	00000000 	nop
80004d2c:	85300000 	lh	s0,0(t1)
80004d30:	25230002 	addiu	v1,t1,2
80004d34:	02070018 	mult	s0,a3
80004d38:	24420004 	addiu	v0,v0,4
80004d3c:	0000c812 	mflo	t9
80004d40:	1000ffc6 	b	80004c5c <matrix_mul_const+0x24c>
80004d44:	ac59fffc 	sw	t9,-4(v0)
	...

80004d50 <matrix_add_const>:
matrix_add_const():
80004d50:	10800057 	beqz	a0,80004eb0 <matrix_add_const+0x160>
80004d54:	00047023 	negu	t6,a0
80004d58:	00041040 	sll	v0,a0,0x1
80004d5c:	000e7840 	sll	t7,t6,0x1
80004d60:	30c6ffff 	andi	a2,a2,0xffff
80004d64:	00a22821 	addu	a1,a1,v0
80004d68:	00006825 	move	t5,zero
80004d6c:	000e7080 	sll	t6,t6,0x2
80004d70:	01e53821 	addu	a3,t7,a1
80004d74:	00a71823 	subu	v1,a1,a3
80004d78:	2468fffe 	addiu	t0,v1,-2
80004d7c:	00084842 	srl	t1,t0,0x1
80004d80:	252a0001 	addiu	t2,t1,1
80004d84:	314b0007 	andi	t3,t2,0x7
80004d88:	1160002b 	beqz	t3,80004e38 <matrix_add_const+0xe8>
80004d8c:	00e01025 	move	v0,a3
80004d90:	240c0001 	li	t4,1
80004d94:	116c0023 	beq	t3,t4,80004e24 <matrix_add_const+0xd4>
80004d98:	24180002 	li	t8,2
80004d9c:	1178001d 	beq	t3,t8,80004e14 <matrix_add_const+0xc4>
80004da0:	24190003 	li	t9,3
80004da4:	11790017 	beq	t3,t9,80004e04 <matrix_add_const+0xb4>
80004da8:	24030004 	li	v1,4
80004dac:	11630011 	beq	t3,v1,80004df4 <matrix_add_const+0xa4>
80004db0:	24080005 	li	t0,5
80004db4:	1168000b 	beq	t3,t0,80004de4 <matrix_add_const+0x94>
80004db8:	24090006 	li	t1,6
80004dbc:	11690005 	beq	t3,t1,80004dd4 <matrix_add_const+0x84>
80004dc0:	00000000 	nop
80004dc4:	94ea0000 	lhu	t2,0(a3)
80004dc8:	24e20002 	addiu	v0,a3,2
80004dcc:	00ca5821 	addu	t3,a2,t2
80004dd0:	a4eb0000 	sh	t3,0(a3)
80004dd4:	944c0000 	lhu	t4,0(v0)
80004dd8:	24420002 	addiu	v0,v0,2
80004ddc:	00ccc021 	addu	t8,a2,t4
80004de0:	a458fffe 	sh	t8,-2(v0)
80004de4:	94590000 	lhu	t9,0(v0)
80004de8:	24420002 	addiu	v0,v0,2
80004dec:	00d91821 	addu	v1,a2,t9
80004df0:	a443fffe 	sh	v1,-2(v0)
80004df4:	94480000 	lhu	t0,0(v0)
80004df8:	24420002 	addiu	v0,v0,2
80004dfc:	00c84821 	addu	t1,a2,t0
80004e00:	a449fffe 	sh	t1,-2(v0)
80004e04:	944a0000 	lhu	t2,0(v0)
80004e08:	24420002 	addiu	v0,v0,2
80004e0c:	00ca5821 	addu	t3,a2,t2
80004e10:	a44bfffe 	sh	t3,-2(v0)
80004e14:	944c0000 	lhu	t4,0(v0)
80004e18:	24420002 	addiu	v0,v0,2
80004e1c:	00ccc021 	addu	t8,a2,t4
80004e20:	a458fffe 	sh	t8,-2(v0)
80004e24:	94590000 	lhu	t9,0(v0)
80004e28:	24420002 	addiu	v0,v0,2
80004e2c:	00d91821 	addu	v1,a2,t9
80004e30:	10a2001c 	beq	a1,v0,80004ea4 <matrix_add_const+0x154>
80004e34:	a443fffe 	sh	v1,-2(v0)
80004e38:	94590000 	lhu	t9,0(v0)
80004e3c:	94580002 	lhu	t8,2(v0)
80004e40:	944c0004 	lhu	t4,4(v0)
80004e44:	944b0006 	lhu	t3,6(v0)
80004e48:	944a0008 	lhu	t2,8(v0)
80004e4c:	9449000a 	lhu	t1,10(v0)
80004e50:	9448000c 	lhu	t0,12(v0)
80004e54:	9443000e 	lhu	v1,14(v0)
80004e58:	00d9c821 	addu	t9,a2,t9
80004e5c:	00d8c021 	addu	t8,a2,t8
80004e60:	00cc6021 	addu	t4,a2,t4
80004e64:	00cb5821 	addu	t3,a2,t3
80004e68:	00ca5021 	addu	t2,a2,t2
80004e6c:	00c94821 	addu	t1,a2,t1
80004e70:	00c84021 	addu	t0,a2,t0
80004e74:	00c31821 	addu	v1,a2,v1
80004e78:	a4590000 	sh	t9,0(v0)
80004e7c:	a4580002 	sh	t8,2(v0)
80004e80:	a44c0004 	sh	t4,4(v0)
80004e84:	a44b0006 	sh	t3,6(v0)
80004e88:	a44a0008 	sh	t2,8(v0)
80004e8c:	a449000a 	sh	t1,10(v0)
80004e90:	a448000c 	sh	t0,12(v0)
80004e94:	a443000e 	sh	v1,14(v0)
80004e98:	24420010 	addiu	v0,v0,16
80004e9c:	14a2ffe6 	bne	a1,v0,80004e38 <matrix_add_const+0xe8>
80004ea0:	00000000 	nop
80004ea4:	25ad0001 	addiu	t5,t5,1
80004ea8:	148dffb1 	bne	a0,t5,80004d70 <matrix_add_const+0x20>
80004eac:	00ee2823 	subu	a1,a3,t6
80004eb0:	03e00008 	jr	ra
80004eb4:	00000000 	nop
	...

80004ec0 <matrix_mul_vect>:
matrix_mul_vect():
80004ec0:	108000e3 	beqz	a0,80005250 <matrix_mul_vect+0x390>
80004ec4:	00047880 	sll	t7,a0,0x2
80004ec8:	00046840 	sll	t5,a0,0x1
80004ecc:	00a06025 	move	t4,a1
80004ed0:	00af7821 	addu	t7,a1,t7
80004ed4:	00ed6821 	addu	t5,a3,t5
80004ed8:	00007025 	move	t6,zero
80004edc:	01a74023 	subu	t0,t5,a3
80004ee0:	2502fffe 	addiu	v0,t0,-2
80004ee4:	00021842 	srl	v1,v0,0x1
80004ee8:	24650001 	addiu	a1,v1,1
80004eec:	000e4840 	sll	t1,t6,0x1
80004ef0:	30aa0007 	andi	t2,a1,0x7
80004ef4:	00c91021 	addu	v0,a2,t1
80004ef8:	00e01825 	move	v1,a3
80004efc:	1140003f 	beqz	t2,80004ffc <matrix_mul_vect+0x13c>
80004f00:	00005825 	move	t3,zero
80004f04:	24180001 	li	t8,1
80004f08:	11580034 	beq	t2,t8,80004fdc <matrix_mul_vect+0x11c>
80004f0c:	24190002 	li	t9,2
80004f10:	1159002b 	beq	t2,t9,80004fc0 <matrix_mul_vect+0x100>
80004f14:	24080003 	li	t0,3
80004f18:	11480022 	beq	t2,t0,80004fa4 <matrix_mul_vect+0xe4>
80004f1c:	24050004 	li	a1,4
80004f20:	11450019 	beq	t2,a1,80004f88 <matrix_mul_vect+0xc8>
80004f24:	24090005 	li	t1,5
80004f28:	11490010 	beq	t2,t1,80004f6c <matrix_mul_vect+0xac>
80004f2c:	24180006 	li	t8,6
80004f30:	11580007 	beq	t2,t8,80004f50 <matrix_mul_vect+0x90>
80004f34:	00000000 	nop
80004f38:	844b0000 	lh	t3,0(v0)
80004f3c:	84e30000 	lh	v1,0(a3)
80004f40:	24420002 	addiu	v0,v0,2
80004f44:	01630018 	mult	t3,v1
80004f48:	24e30002 	addiu	v1,a3,2
80004f4c:	00005812 	mflo	t3
80004f50:	844a0000 	lh	t2,0(v0)
80004f54:	84790000 	lh	t9,0(v1)
80004f58:	24420002 	addiu	v0,v0,2
80004f5c:	01590018 	mult	t2,t9
80004f60:	24630002 	addiu	v1,v1,2
80004f64:	00004012 	mflo	t0
80004f68:	01685821 	addu	t3,t3,t0
80004f6c:	84450000 	lh	a1,0(v0)
80004f70:	84690000 	lh	t1,0(v1)
80004f74:	24420002 	addiu	v0,v0,2
80004f78:	00a90018 	mult	a1,t1
80004f7c:	24630002 	addiu	v1,v1,2
80004f80:	0000c012 	mflo	t8
80004f84:	01785821 	addu	t3,t3,t8
80004f88:	844a0000 	lh	t2,0(v0)
80004f8c:	84790000 	lh	t9,0(v1)
80004f90:	24420002 	addiu	v0,v0,2
80004f94:	01590018 	mult	t2,t9
80004f98:	24630002 	addiu	v1,v1,2
80004f9c:	00004012 	mflo	t0
80004fa0:	01685821 	addu	t3,t3,t0
80004fa4:	84450000 	lh	a1,0(v0)
80004fa8:	84690000 	lh	t1,0(v1)
80004fac:	24420002 	addiu	v0,v0,2
80004fb0:	00a90018 	mult	a1,t1
80004fb4:	24630002 	addiu	v1,v1,2
80004fb8:	0000c012 	mflo	t8
80004fbc:	01785821 	addu	t3,t3,t8
80004fc0:	844a0000 	lh	t2,0(v0)
80004fc4:	84790000 	lh	t9,0(v1)
80004fc8:	24420002 	addiu	v0,v0,2
80004fcc:	01590018 	mult	t2,t9
80004fd0:	24630002 	addiu	v1,v1,2
80004fd4:	00004012 	mflo	t0
80004fd8:	01685821 	addu	t3,t3,t0
80004fdc:	84450000 	lh	a1,0(v0)
80004fe0:	84690000 	lh	t1,0(v1)
80004fe4:	24630002 	addiu	v1,v1,2
80004fe8:	00a90018 	mult	a1,t1
80004fec:	24420002 	addiu	v0,v0,2
80004ff0:	0000c012 	mflo	t8
80004ff4:	11a30092 	beq	t5,v1,80005240 <matrix_mul_vect+0x380>
80004ff8:	01785821 	addu	t3,t3,t8
80004ffc:	27bdffd8 	addiu	sp,sp,-40
80005000:	afbe0024 	sw	s8,36(sp)
80005004:	afb70020 	sw	s7,32(sp)
80005008:	afb6001c 	sw	s6,28(sp)
8000500c:	afb50018 	sw	s5,24(sp)
80005010:	afb40014 	sw	s4,20(sp)
80005014:	afb30010 	sw	s3,16(sp)
80005018:	afb2000c 	sw	s2,12(sp)
8000501c:	afb10008 	sw	s1,8(sp)
80005020:	afb00004 	sw	s0,4(sp)
80005024:	84500000 	lh	s0,0(v0)
80005028:	84710000 	lh	s1,0(v1)
8000502c:	84490002 	lh	t1,2(v0)
80005030:	02110018 	mult	s0,s1
80005034:	847e0002 	lh	s8,2(v1)
80005038:	84550004 	lh	s5,4(v0)
8000503c:	84770004 	lh	s7,4(v1)
80005040:	84480006 	lh	t0,6(v0)
80005044:	84760006 	lh	s6,6(v1)
80005048:	84510008 	lh	s1,8(v0)
8000504c:	84740008 	lh	s4,8(v1)
80005050:	8450000a 	lh	s0,10(v0)
80005054:	8465000a 	lh	a1,10(v1)
80005058:	8459000c 	lh	t9,12(v0)
8000505c:	8473000c 	lh	s3,12(v1)
80005060:	00005012 	mflo	t2
80005064:	8458000e 	lh	t8,14(v0)
80005068:	8472000e 	lh	s2,14(v1)
8000506c:	013e0018 	mult	t1,s8
80005070:	016af021 	addu	s8,t3,t2
80005074:	24630010 	addiu	v1,v1,16
80005078:	24420010 	addiu	v0,v0,16
8000507c:	00004812 	mflo	t1
	...
80005088:	02b70018 	mult	s5,s7
8000508c:	03c9a821 	addu	s5,s8,t1
80005090:	00005812 	mflo	t3
80005094:	02ab5021 	addu	t2,s5,t3
80005098:	00000000 	nop
8000509c:	01160018 	mult	t0,s6
800050a0:	0000b812 	mflo	s7
800050a4:	01574021 	addu	t0,t2,s7
800050a8:	00000000 	nop
800050ac:	02340018 	mult	s1,s4
800050b0:	0000b012 	mflo	s6
800050b4:	0116a021 	addu	s4,t0,s6
800050b8:	00000000 	nop
800050bc:	02050018 	mult	s0,a1
800050c0:	00008812 	mflo	s1
800050c4:	02912821 	addu	a1,s4,s1
800050c8:	00000000 	nop
800050cc:	03330018 	mult	t9,s3
800050d0:	00008012 	mflo	s0
800050d4:	00b09821 	addu	s3,a1,s0
800050d8:	00000000 	nop
800050dc:	03120018 	mult	t8,s2
800050e0:	0000c812 	mflo	t9
800050e4:	15a3ffcf 	bne	t5,v1,80005024 <matrix_mul_vect+0x164>
800050e8:	02795821 	addu	t3,s3,t9
800050ec:	ad8b0000 	sw	t3,0(t4)
800050f0:	258c0004 	addiu	t4,t4,4
800050f4:	11ec0047 	beq	t7,t4,80005214 <matrix_mul_vect+0x354>
800050f8:	01c47021 	addu	t6,t6,a0
800050fc:	01a71823 	subu	v1,t5,a3
80005100:	2462fffe 	addiu	v0,v1,-2
80005104:	0002c042 	srl	t8,v0,0x1
80005108:	27120001 	addiu	s2,t8,1
8000510c:	000e4840 	sll	t1,t6,0x1
80005110:	325e0007 	andi	s8,s2,0x7
80005114:	00c91021 	addu	v0,a2,t1
80005118:	00e01825 	move	v1,a3
8000511c:	13c0ffc1 	beqz	s8,80005024 <matrix_mul_vect+0x164>
80005120:	00005825 	move	t3,zero
80005124:	24150001 	li	s5,1
80005128:	13d5002e 	beq	s8,s5,800051e4 <matrix_mul_vect+0x324>
8000512c:	24170002 	li	s7,2
80005130:	13d70025 	beq	s8,s7,800051c8 <matrix_mul_vect+0x308>
80005134:	240a0003 	li	t2,3
80005138:	13ca001c 	beq	s8,t2,800051ac <matrix_mul_vect+0x2ec>
8000513c:	24160004 	li	s6,4
80005140:	13d60013 	beq	s8,s6,80005190 <matrix_mul_vect+0x2d0>
80005144:	24080005 	li	t0,5
80005148:	13c8000a 	beq	s8,t0,80005174 <matrix_mul_vect+0x2b4>
8000514c:	24110006 	li	s1,6
80005150:	17d10041 	bne	s8,s1,80005258 <matrix_mul_vect+0x398>
80005154:	00000000 	nop
80005158:	84500000 	lh	s0,0(v0)
8000515c:	84650000 	lh	a1,0(v1)
80005160:	24420002 	addiu	v0,v0,2
80005164:	02050018 	mult	s0,a1
80005168:	24630002 	addiu	v1,v1,2
8000516c:	0000c812 	mflo	t9
80005170:	01795821 	addu	t3,t3,t9
80005174:	84530000 	lh	s3,0(v0)
80005178:	84780000 	lh	t8,0(v1)
8000517c:	24420002 	addiu	v0,v0,2
80005180:	02780018 	mult	s3,t8
80005184:	24630002 	addiu	v1,v1,2
80005188:	00009012 	mflo	s2
8000518c:	01725821 	addu	t3,t3,s2
80005190:	84490000 	lh	t1,0(v0)
80005194:	847e0000 	lh	s8,0(v1)
80005198:	24420002 	addiu	v0,v0,2
8000519c:	013e0018 	mult	t1,s8
800051a0:	24630002 	addiu	v1,v1,2
800051a4:	0000a812 	mflo	s5
800051a8:	01755821 	addu	t3,t3,s5
800051ac:	84570000 	lh	s7,0(v0)
800051b0:	846a0000 	lh	t2,0(v1)
800051b4:	24420002 	addiu	v0,v0,2
800051b8:	02ea0018 	mult	s7,t2
800051bc:	24630002 	addiu	v1,v1,2
800051c0:	0000b012 	mflo	s6
800051c4:	01765821 	addu	t3,t3,s6
800051c8:	84510000 	lh	s1,0(v0)
800051cc:	84680000 	lh	t0,0(v1)
800051d0:	24420002 	addiu	v0,v0,2
800051d4:	02280018 	mult	s1,t0
800051d8:	24630002 	addiu	v1,v1,2
800051dc:	0000a012 	mflo	s4
800051e0:	01745821 	addu	t3,t3,s4
800051e4:	84500000 	lh	s0,0(v0)
800051e8:	84650000 	lh	a1,0(v1)
800051ec:	24630002 	addiu	v1,v1,2
800051f0:	02050018 	mult	s0,a1
800051f4:	24420002 	addiu	v0,v0,2
800051f8:	0000c812 	mflo	t9
800051fc:	15a3ff89 	bne	t5,v1,80005024 <matrix_mul_vect+0x164>
80005200:	01795821 	addu	t3,t3,t9
80005204:	ad8b0000 	sw	t3,0(t4)
80005208:	258c0004 	addiu	t4,t4,4
8000520c:	15ecffbb 	bne	t7,t4,800050fc <matrix_mul_vect+0x23c>
80005210:	01c47021 	addu	t6,t6,a0
80005214:	8fbe0024 	lw	s8,36(sp)
80005218:	8fb70020 	lw	s7,32(sp)
8000521c:	8fb6001c 	lw	s6,28(sp)
80005220:	8fb50018 	lw	s5,24(sp)
80005224:	8fb40014 	lw	s4,20(sp)
80005228:	8fb30010 	lw	s3,16(sp)
8000522c:	8fb2000c 	lw	s2,12(sp)
80005230:	8fb10008 	lw	s1,8(sp)
80005234:	8fb00004 	lw	s0,4(sp)
80005238:	03e00008 	jr	ra
8000523c:	27bd0028 	addiu	sp,sp,40
80005240:	ad8b0000 	sw	t3,0(t4)
80005244:	258c0004 	addiu	t4,t4,4
80005248:	15ecff24 	bne	t7,t4,80004edc <matrix_mul_vect+0x1c>
8000524c:	01c47021 	addu	t6,t6,a0
80005250:	03e00008 	jr	ra
80005254:	00000000 	nop
80005258:	844b0000 	lh	t3,0(v0)
8000525c:	84f40000 	lh	s4,0(a3)
80005260:	24420002 	addiu	v0,v0,2
80005264:	01740018 	mult	t3,s4
80005268:	00005812 	mflo	t3
8000526c:	1000ffba 	b	80005158 <matrix_mul_vect+0x298>
80005270:	24e30002 	addiu	v1,a3,2
	...

80005280 <matrix_mul_matrix>:
matrix_mul_matrix():
80005280:	27bdffd0 	addiu	sp,sp,-48
80005284:	afbe002c 	sw	s8,44(sp)
80005288:	afb70028 	sw	s7,40(sp)
8000528c:	afb60024 	sw	s6,36(sp)
80005290:	afb50020 	sw	s5,32(sp)
80005294:	afb4001c 	sw	s4,28(sp)
80005298:	afb30018 	sw	s3,24(sp)
8000529c:	afb20014 	sw	s2,20(sp)
800052a0:	afb10010 	sw	s1,16(sp)
800052a4:	afb0000c 	sw	s0,12(sp)
800052a8:	afa50034 	sw	a1,52(sp)
800052ac:	1080009c 	beqz	a0,80005520 <matrix_mul_matrix+0x2a0>
800052b0:	afa7003c 	sw	a3,60(sp)
800052b4:	00043840 	sll	a3,a0,0x1
800052b8:	0080b025 	move	s6,a0
800052bc:	00c0c825 	move	t9,a2
800052c0:	00c77821 	addu	t7,a2,a3
800052c4:	0000b825 	move	s7,zero
800052c8:	afa00000 	sw	zero,0(sp)
800052cc:	8fa20034 	lw	v0,52(sp)
800052d0:	00177080 	sll	t6,s7,0x2
800052d4:	8fad003c 	lw	t5,60(sp)
800052d8:	004e7021 	addu	t6,v0,t6
800052dc:	0000c025 	move	t8,zero
800052e0:	01f91823 	subu	v1,t7,t9
800052e4:	2464fffe 	addiu	a0,v1,-2
800052e8:	00042842 	srl	a1,a0,0x1
800052ec:	24a60001 	addiu	a2,a1,1
800052f0:	30c90007 	andi	t1,a2,0x7
800052f4:	01a04025 	move	t0,t5
800052f8:	03203025 	move	a2,t9
800052fc:	1120003f 	beqz	t1,800053fc <matrix_mul_matrix+0x17c>
80005300:	00001025 	move	v0,zero
80005304:	240a0001 	li	t2,1
80005308:	112a0034 	beq	t1,t2,800053dc <matrix_mul_matrix+0x15c>
8000530c:	240b0002 	li	t3,2
80005310:	112b002b 	beq	t1,t3,800053c0 <matrix_mul_matrix+0x140>
80005314:	240c0003 	li	t4,3
80005318:	112c0022 	beq	t1,t4,800053a4 <matrix_mul_matrix+0x124>
8000531c:	24100004 	li	s0,4
80005320:	11300019 	beq	t1,s0,80005388 <matrix_mul_matrix+0x108>
80005324:	24110005 	li	s1,5
80005328:	11310010 	beq	t1,s1,8000536c <matrix_mul_matrix+0xec>
8000532c:	24120006 	li	s2,6
80005330:	11320007 	beq	t1,s2,80005350 <matrix_mul_matrix+0xd0>
80005334:	00000000 	nop
80005338:	87280000 	lh	t0,0(t9)
8000533c:	85b30000 	lh	s3,0(t5)
80005340:	27260002 	addiu	a2,t9,2
80005344:	01130018 	mult	t0,s3
80005348:	01a74021 	addu	t0,t5,a3
8000534c:	00001012 	mflo	v0
80005350:	84d40000 	lh	s4,0(a2)
80005354:	85150000 	lh	s5,0(t0)
80005358:	24c60002 	addiu	a2,a2,2
8000535c:	02950018 	mult	s4,s5
80005360:	01074021 	addu	t0,t0,a3
80005364:	0000f012 	mflo	s8
80005368:	005e1021 	addu	v0,v0,s8
8000536c:	84c30000 	lh	v1,0(a2)
80005370:	85040000 	lh	a0,0(t0)
80005374:	24c60002 	addiu	a2,a2,2
80005378:	00640018 	mult	v1,a0
8000537c:	01074021 	addu	t0,t0,a3
80005380:	00002812 	mflo	a1
80005384:	00451021 	addu	v0,v0,a1
80005388:	84c90000 	lh	t1,0(a2)
8000538c:	850a0000 	lh	t2,0(t0)
80005390:	24c60002 	addiu	a2,a2,2
80005394:	012a0018 	mult	t1,t2
80005398:	01074021 	addu	t0,t0,a3
8000539c:	00005812 	mflo	t3
800053a0:	004b1021 	addu	v0,v0,t3
800053a4:	84cc0000 	lh	t4,0(a2)
800053a8:	85100000 	lh	s0,0(t0)
800053ac:	24c60002 	addiu	a2,a2,2
800053b0:	01900018 	mult	t4,s0
800053b4:	01074021 	addu	t0,t0,a3
800053b8:	00008812 	mflo	s1
800053bc:	00511021 	addu	v0,v0,s1
800053c0:	84d20000 	lh	s2,0(a2)
800053c4:	85130000 	lh	s3,0(t0)
800053c8:	24c60002 	addiu	a2,a2,2
800053cc:	02530018 	mult	s2,s3
800053d0:	01074021 	addu	t0,t0,a3
800053d4:	0000a012 	mflo	s4
800053d8:	00541021 	addu	v0,v0,s4
800053dc:	84d50000 	lh	s5,0(a2)
800053e0:	851e0000 	lh	s8,0(t0)
800053e4:	24c60002 	addiu	a2,a2,2
800053e8:	02be0018 	mult	s5,s8
800053ec:	01074021 	addu	t0,t0,a3
800053f0:	00001812 	mflo	v1
800053f4:	11e6003b 	beq	t7,a2,800054e4 <matrix_mul_matrix+0x264>
800053f8:	00431021 	addu	v0,v0,v1
800053fc:	84c50000 	lh	a1,0(a2)
80005400:	85040000 	lh	a0,0(t0)
80005404:	01074821 	addu	t1,t0,a3
80005408:	00a40018 	mult	a1,a0
8000540c:	84d20002 	lh	s2,2(a2)
80005410:	85300000 	lh	s0,0(t1)
80005414:	01275021 	addu	t2,t1,a3
80005418:	01475821 	addu	t3,t2,a3
8000541c:	01679821 	addu	s3,t3,a3
80005420:	84d40004 	lh	s4,4(a2)
80005424:	85440000 	lh	a0,0(t2)
80005428:	0267f021 	addu	s8,s3,a3
8000542c:	03c74821 	addu	t1,s8,a3
80005430:	86630000 	lh	v1,0(s3)
80005434:	87d30000 	lh	s3,0(s8)
80005438:	00002812 	mflo	a1
8000543c:	84d10006 	lh	s1,6(a2)
80005440:	85750000 	lh	s5,0(t3)
80005444:	02500018 	mult	s2,s0
80005448:	84cc0008 	lh	t4,8(a2)
8000544c:	84cb000a 	lh	t3,10(a2)
80005450:	84ca000c 	lh	t2,12(a2)
80005454:	85320000 	lh	s2,0(t1)
80005458:	01274021 	addu	t0,t1,a3
8000545c:	85100000 	lh	s0,0(t0)
80005460:	84c9000e 	lh	t1,14(a2)
80005464:	00451021 	addu	v0,v0,a1
80005468:	24c60010 	addiu	a2,a2,16
8000546c:	01074021 	addu	t0,t0,a3
80005470:	0000f012 	mflo	s8
80005474:	005e2821 	addu	a1,v0,s8
80005478:	00000000 	nop
8000547c:	02840018 	mult	s4,a0
80005480:	0000a012 	mflo	s4
80005484:	00b42021 	addu	a0,a1,s4
80005488:	00000000 	nop
8000548c:	02350018 	mult	s1,s5
80005490:	00008812 	mflo	s1
	...
8000549c:	01830018 	mult	t4,v1
800054a0:	00916021 	addu	t4,a0,s1
800054a4:	0000a812 	mflo	s5
800054a8:	01951821 	addu	v1,t4,s5
800054ac:	00000000 	nop
800054b0:	01730018 	mult	t3,s3
800054b4:	00005812 	mflo	t3
	...
800054c0:	01520018 	mult	t2,s2
800054c4:	006b5021 	addu	t2,v1,t3
800054c8:	00009812 	mflo	s3
800054cc:	01539021 	addu	s2,t2,s3
800054d0:	00000000 	nop
800054d4:	01300018 	mult	t1,s0
800054d8:	0000f012 	mflo	s8
800054dc:	15e6ffc7 	bne	t7,a2,800053fc <matrix_mul_matrix+0x17c>
800054e0:	025e1021 	addu	v0,s2,s8
800054e4:	27060001 	addiu	a2,t8,1
800054e8:	adc20000 	sw	v0,0(t6)
800054ec:	25ad0002 	addiu	t5,t5,2
800054f0:	12c60003 	beq	s6,a2,80005500 <matrix_mul_matrix+0x280>
800054f4:	25ce0004 	addiu	t6,t6,4
800054f8:	1000ff79 	b	800052e0 <matrix_mul_matrix+0x60>
800054fc:	00c0c025 	move	t8,a2
80005500:	8fae0000 	lw	t6,0(sp)
80005504:	0327c821 	addu	t9,t9,a3
80005508:	25cd0001 	addiu	t5,t6,1
8000550c:	02f6b821 	addu	s7,s7,s6
80005510:	11d80003 	beq	t6,t8,80005520 <matrix_mul_matrix+0x2a0>
80005514:	01e77821 	addu	t7,t7,a3
80005518:	1000ff6c 	b	800052cc <matrix_mul_matrix+0x4c>
8000551c:	afad0000 	sw	t5,0(sp)
80005520:	8fbe002c 	lw	s8,44(sp)
80005524:	8fb70028 	lw	s7,40(sp)
80005528:	8fb60024 	lw	s6,36(sp)
8000552c:	8fb50020 	lw	s5,32(sp)
80005530:	8fb4001c 	lw	s4,28(sp)
80005534:	8fb30018 	lw	s3,24(sp)
80005538:	8fb20014 	lw	s2,20(sp)
8000553c:	8fb10010 	lw	s1,16(sp)
80005540:	8fb0000c 	lw	s0,12(sp)
80005544:	03e00008 	jr	ra
80005548:	27bd0030 	addiu	sp,sp,48
8000554c:	00000000 	nop

80005550 <matrix_mul_matrix_bitextract>:
matrix_mul_matrix_bitextract():
80005550:	1080009a 	beqz	a0,800057bc <matrix_mul_matrix_bitextract+0x26c>
80005554:	00046040 	sll	t4,a0,0x1
80005558:	27bdffe8 	addiu	sp,sp,-24
8000555c:	00c0c025 	move	t8,a2
80005560:	afb10004 	sw	s1,4(sp)
80005564:	afb00000 	sw	s0,0(sp)
80005568:	00e08825 	move	s1,a3
8000556c:	00a08025 	move	s0,a1
80005570:	afb50014 	sw	s5,20(sp)
80005574:	afb40010 	sw	s4,16(sp)
80005578:	afb3000c 	sw	s3,12(sp)
8000557c:	afb20008 	sw	s2,8(sp)
80005580:	00cc6821 	addu	t5,a2,t4
80005584:	00002825 	move	a1,zero
80005588:	00003825 	move	a3,zero
8000558c:	00057880 	sll	t7,a1,0x2
80005590:	020f7821 	addu	t7,s0,t7
80005594:	02207025 	move	t6,s1
80005598:	0000c825 	move	t9,zero
8000559c:	01b81023 	subu	v0,t5,t8
800055a0:	2443fffe 	addiu	v1,v0,-2
800055a4:	00033042 	srl	a2,v1,0x1
800055a8:	24c80001 	addiu	t0,a2,1
800055ac:	31090003 	andi	t1,t0,0x3
800055b0:	01c05825 	move	t3,t6
800055b4:	03003025 	move	a2,t8
800055b8:	1120002d 	beqz	t1,80005670 <matrix_mul_matrix_bitextract+0x120>
800055bc:	00009825 	move	s3,zero
800055c0:	240a0001 	li	t2,1
800055c4:	112a001c 	beq	t1,t2,80005638 <matrix_mul_matrix_bitextract+0xe8>
800055c8:	24120002 	li	s2,2
800055cc:	1132000d 	beq	t1,s2,80005604 <matrix_mul_matrix_bitextract+0xb4>
800055d0:	00000000 	nop
800055d4:	870b0000 	lh	t3,0(t8)
800055d8:	85d30000 	lh	s3,0(t6)
800055dc:	27060002 	addiu	a2,t8,2
800055e0:	01730018 	mult	t3,s3
800055e4:	01cc5821 	addu	t3,t6,t4
800055e8:	00001012 	mflo	v0
800055ec:	00021883 	sra	v1,v0,0x2
800055f0:	00021143 	sra	v0,v0,0x5
800055f4:	3074000f 	andi	s4,v1,0xf
800055f8:	3055007f 	andi	s5,v0,0x7f
800055fc:	02950018 	mult	s4,s5
80005600:	00009812 	mflo	s3
80005604:	84c80000 	lh	t0,0(a2)
80005608:	85690000 	lh	t1,0(t3)
8000560c:	24c60002 	addiu	a2,a2,2
80005610:	01090018 	mult	t0,t1
80005614:	016c5821 	addu	t3,t3,t4
80005618:	00001012 	mflo	v0
8000561c:	00021883 	sra	v1,v0,0x2
80005620:	00021143 	sra	v0,v0,0x5
80005624:	306a000f 	andi	t2,v1,0xf
80005628:	3052007f 	andi	s2,v0,0x7f
8000562c:	01520018 	mult	t2,s2
80005630:	0000a012 	mflo	s4
80005634:	02749821 	addu	s3,s3,s4
80005638:	84d50000 	lh	s5,0(a2)
8000563c:	85680000 	lh	t0,0(t3)
80005640:	24c60002 	addiu	a2,a2,2
80005644:	02a80018 	mult	s5,t0
80005648:	016c5821 	addu	t3,t3,t4
8000564c:	00001012 	mflo	v0
80005650:	00021883 	sra	v1,v0,0x2
80005654:	00021143 	sra	v0,v0,0x5
80005658:	3069000f 	andi	t1,v1,0xf
8000565c:	304a007f 	andi	t2,v0,0x7f
80005660:	012a0018 	mult	t1,t2
80005664:	00009012 	mflo	s2
80005668:	11a6003c 	beq	t5,a2,8000575c <matrix_mul_matrix_bitextract+0x20c>
8000566c:	02729821 	addu	s3,s3,s2
80005670:	84d50000 	lh	s5,0(a2)
80005674:	85680000 	lh	t0,0(t3)
80005678:	016ca021 	addu	s4,t3,t4
8000567c:	02a80018 	mult	s5,t0
80005680:	84ca0002 	lh	t2,2(a2)
80005684:	86830000 	lh	v1,0(s4)
80005688:	028c1021 	addu	v0,s4,t4
8000568c:	84490000 	lh	t1,0(v0)
80005690:	84d40004 	lh	s4,4(a2)
80005694:	004c5821 	addu	t3,v0,t4
80005698:	84d50006 	lh	s5,6(a2)
8000569c:	85680000 	lh	t0,0(t3)
800056a0:	24c60008 	addiu	a2,a2,8
800056a4:	016c5821 	addu	t3,t3,t4
800056a8:	00009012 	mflo	s2
800056ac:	00121083 	sra	v0,s2,0x2
800056b0:	00129143 	sra	s2,s2,0x5
800056b4:	01430018 	mult	t2,v1
800056b8:	3043000f 	andi	v1,v0,0xf
800056bc:	3242007f 	andi	v0,s2,0x7f
800056c0:	00005012 	mflo	t2
	...
800056cc:	02890018 	mult	s4,t1
800056d0:	000aa083 	sra	s4,t2,0x2
800056d4:	000a5143 	sra	t2,t2,0x5
800056d8:	3294000f 	andi	s4,s4,0xf
800056dc:	314a007f 	andi	t2,t2,0x7f
800056e0:	00004812 	mflo	t1
800056e4:	00099143 	sra	s2,t1,0x5
800056e8:	00000000 	nop
800056ec:	02a80018 	mult	s5,t0
800056f0:	0009a883 	sra	s5,t1,0x2
800056f4:	32b5000f 	andi	s5,s5,0xf
800056f8:	3249007f 	andi	t1,s2,0x7f
800056fc:	00004012 	mflo	t0
	...
80005708:	00620018 	mult	v1,v0
8000570c:	00081083 	sra	v0,t0,0x2
80005710:	00084143 	sra	t0,t0,0x5
80005714:	3052000f 	andi	s2,v0,0xf
80005718:	3108007f 	andi	t0,t0,0x7f
8000571c:	00001812 	mflo	v1
80005720:	02639821 	addu	s3,s3,v1
80005724:	00000000 	nop
80005728:	028a0018 	mult	s4,t2
8000572c:	0000a012 	mflo	s4
	...
80005738:	02a90018 	mult	s5,t1
8000573c:	0274a821 	addu	s5,s3,s4
80005740:	00005012 	mflo	t2
80005744:	02aa1821 	addu	v1,s5,t2
80005748:	00000000 	nop
8000574c:	02480018 	mult	s2,t0
80005750:	00004812 	mflo	t1
80005754:	15a6ffc6 	bne	t5,a2,80005670 <matrix_mul_matrix_bitextract+0x120>
80005758:	00699821 	addu	s3,v1,t1
8000575c:	27260001 	addiu	a2,t9,1
80005760:	adf30000 	sw	s3,0(t7)
80005764:	25ce0002 	addiu	t6,t6,2
80005768:	10860005 	beq	a0,a2,80005780 <matrix_mul_matrix_bitextract+0x230>
8000576c:	25ef0004 	addiu	t7,t7,4
80005770:	1000ff8a 	b	8000559c <matrix_mul_matrix_bitextract+0x4c>
80005774:	00c0c825 	move	t9,a2
	...
80005780:	24ef0001 	addiu	t7,a3,1
80005784:	030cc021 	addu	t8,t8,t4
80005788:	00a42821 	addu	a1,a1,a0
8000578c:	10f90003 	beq	a3,t9,8000579c <matrix_mul_matrix_bitextract+0x24c>
80005790:	01ac6821 	addu	t5,t5,t4
80005794:	1000ff7d 	b	8000558c <matrix_mul_matrix_bitextract+0x3c>
80005798:	01e03825 	move	a3,t7
8000579c:	8fb50014 	lw	s5,20(sp)
800057a0:	8fb40010 	lw	s4,16(sp)
800057a4:	8fb3000c 	lw	s3,12(sp)
800057a8:	8fb20008 	lw	s2,8(sp)
800057ac:	8fb10004 	lw	s1,4(sp)
800057b0:	8fb00000 	lw	s0,0(sp)
800057b4:	03e00008 	jr	ra
800057b8:	27bd0018 	addiu	sp,sp,24
800057bc:	03e00008 	jr	ra
800057c0:	00000000 	nop
	...

800057d0 <portable_malloc>:
portable_malloc():
800057d0:	03e00008 	jr	ra
800057d4:	00001025 	move	v0,zero
	...

800057e0 <portable_free>:
portable_free():
800057e0:	03e00008 	jr	ra
800057e4:	00000000 	nop
	...

800057f0 <start_time>:
start_time():
800057f0:	3c058001 	lui	a1,0x8001
800057f4:	24a5b030 	addiu	a1,a1,-20432
800057f8:	080027e0 	j	80009f80 <clock_gettime>
800057fc:	00002025 	move	a0,zero

80005800 <stop_time>:
stop_time():
80005800:	3c058001 	lui	a1,0x8001
80005804:	24a5b020 	addiu	a1,a1,-20448
80005808:	080027e0 	j	80009f80 <clock_gettime>
8000580c:	00002025 	move	a0,zero

80005810 <get_time>:
get_time():
80005810:	3c058001 	lui	a1,0x8001
80005814:	3c048001 	lui	a0,0x8001
80005818:	24a2b020 	addiu	v0,a1,-20448
8000581c:	2483b030 	addiu	v1,a0,-20432
80005820:	8c460004 	lw	a2,4(v0)
80005824:	8c670004 	lw	a3,4(v1)
80005828:	3c09000f 	lui	t1,0xf
8000582c:	00c74023 	subu	t0,a2,a3
80005830:	252a4240 	addiu	t2,t1,16960
80005834:	15400002 	bnez	t2,80005840 <get_time+0x30>
80005838:	010a001b 	divu	zero,t0,t2
8000583c:	0007000d 	break	0x7
80005840:	8cacb020 	lw	t4,-20448(a1)
80005844:	8c8db030 	lw	t5,-20432(a0)
80005848:	00000000 	nop
8000584c:	018d7023 	subu	t6,t4,t5
80005850:	000e7940 	sll	t7,t6,0x5
80005854:	01eec023 	subu	t8,t7,t6
80005858:	0018c880 	sll	t9,t8,0x2
8000585c:	032e2821 	addu	a1,t9,t6
80005860:	000520c0 	sll	a0,a1,0x3
80005864:	00005812 	mflo	t3
80005868:	03e00008 	jr	ra
8000586c:	008b1021 	addu	v0,a0,t3

80005870 <time_in_secs>:
time_in_secs():
80005870:	240203e8 	li	v0,1000
80005874:	14400002 	bnez	v0,80005880 <time_in_secs+0x10>
80005878:	0082001b 	divu	zero,a0,v0
8000587c:	0007000d 	break	0x7
80005880:	00001012 	mflo	v0
80005884:	03e00008 	jr	ra
80005888:	00000000 	nop
8000588c:	00000000 	nop

80005890 <portable_init>:
portable_init():
80005890:	24020001 	li	v0,1
80005894:	03e00008 	jr	ra
80005898:	a0820000 	sb	v0,0(a0)
8000589c:	00000000 	nop

800058a0 <portable_fini>:
portable_fini():
800058a0:	03e00008 	jr	ra
800058a4:	a0800000 	sb	zero,0(a0)
	...

800058b0 <core_bench_state>:
core_bench_state():
800058b0:	27bdff78 	addiu	sp,sp,-136
800058b4:	afbf0084 	sw	ra,132(sp)
800058b8:	afbe0080 	sw	s8,128(sp)
800058bc:	afb7007c 	sw	s7,124(sp)
800058c0:	afb60078 	sw	s6,120(sp)
800058c4:	afb50074 	sw	s5,116(sp)
800058c8:	afb40070 	sw	s4,112(sp)
800058cc:	afb3006c 	sw	s3,108(sp)
800058d0:	afb20068 	sw	s2,104(sp)
800058d4:	afb10064 	sw	s1,100(sp)
800058d8:	afb00060 	sw	s0,96(sp)
800058dc:	90a20000 	lbu	v0,0(a1)
800058e0:	87a30098 	lh	v1,152(sp)
800058e4:	97a8009c 	lhu	t0,156(sp)
800058e8:	afa30054 	sw	v1,84(sp)
800058ec:	afa8005c 	sw	t0,92(sp)
800058f0:	afa40088 	sw	a0,136(sp)
800058f4:	afa60090 	sw	a2,144(sp)
800058f8:	afa70094 	sw	a3,148(sp)
800058fc:	afa00010 	sw	zero,16(sp)
80005900:	afa00030 	sw	zero,48(sp)
80005904:	afa00014 	sw	zero,20(sp)
80005908:	afa00034 	sw	zero,52(sp)
8000590c:	afa00018 	sw	zero,24(sp)
80005910:	afa00038 	sw	zero,56(sp)
80005914:	afa0001c 	sw	zero,28(sp)
80005918:	afa0003c 	sw	zero,60(sp)
8000591c:	afa00020 	sw	zero,32(sp)
80005920:	afa00040 	sw	zero,64(sp)
80005924:	afa00024 	sw	zero,36(sp)
80005928:	afa00044 	sw	zero,68(sp)
8000592c:	afa00028 	sw	zero,40(sp)
80005930:	afa00048 	sw	zero,72(sp)
80005934:	afa0002c 	sw	zero,44(sp)
80005938:	10400145 	beqz	v0,80005e50 <core_bench_state+0x5a0>
8000593c:	afa0004c 	sw	zero,76(sp)
80005940:	90b30001 	lbu	s3,1(a1)
80005944:	24a40001 	addiu	a0,a1,1
80005948:	2406002c 	li	a2,44
8000594c:	0080b025 	move	s6,a0
80005950:	1046011f 	beq	v0,a2,80005dd0 <core_bench_state+0x520>
80005954:	0260a825 	move	s5,s3
80005958:	27a90010 	addiu	t1,sp,16
8000595c:	00401825 	move	v1,v0
80005960:	00a03825 	move	a3,a1
80005964:	00006825 	move	t5,zero
80005968:	00004025 	move	t0,zero
8000596c:	00007825 	move	t7,zero
80005970:	0000f825 	move	ra,zero
80005974:	00006025 	move	t4,zero
80005978:	00008025 	move	s0,zero
8000597c:	0000b825 	move	s7,zero
80005980:	00008825 	move	s1,zero
80005984:	0000a025 	move	s4,zero
80005988:	0000c825 	move	t9,zero
8000598c:	0000c025 	move	t8,zero
80005990:	00009025 	move	s2,zero
80005994:	0000f025 	move	s8,zero
80005998:	afa90050 	sw	t1,80(sp)
8000599c:	246effd0 	addiu	t6,v1,-48
800059a0:	31cb00ff 	andi	t3,t6,0xff
800059a4:	2d69000a 	sltiu	t1,t3,10
800059a8:	1120004d 	beqz	t1,80005ae0 <core_bench_state+0x230>
800059ac:	27180001 	addiu	t8,t8,1
800059b0:	24060004 	li	a2,4
800059b4:	12a0011a 	beqz	s5,80005e20 <core_bench_state+0x570>
800059b8:	240a0001 	li	t2,1
800059bc:	2403002c 	li	v1,44
800059c0:	12a303df 	beq	s5,v1,80006940 <core_bench_state+0x1090>
800059c4:	26ce0001 	addiu	t6,s6,1
800059c8:	90e90002 	lbu	t1,2(a3)
800059cc:	02a01825 	move	v1,s5
800059d0:	02c03825 	move	a3,s6
800059d4:	240b002e 	li	t3,46
800059d8:	2415002c 	li	s5,44
800059dc:	2476ffd0 	addiu	s6,v1,-48
800059e0:	32c600ff 	andi	a2,s6,0xff
800059e4:	106b004e 	beq	v1,t3,80005b20 <core_bench_state+0x270>
800059e8:	2cca000a 	sltiu	t2,a2,10
800059ec:	154000ac 	bnez	t2,80005ca0 <core_bench_state+0x3f0>
800059f0:	24070004 	li	a3,4
800059f4:	26310001 	addiu	s1,s1,1
800059f8:	01201825 	move	v1,t1
800059fc:	01c03825 	move	a3,t6
80005a00:	24170001 	li	s7,1
80005a04:	240a0001 	li	t2,1
80005a08:	24060001 	li	a2,1
80005a0c:	8fb60050 	lw	s6,80(sp)
80005a10:	0006a880 	sll	s5,a2,0x2
80005a14:	02d53021 	addu	a2,s6,s5
80005a18:	8cc90020 	lw	t1,32(a2)
80005a1c:	240e002c 	li	t6,44
80005a20:	252b0001 	addiu	t3,t1,1
80005a24:	24f60001 	addiu	s6,a3,1
80005a28:	1060000e 	beqz	v1,80005a64 <core_bench_state+0x1b4>
80005a2c:	accb0020 	sw	t3,32(a2)
80005a30:	90f50001 	lbu	s5,1(a3)
80005a34:	146effd9 	bne	v1,t6,8000599c <core_bench_state+0xec>
80005a38:	00003025 	move	a2,zero
80005a3c:	02c03825 	move	a3,s6
80005a40:	8fb60050 	lw	s6,80(sp)
80005a44:	02a01825 	move	v1,s5
80005a48:	0006a880 	sll	s5,a2,0x2
80005a4c:	02d53021 	addu	a2,s6,s5
80005a50:	8cc90020 	lw	t1,32(a2)
80005a54:	24f60001 	addiu	s6,a3,1
80005a58:	252b0001 	addiu	t3,t1,1
80005a5c:	1460fff4 	bnez	v1,80005a30 <core_bench_state+0x180>
80005a60:	accb0020 	sw	t3,32(a2)
80005a64:	13c00002 	beqz	s8,80005a70 <core_bench_state+0x1c0>
80005a68:	00000000 	nop
80005a6c:	afb20014 	sw	s2,20(sp)
80005a70:	11400002 	beqz	t2,80005a7c <core_bench_state+0x1cc>
80005a74:	00000000 	nop
80005a78:	afb80010 	sw	t8,16(sp)
80005a7c:	12800002 	beqz	s4,80005a88 <core_bench_state+0x1d8>
80005a80:	00000000 	nop
80005a84:	afb90018 	sw	t9,24(sp)
80005a88:	12e00002 	beqz	s7,80005a94 <core_bench_state+0x1e4>
80005a8c:	00000000 	nop
80005a90:	afb10020 	sw	s1,32(sp)
80005a94:	11800002 	beqz	t4,80005aa0 <core_bench_state+0x1f0>
80005a98:	00000000 	nop
80005a9c:	afb00024 	sw	s0,36(sp)
80005aa0:	11e00002 	beqz	t7,80005aac <core_bench_state+0x1fc>
80005aa4:	00000000 	nop
80005aa8:	afbf001c 	sw	ra,28(sp)
80005aac:	11a000ea 	beqz	t5,80005e58 <core_bench_state+0x5a8>
80005ab0:	00000000 	nop
80005ab4:	8fa70088 	lw	a3,136(sp)
80005ab8:	00000000 	nop
80005abc:	00a79021 	addu	s2,a1,a3
80005ac0:	00b2b02b 	sltu	s6,a1,s2
80005ac4:	16c000ea 	bnez	s6,80005e70 <core_bench_state+0x5c0>
80005ac8:	afa80028 	sw	t0,40(sp)
80005acc:	1000017e 	b	800060c8 <core_bench_state+0x818>
80005ad0:	2407002c 	li	a3,44
	...
80005ae0:	240a002b 	li	t2,43
80005ae4:	106a007a 	beq	v1,t2,80005cd0 <core_bench_state+0x420>
80005ae8:	2406002d 	li	a2,45
80005aec:	10660078 	beq	v1,a2,80005cd0 <core_bench_state+0x420>
80005af0:	240e002e 	li	t6,46
80005af4:	106e00aa 	beq	v1,t6,80005da0 <core_bench_state+0x4f0>
80005af8:	02a01825 	move	v1,s5
80005afc:	26520001 	addiu	s2,s2,1
80005b00:	02c03825 	move	a3,s6
80005b04:	240a0001 	li	t2,1
80005b08:	241e0001 	li	s8,1
80005b0c:	1000ffbf 	b	80005a0c <core_bench_state+0x15c>
80005b10:	24060001 	li	a2,1
	...
80005b20:	26310001 	addiu	s1,s1,1
80005b24:	24060005 	li	a2,5
80005b28:	240a0001 	li	t2,1
80005b2c:	112000c5 	beqz	t1,80005e44 <core_bench_state+0x594>
80005b30:	24170001 	li	s7,1
80005b34:	2415002c 	li	s5,44
80005b38:	11350385 	beq	t1,s5,80006950 <core_bench_state+0x10a0>
80005b3c:	25cb0001 	addiu	t3,t6,1
80005b40:	90e30002 	lbu	v1,2(a3)
80005b44:	24150045 	li	s5,69
80005b48:	2416002c 	li	s6,44
80005b4c:	252affd0 	addiu	t2,t1,-48
80005b50:	314600ff 	andi	a2,t2,0xff
80005b54:	312900df 	andi	t1,t1,0xdf
80005b58:	11350009 	beq	t1,s5,80005b80 <core_bench_state+0x2d0>
80005b5c:	2cc7000a 	sltiu	a3,a2,10
80005b60:	14e00083 	bnez	a3,80005d70 <core_bench_state+0x4c0>
80005b64:	240e0005 	li	t6,5
80005b68:	26100001 	addiu	s0,s0,1
80005b6c:	01603825 	move	a3,t3
80005b70:	240c0001 	li	t4,1
80005b74:	240a0001 	li	t2,1
80005b78:	1000ffa4 	b	80005a0c <core_bench_state+0x15c>
80005b7c:	24060001 	li	a2,1
80005b80:	26100001 	addiu	s0,s0,1
80005b84:	24060003 	li	a2,3
80005b88:	240a0001 	li	t2,1
80005b8c:	106000a8 	beqz	v1,80005e30 <core_bench_state+0x580>
80005b90:	240c0001 	li	t4,1
80005b94:	2415002c 	li	s5,44
80005b98:	10750345 	beq	v1,s5,800068b0 <core_bench_state+0x1000>
80005b9c:	25670001 	addiu	a3,t3,1
80005ba0:	240f002b 	li	t7,43
80005ba4:	91d60002 	lbu	s6,2(t6)
80005ba8:	106f0009 	beq	v1,t7,80005bd0 <core_bench_state+0x320>
80005bac:	27ff0001 	addiu	ra,ra,1
80005bb0:	2409002d 	li	t1,45
80005bb4:	24060001 	li	a2,1
80005bb8:	01805025 	move	t2,t4
80005bbc:	10690004 	beq	v1,t1,80005bd0 <core_bench_state+0x320>
80005bc0:	240f0001 	li	t7,1
80005bc4:	1000ff91 	b	80005a0c <core_bench_state+0x15c>
80005bc8:	02c01825 	move	v1,s6
80005bcc:	00000000 	nop
80005bd0:	24060006 	li	a2,6
80005bd4:	240a0001 	li	t2,1
80005bd8:	240c0001 	li	t4,1
80005bdc:	240f0001 	li	t7,1
80005be0:	12c0ff8a 	beqz	s6,80005a0c <core_bench_state+0x15c>
80005be4:	00001825 	move	v1,zero
80005be8:	240e002c 	li	t6,44
80005bec:	12ce0334 	beq	s6,t6,800068c0 <core_bench_state+0x1010>
80005bf0:	25670002 	addiu	a3,t3,2
80005bf4:	26cdffd0 	addiu	t5,s6,-48
80005bf8:	2db5000a 	sltiu	s5,t5,10
80005bfc:	91630002 	lbu	v1,2(t3)
80005c00:	25080001 	addiu	t0,t0,1
80005c04:	24060001 	li	a2,1
80005c08:	12a0ff80 	beqz	s5,80005a0c <core_bench_state+0x15c>
80005c0c:	240d0001 	li	t5,1
80005c10:	24060007 	li	a2,7
80005c14:	01a05025 	move	t2,t5
80005c18:	01a06025 	move	t4,t5
80005c1c:	1060ff7b 	beqz	v1,80005a0c <core_bench_state+0x15c>
80005c20:	01a07825 	move	t7,t5
80005c24:	106e033e 	beq	v1,t6,80006920 <core_bench_state+0x1070>
80005c28:	25670003 	addiu	a3,t3,3
80005c2c:	00604825 	move	t1,v1
80005c30:	91630003 	lbu	v1,3(t3)
80005c34:	2416002c 	li	s6,44
80005c38:	252cffd0 	addiu	t4,t1,-48
80005c3c:	318600ff 	andi	a2,t4,0xff
80005c40:	2ccb000a 	sltiu	t3,a2,10
80005c44:	1560000a 	bnez	t3,80005c70 <core_bench_state+0x3c0>
80005c48:	240f0001 	li	t7,1
80005c4c:	26520001 	addiu	s2,s2,1
80005c50:	240d0001 	li	t5,1
80005c54:	240c0001 	li	t4,1
80005c58:	240a0001 	li	t2,1
80005c5c:	241e0001 	li	s8,1
80005c60:	1000ff6a 	b	80005a0c <core_bench_state+0x15c>
80005c64:	24060001 	li	a2,1
	...
80005c70:	24060007 	li	a2,7
80005c74:	240a0001 	li	t2,1
80005c78:	240c0001 	li	t4,1
80005c7c:	1060ff63 	beqz	v1,80005a0c <core_bench_state+0x15c>
80005c80:	240d0001 	li	t5,1
80005c84:	90ee0001 	lbu	t6,1(a3)
80005c88:	00604825 	move	t1,v1
80005c8c:	24e70001 	addiu	a3,a3,1
80005c90:	1536ffe9 	bne	t1,s6,80005c38 <core_bench_state+0x388>
80005c94:	01c01825 	move	v1,t6
80005c98:	1000ff5c 	b	80005a0c <core_bench_state+0x15c>
80005c9c:	00000000 	nop
80005ca0:	afa70058 	sw	a3,88(sp)
80005ca4:	11200066 	beqz	t1,80005e40 <core_bench_state+0x590>
80005ca8:	240a0001 	li	t2,1
80005cac:	91c60001 	lbu	a2,1(t6)
80005cb0:	25d60001 	addiu	s6,t6,1
80005cb4:	01201825 	move	v1,t1
80005cb8:	11350331 	beq	t1,s5,80006980 <core_bench_state+0x10d0>
80005cbc:	01c03825 	move	a3,t6
80005cc0:	02c07025 	move	t6,s6
80005cc4:	1000ff45 	b	800059dc <core_bench_state+0x12c>
80005cc8:	00c04825 	move	t1,a2
80005ccc:	00000000 	nop
80005cd0:	24060002 	li	a2,2
80005cd4:	12a00052 	beqz	s5,80005e20 <core_bench_state+0x570>
80005cd8:	240a0001 	li	t2,1
80005cdc:	240b002c 	li	t3,44
80005ce0:	12ab032b 	beq	s5,t3,80006990 <core_bench_state+0x10e0>
80005ce4:	26c90001 	addiu	t1,s6,1
80005ce8:	26b4ffd0 	addiu	s4,s5,-48
80005cec:	2e8a000a 	sltiu	t2,s4,10
80005cf0:	90e30002 	lbu	v1,2(a3)
80005cf4:	27390001 	addiu	t9,t9,1
80005cf8:	15400011 	bnez	t2,80005d40 <core_bench_state+0x490>
80005cfc:	01203825 	move	a3,t1
80005d00:	240e002e 	li	t6,46
80005d04:	24060001 	li	a2,1
80005d08:	240a0001 	li	t2,1
80005d0c:	16aeff3f 	bne	s5,t6,80005a0c <core_bench_state+0x15c>
80005d10:	24140001 	li	s4,1
80005d14:	1060ff3d 	beqz	v1,80005a0c <core_bench_state+0x15c>
80005d18:	24060005 	li	a2,5
80005d1c:	2415002c 	li	s5,44
80005d20:	1075032a 	beq	v1,s5,800069cc <core_bench_state+0x111c>
80005d24:	24eb0001 	addiu	t3,a3,1
80005d28:	00604825 	move	t1,v1
80005d2c:	92c30002 	lbu	v1,2(s6)
80005d30:	1000ff84 	b	80005b44 <core_bench_state+0x294>
80005d34:	00e07025 	move	t6,a3
	...
80005d40:	24060004 	li	a2,4
80005d44:	240a0001 	li	t2,1
80005d48:	1060ff30 	beqz	v1,80005a0c <core_bench_state+0x15c>
80005d4c:	24140001 	li	s4,1
80005d50:	240b002c 	li	t3,44
80005d54:	106b02ee 	beq	v1,t3,80006910 <core_bench_state+0x1060>
80005d58:	24ee0001 	addiu	t6,a3,1
80005d5c:	92c90002 	lbu	t1,2(s6)
80005d60:	1000ff1d 	b	800059d8 <core_bench_state+0x128>
80005d64:	240b002e 	li	t3,46
	...
80005d70:	afae0058 	sw	t6,88(sp)
80005d74:	1060002d 	beqz	v1,80005e2c <core_bench_state+0x57c>
80005d78:	240a0001 	li	t2,1
80005d7c:	91660001 	lbu	a2,1(t3)
80005d80:	25670001 	addiu	a3,t3,1
80005d84:	00604825 	move	t1,v1
80005d88:	10760307 	beq	v1,s6,800069a8 <core_bench_state+0x10f8>
80005d8c:	01607025 	move	t6,t3
80005d90:	00e05825 	move	t3,a3
80005d94:	1000ff6d 	b	80005b4c <core_bench_state+0x29c>
80005d98:	00c01825 	move	v1,a2
80005d9c:	00000000 	nop
80005da0:	24060005 	li	a2,5
80005da4:	12a0001e 	beqz	s5,80005e20 <core_bench_state+0x570>
80005da8:	240a0001 	li	t2,1
80005dac:	2403002c 	li	v1,44
80005db0:	12a30314 	beq	s5,v1,80006a04 <core_bench_state+0x1154>
80005db4:	26cb0001 	addiu	t3,s6,1
80005db8:	90e30002 	lbu	v1,2(a3)
80005dbc:	02c07025 	move	t6,s6
80005dc0:	1000ff60 	b	80005b44 <core_bench_state+0x294>
80005dc4:	02a04825 	move	t1,s5
	...
80005dd0:	27ab0010 	addiu	t3,sp,16
80005dd4:	02601825 	move	v1,s3
80005dd8:	00803825 	move	a3,a0
80005ddc:	00009025 	move	s2,zero
80005de0:	0000f025 	move	s8,zero
80005de4:	00006825 	move	t5,zero
80005de8:	00004025 	move	t0,zero
80005dec:	00007825 	move	t7,zero
80005df0:	0000f825 	move	ra,zero
80005df4:	00006025 	move	t4,zero
80005df8:	00008025 	move	s0,zero
80005dfc:	0000b825 	move	s7,zero
80005e00:	00008825 	move	s1,zero
80005e04:	0000a025 	move	s4,zero
80005e08:	0000c825 	move	t9,zero
80005e0c:	00005025 	move	t2,zero
80005e10:	0000c025 	move	t8,zero
80005e14:	00003025 	move	a2,zero
80005e18:	1000fefc 	b	80005a0c <core_bench_state+0x15c>
80005e1c:	afab0050 	sw	t3,80(sp)
80005e20:	00001825 	move	v1,zero
80005e24:	1000fef9 	b	80005a0c <core_bench_state+0x15c>
80005e28:	02c03825 	move	a3,s6
80005e2c:	24060005 	li	a2,5
80005e30:	1000fef6 	b	80005a0c <core_bench_state+0x15c>
80005e34:	01603825 	move	a3,t3
	...
80005e40:	24060004 	li	a2,4
80005e44:	00001825 	move	v1,zero
80005e48:	1000fef0 	b	80005a0c <core_bench_state+0x15c>
80005e4c:	01c03825 	move	a3,t6
80005e50:	27a40010 	addiu	a0,sp,16
80005e54:	afa40050 	sw	a0,80(sp)
80005e58:	8faa0088 	lw	t2,136(sp)
80005e5c:	00000000 	nop
80005e60:	00aa9021 	addu	s2,a1,t2
80005e64:	00b2b02b 	sltu	s6,a1,s2
80005e68:	12c00092 	beqz	s6,800060b4 <core_bench_state+0x804>
80005e6c:	00000000 	nop
80005e70:	8faf0054 	lw	t7,84(sp)
80005e74:	24020001 	li	v0,1
80005e78:	15e20275 	bne	t7,v0,80006850 <core_bench_state+0xfa0>
80005e7c:	00056027 	nor	t4,zero,a1
80005e80:	90b00000 	lbu	s0,0(a1)
80005e84:	024cb821 	addu	s7,s2,t4
80005e88:	2411002c 	li	s1,44
80005e8c:	12110005 	beq	s0,s1,80005ea4 <core_bench_state+0x5f4>
80005e90:	32f40007 	andi	s4,s7,0x7
80005e94:	8fb90090 	lw	t9,144(sp)
80005e98:	00000000 	nop
80005e9c:	0219f026 	xor	s8,s0,t9
80005ea0:	a0be0000 	sb	s8,0(a1)
80005ea4:	24a20001 	addiu	v0,a1,1
80005ea8:	0052702b 	sltu	t6,v0,s2
80005eac:	11c0007f 	beqz	t6,800060ac <core_bench_state+0x7fc>
80005eb0:	00000000 	nop
80005eb4:	1280004f 	beqz	s4,80005ff4 <core_bench_state+0x744>
80005eb8:	24150001 	li	s5,1
80005ebc:	12950041 	beq	s4,s5,80005fc4 <core_bench_state+0x714>
80005ec0:	24060002 	li	a2,2
80005ec4:	12860036 	beq	s4,a2,80005fa0 <core_bench_state+0x6f0>
80005ec8:	24090003 	li	t1,3
80005ecc:	1289002b 	beq	s4,t1,80005f7c <core_bench_state+0x6cc>
80005ed0:	240b0004 	li	t3,4
80005ed4:	128b0020 	beq	s4,t3,80005f58 <core_bench_state+0x6a8>
80005ed8:	24070005 	li	a3,5
80005edc:	12870015 	beq	s4,a3,80005f34 <core_bench_state+0x684>
80005ee0:	240a0006 	li	t2,6
80005ee4:	128a000a 	beq	s4,t2,80005f10 <core_bench_state+0x660>
80005ee8:	00000000 	nop
80005eec:	904f0000 	lbu	t7,0(v0)
80005ef0:	00000000 	nop
80005ef4:	11f10005 	beq	t7,s1,80005f0c <core_bench_state+0x65c>
80005ef8:	00000000 	nop
80005efc:	8fb30090 	lw	s3,144(sp)
80005f00:	00000000 	nop
80005f04:	01f3c026 	xor	t8,t7,s3
80005f08:	a0580000 	sb	t8,0(v0)
80005f0c:	24420001 	addiu	v0,v0,1
80005f10:	90480000 	lbu	t0,0(v0)
80005f14:	00000000 	nop
80005f18:	11110005 	beq	t0,s1,80005f30 <core_bench_state+0x680>
80005f1c:	00000000 	nop
80005f20:	8fa30090 	lw	v1,144(sp)
80005f24:	00000000 	nop
80005f28:	01032026 	xor	a0,t0,v1
80005f2c:	a0440000 	sb	a0,0(v0)
80005f30:	24420001 	addiu	v0,v0,1
80005f34:	904d0000 	lbu	t5,0(v0)
80005f38:	00000000 	nop
80005f3c:	11b10005 	beq	t5,s1,80005f54 <core_bench_state+0x6a4>
80005f40:	00000000 	nop
80005f44:	8fbf0090 	lw	ra,144(sp)
80005f48:	00000000 	nop
80005f4c:	01bf6026 	xor	t4,t5,ra
80005f50:	a04c0000 	sb	t4,0(v0)
80005f54:	24420001 	addiu	v0,v0,1
80005f58:	90500000 	lbu	s0,0(v0)
80005f5c:	00000000 	nop
80005f60:	12110005 	beq	s0,s1,80005f78 <core_bench_state+0x6c8>
80005f64:	00000000 	nop
80005f68:	8fb70090 	lw	s7,144(sp)
80005f6c:	00000000 	nop
80005f70:	0217a026 	xor	s4,s0,s7
80005f74:	a0540000 	sb	s4,0(v0)
80005f78:	24420001 	addiu	v0,v0,1
80005f7c:	90590000 	lbu	t9,0(v0)
80005f80:	00000000 	nop
80005f84:	13310005 	beq	t9,s1,80005f9c <core_bench_state+0x6ec>
80005f88:	00000000 	nop
80005f8c:	8fbe0090 	lw	s8,144(sp)
80005f90:	00000000 	nop
80005f94:	033e7026 	xor	t6,t9,s8
80005f98:	a04e0000 	sb	t6,0(v0)
80005f9c:	24420001 	addiu	v0,v0,1
80005fa0:	90550000 	lbu	s5,0(v0)
80005fa4:	00000000 	nop
80005fa8:	12b10005 	beq	s5,s1,80005fc0 <core_bench_state+0x710>
80005fac:	00000000 	nop
80005fb0:	8fa60090 	lw	a2,144(sp)
80005fb4:	00000000 	nop
80005fb8:	02a64826 	xor	t1,s5,a2
80005fbc:	a0490000 	sb	t1,0(v0)
80005fc0:	24420001 	addiu	v0,v0,1
80005fc4:	904b0000 	lbu	t3,0(v0)
80005fc8:	00000000 	nop
80005fcc:	11710005 	beq	t3,s1,80005fe4 <core_bench_state+0x734>
80005fd0:	00000000 	nop
80005fd4:	8fa70090 	lw	a3,144(sp)
80005fd8:	00000000 	nop
80005fdc:	01675026 	xor	t2,t3,a3
80005fe0:	a04a0000 	sb	t2,0(v0)
80005fe4:	24420001 	addiu	v0,v0,1
80005fe8:	0052782b 	sltu	t7,v0,s2
80005fec:	11e0002f 	beqz	t7,800060ac <core_bench_state+0x7fc>
80005ff0:	00000000 	nop
80005ff4:	8fb30090 	lw	s3,144(sp)
80005ff8:	90580000 	lbu	t8,0(v0)
80005ffc:	00000000 	nop
80006000:	13110002 	beq	t8,s1,8000600c <core_bench_state+0x75c>
80006004:	03134026 	xor	t0,t8,s3
80006008:	a0480000 	sb	t0,0(v0)
8000600c:	90430001 	lbu	v1,1(v0)
80006010:	00000000 	nop
80006014:	10710003 	beq	v1,s1,80006024 <core_bench_state+0x774>
80006018:	24440001 	addiu	a0,v0,1
8000601c:	00736826 	xor	t5,v1,s3
80006020:	a04d0001 	sb	t5,1(v0)
80006024:	90820001 	lbu	v0,1(a0)
80006028:	00000000 	nop
8000602c:	10510002 	beq	v0,s1,80006038 <core_bench_state+0x788>
80006030:	0053f826 	xor	ra,v0,s3
80006034:	a09f0001 	sb	ra,1(a0)
80006038:	908c0002 	lbu	t4,2(a0)
8000603c:	00000000 	nop
80006040:	11910002 	beq	t4,s1,8000604c <core_bench_state+0x79c>
80006044:	01938026 	xor	s0,t4,s3
80006048:	a0900002 	sb	s0,2(a0)
8000604c:	90970003 	lbu	s7,3(a0)
80006050:	00000000 	nop
80006054:	12f10002 	beq	s7,s1,80006060 <core_bench_state+0x7b0>
80006058:	02f3a026 	xor	s4,s7,s3
8000605c:	a0940003 	sb	s4,3(a0)
80006060:	90990004 	lbu	t9,4(a0)
80006064:	00000000 	nop
80006068:	13310002 	beq	t9,s1,80006074 <core_bench_state+0x7c4>
8000606c:	0333f026 	xor	s8,t9,s3
80006070:	a09e0004 	sb	s8,4(a0)
80006074:	908e0005 	lbu	t6,5(a0)
80006078:	00000000 	nop
8000607c:	11d10002 	beq	t6,s1,80006088 <core_bench_state+0x7d8>
80006080:	01d3a826 	xor	s5,t6,s3
80006084:	a0950005 	sb	s5,5(a0)
80006088:	90860006 	lbu	a2,6(a0)
8000608c:	00000000 	nop
80006090:	10d10002 	beq	a2,s1,8000609c <core_bench_state+0x7ec>
80006094:	00d34826 	xor	t1,a2,s3
80006098:	a0890006 	sb	t1,6(a0)
8000609c:	24820007 	addiu	v0,a0,7
800060a0:	0052582b 	sltu	t3,v0,s2
800060a4:	1560ffd4 	bnez	t3,80005ff8 <core_bench_state+0x748>
800060a8:	00000000 	nop
800060ac:	90a20000 	lbu	v0,0(a1)
800060b0:	00000000 	nop
800060b4:	10400051 	beqz	v0,800061fc <core_bench_state+0x94c>
800060b8:	2407002c 	li	a3,44
800060bc:	90b30001 	lbu	s3,1(a1)
800060c0:	8fa80028 	lw	t0,40(sp)
800060c4:	24a40001 	addiu	a0,a1,1
800060c8:	8fb10014 	lw	s1,20(sp)
800060cc:	8fae0010 	lw	t6,16(sp)
800060d0:	8faf0018 	lw	t7,24(sp)
800060d4:	8fb00020 	lw	s0,32(sp)
800060d8:	8fbf0024 	lw	ra,36(sp)
800060dc:	8fb8001c 	lw	t8,28(sp)
800060e0:	0080b825 	move	s7,a0
800060e4:	1047023d 	beq	v0,a3,800069dc <core_bench_state+0x112c>
800060e8:	0260c825 	move	t9,s3
800060ec:	00a02025 	move	a0,a1
800060f0:	0000a025 	move	s4,zero
800060f4:	00005825 	move	t3,zero
800060f8:	00006025 	move	t4,zero
800060fc:	00006825 	move	t5,zero
80006100:	0000a825 	move	s5,zero
80006104:	00009825 	move	s3,zero
80006108:	244affd0 	addiu	t2,v0,-48
8000610c:	315e00ff 	andi	s8,t2,0xff
80006110:	2fc9000a 	sltiu	t1,s8,10
80006114:	152000ea 	bnez	t1,800064c0 <core_bench_state+0xc10>
80006118:	25ce0001 	addiu	t6,t6,1
8000611c:	2406002b 	li	a2,43
80006120:	1046016f 	beq	v0,a2,800066e0 <core_bench_state+0xe30>
80006124:	24030002 	li	v1,2
80006128:	2407002d 	li	a3,45
8000612c:	10470168 	beq	v0,a3,800066d0 <core_bench_state+0xe20>
80006130:	2403002e 	li	v1,46
80006134:	1043019e 	beq	v0,v1,800067b0 <core_bench_state+0xf00>
80006138:	03201025 	move	v0,t9
8000613c:	26310001 	addiu	s1,s1,1
80006140:	02e02025 	move	a0,s7
80006144:	24070001 	li	a3,1
80006148:	24140001 	li	s4,1
8000614c:	24030001 	li	v1,1
80006150:	8fbe0050 	lw	s8,80(sp)
80006154:	00031880 	sll	v1,v1,0x2
80006158:	03c33021 	addu	a2,s8,v1
8000615c:	8cc90020 	lw	t1,32(a2)
80006160:	240a002c 	li	t2,44
80006164:	25390001 	addiu	t9,t1,1
80006168:	24970001 	addiu	s7,a0,1
8000616c:	1040000e 	beqz	v0,800061a8 <core_bench_state+0x8f8>
80006170:	acd90020 	sw	t9,32(a2)
80006174:	90990001 	lbu	t9,1(a0)
80006178:	144affe3 	bne	v0,t2,80006108 <core_bench_state+0x858>
8000617c:	00001825 	move	v1,zero
80006180:	8fbe0050 	lw	s8,80(sp)
80006184:	00031880 	sll	v1,v1,0x2
80006188:	03c33021 	addu	a2,s8,v1
8000618c:	8cc90020 	lw	t1,32(a2)
80006190:	03201025 	move	v0,t9
80006194:	02e02025 	move	a0,s7
80006198:	25390001 	addiu	t9,t1,1
8000619c:	24970001 	addiu	s7,a0,1
800061a0:	1440fff4 	bnez	v0,80006174 <core_bench_state+0x8c4>
800061a4:	acd90020 	sw	t9,32(a2)
800061a8:	12800002 	beqz	s4,800061b4 <core_bench_state+0x904>
800061ac:	00000000 	nop
800061b0:	afb10014 	sw	s1,20(sp)
800061b4:	10e00002 	beqz	a3,800061c0 <core_bench_state+0x910>
800061b8:	00000000 	nop
800061bc:	afae0010 	sw	t6,16(sp)
800061c0:	12600002 	beqz	s3,800061cc <core_bench_state+0x91c>
800061c4:	00000000 	nop
800061c8:	afaf0018 	sw	t7,24(sp)
800061cc:	12a00002 	beqz	s5,800061d8 <core_bench_state+0x928>
800061d0:	00000000 	nop
800061d4:	afb00020 	sw	s0,32(sp)
800061d8:	11600002 	beqz	t3,800061e4 <core_bench_state+0x934>
800061dc:	00000000 	nop
800061e0:	afbf0024 	sw	ra,36(sp)
800061e4:	11a00002 	beqz	t5,800061f0 <core_bench_state+0x940>
800061e8:	00000000 	nop
800061ec:	afb8001c 	sw	t8,28(sp)
800061f0:	11800002 	beqz	t4,800061fc <core_bench_state+0x94c>
800061f4:	00000000 	nop
800061f8:	afa80028 	sw	t0,40(sp)
800061fc:	12c00095 	beqz	s6,80006454 <core_bench_state+0xba4>
80006200:	00000000 	nop
80006204:	8fa20054 	lw	v0,84(sp)
80006208:	24160001 	li	s6,1
8000620c:	14560180 	bne	v0,s6,80006810 <core_bench_state+0xf60>
80006210:	0005f827 	nor	ra,zero,a1
80006214:	90b80000 	lbu	t8,0(a1)
80006218:	025fb821 	addu	s7,s2,ra
8000621c:	2414002c 	li	s4,44
80006220:	13140005 	beq	t8,s4,80006238 <core_bench_state+0x988>
80006224:	32eb0007 	andi	t3,s7,0x7
80006228:	8fa40094 	lw	a0,148(sp)
8000622c:	00000000 	nop
80006230:	03046026 	xor	t4,t8,a0
80006234:	a0ac0000 	sb	t4,0(a1)
80006238:	24a50001 	addiu	a1,a1,1
8000623c:	00b2682b 	sltu	t5,a1,s2
80006240:	11a00084 	beqz	t5,80006454 <core_bench_state+0xba4>
80006244:	00000000 	nop
80006248:	1160004f 	beqz	t3,80006388 <core_bench_state+0xad8>
8000624c:	24150001 	li	s5,1
80006250:	11750041 	beq	t3,s5,80006358 <core_bench_state+0xaa8>
80006254:	24130002 	li	s3,2
80006258:	11730036 	beq	t3,s3,80006334 <core_bench_state+0xa84>
8000625c:	240a0003 	li	t2,3
80006260:	116a002b 	beq	t3,t2,80006310 <core_bench_state+0xa60>
80006264:	24030004 	li	v1,4
80006268:	11630020 	beq	t3,v1,800062ec <core_bench_state+0xa3c>
8000626c:	241e0005 	li	s8,5
80006270:	117e0015 	beq	t3,s8,800062c8 <core_bench_state+0xa18>
80006274:	24060006 	li	a2,6
80006278:	1166000a 	beq	t3,a2,800062a4 <core_bench_state+0x9f4>
8000627c:	00000000 	nop
80006280:	90a90000 	lbu	t1,0(a1)
80006284:	00000000 	nop
80006288:	11340005 	beq	t1,s4,800062a0 <core_bench_state+0x9f0>
8000628c:	00000000 	nop
80006290:	8fb90094 	lw	t9,148(sp)
80006294:	00000000 	nop
80006298:	0139b026 	xor	s6,t1,t9
8000629c:	a0b60000 	sb	s6,0(a1)
800062a0:	24a50001 	addiu	a1,a1,1
800062a4:	90a20000 	lbu	v0,0(a1)
800062a8:	00000000 	nop
800062ac:	10540005 	beq	v0,s4,800062c4 <core_bench_state+0xa14>
800062b0:	00000000 	nop
800062b4:	8fa80094 	lw	t0,148(sp)
800062b8:	00000000 	nop
800062bc:	00488826 	xor	s1,v0,t0
800062c0:	a0b10000 	sb	s1,0(a1)
800062c4:	24a50001 	addiu	a1,a1,1
800062c8:	90a70000 	lbu	a3,0(a1)
800062cc:	00000000 	nop
800062d0:	10f40005 	beq	a3,s4,800062e8 <core_bench_state+0xa38>
800062d4:	00000000 	nop
800062d8:	8fae0094 	lw	t6,148(sp)
800062dc:	00000000 	nop
800062e0:	00ee7826 	xor	t7,a3,t6
800062e4:	a0af0000 	sb	t7,0(a1)
800062e8:	24a50001 	addiu	a1,a1,1
800062ec:	90b00000 	lbu	s0,0(a1)
800062f0:	00000000 	nop
800062f4:	12140005 	beq	s0,s4,8000630c <core_bench_state+0xa5c>
800062f8:	00000000 	nop
800062fc:	8fbf0094 	lw	ra,148(sp)
80006300:	00000000 	nop
80006304:	021fc026 	xor	t8,s0,ra
80006308:	a0b80000 	sb	t8,0(a1)
8000630c:	24a50001 	addiu	a1,a1,1
80006310:	90b70000 	lbu	s7,0(a1)
80006314:	00000000 	nop
80006318:	12f40005 	beq	s7,s4,80006330 <core_bench_state+0xa80>
8000631c:	00000000 	nop
80006320:	8fab0094 	lw	t3,148(sp)
80006324:	00000000 	nop
80006328:	02eb2026 	xor	a0,s7,t3
8000632c:	a0a40000 	sb	a0,0(a1)
80006330:	24a50001 	addiu	a1,a1,1
80006334:	90ac0000 	lbu	t4,0(a1)
80006338:	00000000 	nop
8000633c:	11940005 	beq	t4,s4,80006354 <core_bench_state+0xaa4>
80006340:	00000000 	nop
80006344:	8fad0094 	lw	t5,148(sp)
80006348:	00000000 	nop
8000634c:	018da826 	xor	s5,t4,t5
80006350:	a0b50000 	sb	s5,0(a1)
80006354:	24a50001 	addiu	a1,a1,1
80006358:	90b30000 	lbu	s3,0(a1)
8000635c:	00000000 	nop
80006360:	12740005 	beq	s3,s4,80006378 <core_bench_state+0xac8>
80006364:	00000000 	nop
80006368:	8faa0094 	lw	t2,148(sp)
8000636c:	00000000 	nop
80006370:	026a1826 	xor	v1,s3,t2
80006374:	a0a30000 	sb	v1,0(a1)
80006378:	24a50001 	addiu	a1,a1,1
8000637c:	00b2f02b 	sltu	s8,a1,s2
80006380:	13c00034 	beqz	s8,80006454 <core_bench_state+0xba4>
80006384:	00000000 	nop
80006388:	8fa90094 	lw	t1,148(sp)
8000638c:	90a60000 	lbu	a2,0(a1)
80006390:	00000000 	nop
80006394:	10d40002 	beq	a2,s4,800063a0 <core_bench_state+0xaf0>
80006398:	00c9c826 	xor	t9,a2,t1
8000639c:	a0b90000 	sb	t9,0(a1)
800063a0:	90b60001 	lbu	s6,1(a1)
800063a4:	00000000 	nop
800063a8:	12d40003 	beq	s6,s4,800063b8 <core_bench_state+0xb08>
800063ac:	24a20001 	addiu	v0,a1,1
800063b0:	02c94026 	xor	t0,s6,t1
800063b4:	a0a80001 	sb	t0,1(a1)
800063b8:	90450001 	lbu	a1,1(v0)
800063bc:	00000000 	nop
800063c0:	10b40003 	beq	a1,s4,800063d0 <core_bench_state+0xb20>
800063c4:	00000000 	nop
800063c8:	00a98826 	xor	s1,a1,t1
800063cc:	a0510001 	sb	s1,1(v0)
800063d0:	90470002 	lbu	a3,2(v0)
800063d4:	00000000 	nop
800063d8:	10f40003 	beq	a3,s4,800063e8 <core_bench_state+0xb38>
800063dc:	00000000 	nop
800063e0:	00e97026 	xor	t6,a3,t1
800063e4:	a04e0002 	sb	t6,2(v0)
800063e8:	904f0003 	lbu	t7,3(v0)
800063ec:	00000000 	nop
800063f0:	11f40003 	beq	t7,s4,80006400 <core_bench_state+0xb50>
800063f4:	00000000 	nop
800063f8:	01e98026 	xor	s0,t7,t1
800063fc:	a0500003 	sb	s0,3(v0)
80006400:	905f0004 	lbu	ra,4(v0)
80006404:	00000000 	nop
80006408:	13f40003 	beq	ra,s4,80006418 <core_bench_state+0xb68>
8000640c:	00000000 	nop
80006410:	03e9c026 	xor	t8,ra,t1
80006414:	a0580004 	sb	t8,4(v0)
80006418:	90570005 	lbu	s7,5(v0)
8000641c:	00000000 	nop
80006420:	12f40003 	beq	s7,s4,80006430 <core_bench_state+0xb80>
80006424:	00000000 	nop
80006428:	02e95826 	xor	t3,s7,t1
8000642c:	a04b0005 	sb	t3,5(v0)
80006430:	90440006 	lbu	a0,6(v0)
80006434:	00000000 	nop
80006438:	10940003 	beq	a0,s4,80006448 <core_bench_state+0xb98>
8000643c:	24450007 	addiu	a1,v0,7
80006440:	00896026 	xor	t4,a0,t1
80006444:	a04c0006 	sb	t4,6(v0)
80006448:	00b2682b 	sltu	t5,a1,s2
8000644c:	15a0ffcf 	bnez	t5,8000638c <core_bench_state+0xadc>
80006450:	00000000 	nop
80006454:	8fb50050 	lw	s5,80(sp)
80006458:	8fa5005c 	lw	a1,92(sp)
8000645c:	27b40030 	addiu	s4,sp,48
80006460:	27b20050 	addiu	s2,sp,80
80006464:	8e840000 	lw	a0,0(s4)
80006468:	0c001e74 	jal	800079d0 <crcu32>
8000646c:	26940004 	addiu	s4,s4,4
80006470:	8ea40000 	lw	a0,0(s5)
80006474:	0c001e74 	jal	800079d0 <crcu32>
80006478:	00402825 	move	a1,v0
8000647c:	00402825 	move	a1,v0
80006480:	1654fff8 	bne	s2,s4,80006464 <core_bench_state+0xbb4>
80006484:	26b50004 	addiu	s5,s5,4
80006488:	8fbf0084 	lw	ra,132(sp)
8000648c:	8fbe0080 	lw	s8,128(sp)
80006490:	8fb7007c 	lw	s7,124(sp)
80006494:	8fb60078 	lw	s6,120(sp)
80006498:	8fb50074 	lw	s5,116(sp)
8000649c:	8fb40070 	lw	s4,112(sp)
800064a0:	8fb3006c 	lw	s3,108(sp)
800064a4:	8fb20068 	lw	s2,104(sp)
800064a8:	8fb10064 	lw	s1,100(sp)
800064ac:	8fb00060 	lw	s0,96(sp)
800064b0:	03e00008 	jr	ra
800064b4:	27bd0088 	addiu	sp,sp,136
	...
800064c0:	24030004 	li	v1,4
800064c4:	132000c6 	beqz	t9,800067e0 <core_bench_state+0xf30>
800064c8:	24070001 	li	a3,1
800064cc:	2402002c 	li	v0,44
800064d0:	13220107 	beq	t9,v0,800068f0 <core_bench_state+0x1040>
800064d4:	26ea0001 	addiu	t2,s7,1
800064d8:	90860002 	lbu	a2,2(a0)
800064dc:	03201025 	move	v0,t9
800064e0:	02e02025 	move	a0,s7
800064e4:	2409002e 	li	t1,46
800064e8:	2419002c 	li	t9,44
800064ec:	2457ffd0 	addiu	s7,v0,-48
800064f0:	32e700ff 	andi	a3,s7,0xff
800064f4:	1049000a 	beq	v0,t1,80006520 <core_bench_state+0xc70>
800064f8:	2ce3000a 	sltiu	v1,a3,10
800064fc:	14600068 	bnez	v1,800066a0 <core_bench_state+0xdf0>
80006500:	00c01025 	move	v0,a2
80006504:	26100001 	addiu	s0,s0,1
80006508:	01402025 	move	a0,t2
8000650c:	24150001 	li	s5,1
80006510:	24070001 	li	a3,1
80006514:	1000ff0e 	b	80006150 <core_bench_state+0x8a0>
80006518:	24030001 	li	v1,1
8000651c:	00000000 	nop
80006520:	26100001 	addiu	s0,s0,1
80006524:	24030005 	li	v1,5
80006528:	24070001 	li	a3,1
8000652c:	10c000b4 	beqz	a2,80006800 <core_bench_state+0xf50>
80006530:	24150001 	li	s5,1
80006534:	2402002c 	li	v0,44
80006538:	10c20109 	beq	a2,v0,80006960 <core_bench_state+0x10b0>
8000653c:	25490001 	addiu	t1,t2,1
80006540:	90820002 	lbu	v0,2(a0)
80006544:	24190045 	li	t9,69
80006548:	2417002c 	li	s7,44
8000654c:	24c4ffd0 	addiu	a0,a2,-48
80006550:	308700ff 	andi	a3,a0,0xff
80006554:	30de00df 	andi	s8,a2,0xdf
80006558:	13d90009 	beq	s8,t9,80006580 <core_bench_state+0xcd0>
8000655c:	2ce3000a 	sltiu	v1,a3,10
80006560:	14600087 	bnez	v1,80006780 <core_bench_state+0xed0>
80006564:	01202025 	move	a0,t1
80006568:	27ff0001 	addiu	ra,ra,1
8000656c:	240b0001 	li	t3,1
80006570:	24070001 	li	a3,1
80006574:	1000fef6 	b	80006150 <core_bench_state+0x8a0>
80006578:	24030001 	li	v1,1
8000657c:	00000000 	nop
80006580:	27ff0001 	addiu	ra,ra,1
80006584:	24030003 	li	v1,3
80006588:	24070001 	li	a3,1
8000658c:	10400098 	beqz	v0,800067f0 <core_bench_state+0xf40>
80006590:	240b0001 	li	t3,1
80006594:	2406002c 	li	a2,44
80006598:	104600c1 	beq	v0,a2,800068a0 <core_bench_state+0xff0>
8000659c:	25240001 	addiu	a0,t1,1
800065a0:	240d002b 	li	t5,43
800065a4:	91590002 	lbu	t9,2(t2)
800065a8:	104d0009 	beq	v0,t5,800065d0 <core_bench_state+0xd20>
800065ac:	27180001 	addiu	t8,t8,1
800065b0:	240a002d 	li	t2,45
800065b4:	24030001 	li	v1,1
800065b8:	01603825 	move	a3,t3
800065bc:	104a0004 	beq	v0,t2,800065d0 <core_bench_state+0xd20>
800065c0:	240d0001 	li	t5,1
800065c4:	1000fee2 	b	80006150 <core_bench_state+0x8a0>
800065c8:	03201025 	move	v0,t9
800065cc:	00000000 	nop
800065d0:	24030006 	li	v1,6
800065d4:	24070001 	li	a3,1
800065d8:	240b0001 	li	t3,1
800065dc:	240d0001 	li	t5,1
800065e0:	1320fedb 	beqz	t9,80006150 <core_bench_state+0x8a0>
800065e4:	00001025 	move	v0,zero
800065e8:	2417002c 	li	s7,44
800065ec:	133700a8 	beq	t9,s7,80006890 <core_bench_state+0xfe0>
800065f0:	25240002 	addiu	a0,t1,2
800065f4:	272cffd0 	addiu	t4,t9,-48
800065f8:	2d9e000a 	sltiu	s8,t4,10
800065fc:	91220002 	lbu	v0,2(t1)
80006600:	25080001 	addiu	t0,t0,1
80006604:	24030001 	li	v1,1
80006608:	13c0fed1 	beqz	s8,80006150 <core_bench_state+0x8a0>
8000660c:	240c0001 	li	t4,1
80006610:	24030007 	li	v1,7
80006614:	01803825 	move	a3,t4
80006618:	01805825 	move	t3,t4
8000661c:	1040fecc 	beqz	v0,80006150 <core_bench_state+0x8a0>
80006620:	01806825 	move	t5,t4
80006624:	105700aa 	beq	v0,s7,800068d0 <core_bench_state+0x1020>
80006628:	25240003 	addiu	a0,t1,3
8000662c:	00403025 	move	a2,v0
80006630:	91220003 	lbu	v0,3(t1)
80006634:	2419002c 	li	t9,44
80006638:	24cbffd0 	addiu	t3,a2,-48
8000663c:	316300ff 	andi	v1,t3,0xff
80006640:	2c69000a 	sltiu	t1,v1,10
80006644:	1520000a 	bnez	t1,80006670 <core_bench_state+0xdc0>
80006648:	240d0001 	li	t5,1
8000664c:	26310001 	addiu	s1,s1,1
80006650:	240c0001 	li	t4,1
80006654:	240b0001 	li	t3,1
80006658:	24070001 	li	a3,1
8000665c:	24140001 	li	s4,1
80006660:	1000febb 	b	80006150 <core_bench_state+0x8a0>
80006664:	24030001 	li	v1,1
	...
80006670:	24030007 	li	v1,7
80006674:	24070001 	li	a3,1
80006678:	240b0001 	li	t3,1
8000667c:	1040feb4 	beqz	v0,80006150 <core_bench_state+0x8a0>
80006680:	240c0001 	li	t4,1
80006684:	908a0001 	lbu	t2,1(a0)
80006688:	00403025 	move	a2,v0
8000668c:	24840001 	addiu	a0,a0,1
80006690:	14d9ffe9 	bne	a2,t9,80006638 <core_bench_state+0xd88>
80006694:	01401025 	move	v0,t2
80006698:	1000fead 	b	80006150 <core_bench_state+0x8a0>
8000669c:	00000000 	nop
800066a0:	24030004 	li	v1,4
800066a4:	10c00056 	beqz	a2,80006800 <core_bench_state+0xf50>
800066a8:	24070001 	li	a3,1
800066ac:	915e0001 	lbu	s8,1(t2)
800066b0:	25570001 	addiu	s7,t2,1
800066b4:	00c01025 	move	v0,a2
800066b8:	10d900ad 	beq	a2,t9,80006970 <core_bench_state+0x10c0>
800066bc:	01402025 	move	a0,t2
800066c0:	02e05025 	move	t2,s7
800066c4:	1000ff89 	b	800064ec <core_bench_state+0xc3c>
800066c8:	03c03025 	move	a2,s8
800066cc:	00000000 	nop
800066d0:	24030002 	li	v1,2
	...
800066e0:	1320003f 	beqz	t9,800067e0 <core_bench_state+0xf30>
800066e4:	24070001 	li	a3,1
800066e8:	240a002c 	li	t2,44
800066ec:	132a00ab 	beq	t9,t2,8000699c <core_bench_state+0x10ec>
800066f0:	26fe0001 	addiu	s8,s7,1
800066f4:	2733ffd0 	addiu	s3,t9,-48
800066f8:	326900ff 	andi	t1,s3,0xff
800066fc:	2d26000a 	sltiu	a2,t1,10
80006700:	90820002 	lbu	v0,2(a0)
80006704:	25ef0001 	addiu	t7,t7,1
80006708:	10c0000d 	beqz	a2,80006740 <core_bench_state+0xe90>
8000670c:	03c02025 	move	a0,s8
80006710:	24030004 	li	v1,4
80006714:	24070001 	li	a3,1
80006718:	1040fe8d 	beqz	v0,80006150 <core_bench_state+0x8a0>
8000671c:	24130001 	li	s3,1
80006720:	241e002c 	li	s8,44
80006724:	105e0076 	beq	v0,s8,80006900 <core_bench_state+0x1050>
80006728:	248a0001 	addiu	t2,a0,1
8000672c:	92e60002 	lbu	a2,2(s7)
80006730:	1000ff6d 	b	800064e8 <core_bench_state+0xc38>
80006734:	2409002e 	li	t1,46
	...
80006740:	240a002e 	li	t2,46
80006744:	24030001 	li	v1,1
80006748:	24070001 	li	a3,1
8000674c:	172afe80 	bne	t9,t2,80006150 <core_bench_state+0x8a0>
80006750:	24130001 	li	s3,1
80006754:	1040fe7e 	beqz	v0,80006150 <core_bench_state+0x8a0>
80006758:	24030005 	li	v1,5
8000675c:	2419002c 	li	t9,44
80006760:	10590096 	beq	v0,t9,800069bc <core_bench_state+0x110c>
80006764:	24890001 	addiu	t1,a0,1
80006768:	00403025 	move	a2,v0
8000676c:	92e20002 	lbu	v0,2(s7)
80006770:	1000ff74 	b	80006544 <core_bench_state+0xc94>
80006774:	00805025 	move	t2,a0
	...
80006780:	24030005 	li	v1,5
80006784:	1040001a 	beqz	v0,800067f0 <core_bench_state+0xf40>
80006788:	24070001 	li	a3,1
8000678c:	913e0001 	lbu	s8,1(t1)
80006790:	25240001 	addiu	a0,t1,1
80006794:	00403025 	move	a2,v0
80006798:	10570086 	beq	v0,s7,800069b4 <core_bench_state+0x1104>
8000679c:	01205025 	move	t2,t1
800067a0:	00804825 	move	t1,a0
800067a4:	1000ff69 	b	8000654c <core_bench_state+0xc9c>
800067a8:	03c01025 	move	v0,s8
800067ac:	00000000 	nop
800067b0:	24030005 	li	v1,5
800067b4:	1320000a 	beqz	t9,800067e0 <core_bench_state+0xf30>
800067b8:	24070001 	li	a3,1
800067bc:	2402002c 	li	v0,44
800067c0:	13220093 	beq	t9,v0,80006a10 <core_bench_state+0x1160>
800067c4:	26e90001 	addiu	t1,s7,1
800067c8:	90820002 	lbu	v0,2(a0)
800067cc:	02e05025 	move	t2,s7
800067d0:	1000ff5c 	b	80006544 <core_bench_state+0xc94>
800067d4:	03203025 	move	a2,t9
	...
800067e0:	00001025 	move	v0,zero
800067e4:	1000fe5a 	b	80006150 <core_bench_state+0x8a0>
800067e8:	02e02025 	move	a0,s7
800067ec:	00000000 	nop
800067f0:	1000fe57 	b	80006150 <core_bench_state+0x8a0>
800067f4:	01202025 	move	a0,t1
	...
80006800:	00001025 	move	v0,zero
80006804:	1000fe52 	b	80006150 <core_bench_state+0x8a0>
80006808:	01402025 	move	a0,t2
8000680c:	00000000 	nop
80006810:	8fb10094 	lw	s1,148(sp)
80006814:	2408002c 	li	t0,44
80006818:	00403825 	move	a3,v0
8000681c:	90ae0000 	lbu	t6,0(a1)
80006820:	00000000 	nop
80006824:	11c80002 	beq	t6,t0,80006830 <core_bench_state+0xf80>
80006828:	01d17826 	xor	t7,t6,s1
8000682c:	a0af0000 	sb	t7,0(a1)
80006830:	00a72821 	addu	a1,a1,a3
80006834:	00b2802b 	sltu	s0,a1,s2
80006838:	1600fff8 	bnez	s0,8000681c <core_bench_state+0xf6c>
8000683c:	00000000 	nop
80006840:	1000ff04 	b	80006454 <core_bench_state+0xba4>
80006844:	00000000 	nop
	...
80006850:	8fb80090 	lw	t8,144(sp)
80006854:	00a06825 	move	t5,a1
80006858:	2413002c 	li	s3,44
8000685c:	01e04025 	move	t0,t7
80006860:	91a30000 	lbu	v1,0(t5)
80006864:	00000000 	nop
80006868:	10730002 	beq	v1,s3,80006874 <core_bench_state+0xfc4>
8000686c:	00782026 	xor	a0,v1,t8
80006870:	a1a40000 	sb	a0,0(t5)
80006874:	01a86821 	addu	t5,t5,t0
80006878:	01b2f82b 	sltu	ra,t5,s2
8000687c:	17e0fff8 	bnez	ra,80006860 <core_bench_state+0xfb0>
80006880:	00000000 	nop
80006884:	1000fe09 	b	800060ac <core_bench_state+0x7fc>
80006888:	00000000 	nop
8000688c:	00000000 	nop
80006890:	91220002 	lbu	v0,2(t1)
80006894:	00e06825 	move	t5,a3
80006898:	1000fe2d 	b	80006150 <core_bench_state+0x8a0>
8000689c:	00e05825 	move	t3,a3
800068a0:	91420002 	lbu	v0,2(t2)
800068a4:	1000fe2a 	b	80006150 <core_bench_state+0x8a0>
800068a8:	01603825 	move	a3,t3
800068ac:	00000000 	nop
800068b0:	91c30002 	lbu	v1,2(t6)
800068b4:	1000fc55 	b	80005a0c <core_bench_state+0x15c>
800068b8:	01805025 	move	t2,t4
800068bc:	00000000 	nop
800068c0:	91630002 	lbu	v1,2(t3)
800068c4:	01407825 	move	t7,t2
800068c8:	1000fc50 	b	80005a0c <core_bench_state+0x15c>
800068cc:	01406025 	move	t4,t2
800068d0:	91220003 	lbu	v0,3(t1)
800068d4:	01806825 	move	t5,t4
800068d8:	01805825 	move	t3,t4
800068dc:	1000fe1c 	b	80006150 <core_bench_state+0x8a0>
800068e0:	01803825 	move	a3,t4
	...
800068f0:	90820002 	lbu	v0,2(a0)
800068f4:	1000fe16 	b	80006150 <core_bench_state+0x8a0>
800068f8:	01402025 	move	a0,t2
800068fc:	00000000 	nop
80006900:	92e20002 	lbu	v0,2(s7)
80006904:	01402025 	move	a0,t2
80006908:	1000fe11 	b	80006150 <core_bench_state+0x8a0>
8000690c:	00e09825 	move	s3,a3
80006910:	92c30002 	lbu	v1,2(s6)
80006914:	01c03825 	move	a3,t6
80006918:	1000fc3c 	b	80005a0c <core_bench_state+0x15c>
8000691c:	0140a025 	move	s4,t2
80006920:	91630003 	lbu	v1,3(t3)
80006924:	01a07825 	move	t7,t5
80006928:	01a06025 	move	t4,t5
8000692c:	1000fc37 	b	80005a0c <core_bench_state+0x15c>
80006930:	01a05025 	move	t2,t5
	...
80006940:	90e30002 	lbu	v1,2(a3)
80006944:	1000fc31 	b	80005a0c <core_bench_state+0x15c>
80006948:	01c03825 	move	a3,t6
8000694c:	00000000 	nop
80006950:	90e30002 	lbu	v1,2(a3)
80006954:	02e05025 	move	t2,s7
80006958:	1000fc2c 	b	80005a0c <core_bench_state+0x15c>
8000695c:	01603825 	move	a3,t3
80006960:	90820002 	lbu	v0,2(a0)
80006964:	02a03825 	move	a3,s5
80006968:	1000fdf9 	b	80006150 <core_bench_state+0x8a0>
8000696c:	01202025 	move	a0,t1
80006970:	03c01025 	move	v0,s8
80006974:	1000fdf6 	b	80006150 <core_bench_state+0x8a0>
80006978:	02e02025 	move	a0,s7
8000697c:	00000000 	nop
80006980:	00c01825 	move	v1,a2
80006984:	02c03825 	move	a3,s6
80006988:	1000fc20 	b	80005a0c <core_bench_state+0x15c>
8000698c:	24060004 	li	a2,4
80006990:	90e30002 	lbu	v1,2(a3)
80006994:	1000fc1d 	b	80005a0c <core_bench_state+0x15c>
80006998:	01203825 	move	a3,t1
8000699c:	90820002 	lbu	v0,2(a0)
800069a0:	1000fdeb 	b	80006150 <core_bench_state+0x8a0>
800069a4:	03c02025 	move	a0,s8
800069a8:	00c01825 	move	v1,a2
800069ac:	1000fc17 	b	80005a0c <core_bench_state+0x15c>
800069b0:	24060005 	li	a2,5
800069b4:	1000fde6 	b	80006150 <core_bench_state+0x8a0>
800069b8:	03c01025 	move	v0,s8
800069bc:	92e20002 	lbu	v0,2(s7)
800069c0:	01202025 	move	a0,t1
800069c4:	1000fde2 	b	80006150 <core_bench_state+0x8a0>
800069c8:	00e09825 	move	s3,a3
800069cc:	92c30002 	lbu	v1,2(s6)
800069d0:	01603825 	move	a3,t3
800069d4:	1000fc0d 	b	80005a0c <core_bench_state+0x15c>
800069d8:	0140a025 	move	s4,t2
800069dc:	02601025 	move	v0,s3
800069e0:	0000a025 	move	s4,zero
800069e4:	00006025 	move	t4,zero
800069e8:	00006825 	move	t5,zero
800069ec:	00005825 	move	t3,zero
800069f0:	0000a825 	move	s5,zero
800069f4:	00009825 	move	s3,zero
800069f8:	00003825 	move	a3,zero
800069fc:	1000fdd4 	b	80006150 <core_bench_state+0x8a0>
80006a00:	00001825 	move	v1,zero
80006a04:	90e30002 	lbu	v1,2(a3)
80006a08:	1000fc00 	b	80005a0c <core_bench_state+0x15c>
80006a0c:	01603825 	move	a3,t3
80006a10:	90820002 	lbu	v0,2(a0)
80006a14:	1000fdce 	b	80006150 <core_bench_state+0x8a0>
80006a18:	01202025 	move	a0,t1
80006a1c:	00000000 	nop

80006a20 <core_init_state>:
core_init_state():
80006a20:	2487ffff 	addiu	a3,a0,-1
80006a24:	2ce20002 	sltiu	v0,a3,2
80006a28:	144000c9 	bnez	v0,80006d50 <core_init_state+0x330>
80006a2c:	3c0c8001 	lui	t4,0x8001
80006a30:	27bdfff8 	addiu	sp,sp,-8
80006a34:	3c188001 	lui	t8,0x8001
80006a38:	afb10004 	sw	s1,4(sp)
80006a3c:	afb00000 	sw	s0,0(sp)
80006a40:	3c118001 	lui	s1,0x8001
80006a44:	24b00001 	addiu	s0,a1,1
80006a48:	3c198001 	lui	t9,0x8001
80006a4c:	258ea7a0 	addiu	t6,t4,-22624
80006a50:	3205ffff 	andi	a1,s0,0xffff
80006a54:	00001825 	move	v1,zero
80006a58:	24080007 	li	t0,7
80006a5c:	262fa790 	addiu	t7,s1,-22640
80006a60:	240b0008 	li	t3,8
80006a64:	270da7b0 	addiu	t5,t8,-22608
80006a68:	272ca7c0 	addiu	t4,t9,-22592
80006a6c:	240a0004 	li	t2,4
80006a70:	1000002f 	b	80006b30 <core_init_state+0x110>
80006a74:	2409002c 	li	t1,44
	...
80006a80:	2e190005 	sltiu	t9,s0,5
80006a84:	132000aa 	beqz	t9,80006d30 <core_init_state+0x310>
80006a88:	00000000 	nop
80006a8c:	2610fffd 	addiu	s0,s0,-3
80006a90:	2e190002 	sltiu	t9,s0,2
80006a94:	1320009e 	beqz	t9,80006d10 <core_init_state+0x2f0>
80006a98:	00111080 	sll	v0,s1,0x2
80006a9c:	004dc021 	addu	t8,v0,t5
80006aa0:	8f180000 	lw	t8,0(t8)
80006aa4:	24020009 	li	v0,9
80006aa8:	24100008 	li	s0,8
80006aac:	0062c821 	addu	t9,v1,v0
80006ab0:	0327102b 	sltu	v0,t9,a3
80006ab4:	1040002a 	beqz	v0,80006b60 <core_init_state+0x140>
80006ab8:	00000000 	nop
80006abc:	93110000 	lbu	s1,0(t8)
80006ac0:	00c31021 	addu	v0,a2,v1
80006ac4:	a0510000 	sb	s1,0(v0)
80006ac8:	93030001 	lbu	v1,1(t8)
80006acc:	00000000 	nop
80006ad0:	a0430001 	sb	v1,1(v0)
80006ad4:	93110002 	lbu	s1,2(t8)
80006ad8:	00000000 	nop
80006adc:	a0510002 	sb	s1,2(v0)
80006ae0:	93030003 	lbu	v1,3(t8)
80006ae4:	120a000d 	beq	s0,t2,80006b1c <core_init_state+0xfc>
80006ae8:	a0430003 	sb	v1,3(v0)
80006aec:	93110004 	lbu	s1,4(t8)
80006af0:	00000000 	nop
80006af4:	a0510004 	sb	s1,4(v0)
80006af8:	93030005 	lbu	v1,5(t8)
80006afc:	00000000 	nop
80006b00:	a0430005 	sb	v1,5(v0)
80006b04:	93110006 	lbu	s1,6(t8)
80006b08:	160b0004 	bne	s0,t3,80006b1c <core_init_state+0xfc>
80006b0c:	a0510006 	sb	s1,6(v0)
80006b10:	93180007 	lbu	t8,7(t8)
80006b14:	00000000 	nop
80006b18:	a0580007 	sb	t8,7(v0)
80006b1c:	00508021 	addu	s0,v0,s0
80006b20:	24a50001 	addiu	a1,a1,1
80006b24:	a2090000 	sb	t1,0(s0)
80006b28:	30a5ffff 	andi	a1,a1,0xffff
80006b2c:	03201825 	move	v1,t9
80006b30:	000510c2 	srl	v0,a1,0x3
80006b34:	30b00007 	andi	s0,a1,0x7
80006b38:	1608ffd1 	bne	s0,t0,80006a80 <core_init_state+0x60>
80006b3c:	30510003 	andi	s1,v0,0x3
80006b40:	0011c080 	sll	t8,s1,0x2
80006b44:	030fc821 	addu	t9,t8,t7
80006b48:	24020009 	li	v0,9
80006b4c:	8f380000 	lw	t8,0(t9)
80006b50:	0062c821 	addu	t9,v1,v0
80006b54:	0327102b 	sltu	v0,t9,a3
80006b58:	1440ffd8 	bnez	v0,80006abc <core_init_state+0x9c>
80006b5c:	24100008 	li	s0,8
80006b60:	0064402b 	sltu	t0,v1,a0
80006b64:	11000066 	beqz	t0,80006d00 <core_init_state+0x2e0>
80006b68:	00e35823 	subu	t3,a3,v1
80006b6c:	00c34821 	addu	t1,a2,v1
80006b70:	00096823 	negu	t5,t1
80006b74:	2d6e0006 	sltiu	t6,t3,6
80006b78:	00837823 	subu	t7,a0,v1
80006b7c:	15c00046 	bnez	t6,80006c98 <core_init_state+0x278>
80006b80:	31aa0003 	andi	t2,t5,0x3
80006b84:	11400070 	beqz	t2,80006d48 <core_init_state+0x328>
80006b88:	24070001 	li	a3,1
80006b8c:	a1200000 	sb	zero,0(t1)
80006b90:	11470009 	beq	t2,a3,80006bb8 <core_init_state+0x198>
80006b94:	24690001 	addiu	t1,v1,1
80006b98:	00c96021 	addu	t4,a2,t1
80006b9c:	24050003 	li	a1,3
80006ba0:	a1800000 	sb	zero,0(t4)
80006ba4:	15450004 	bne	t2,a1,80006bb8 <core_init_state+0x198>
80006ba8:	24690002 	addiu	t1,v1,2
80006bac:	00c98021 	addu	s0,a2,t1
80006bb0:	a2000000 	sb	zero,0(s0)
80006bb4:	24690003 	addiu	t1,v1,3
80006bb8:	01ea8823 	subu	s1,t7,t2
80006bbc:	0011c082 	srl	t8,s1,0x2
80006bc0:	0018c880 	sll	t9,t8,0x2
80006bc4:	2722fffc 	addiu	v0,t9,-4
80006bc8:	00024082 	srl	t0,v0,0x2
80006bcc:	01435821 	addu	t3,t2,v1
80006bd0:	25030001 	addiu	v1,t0,1
80006bd4:	00cbc021 	addu	t8,a2,t3
80006bd8:	306d0007 	andi	t5,v1,0x7
80006bdc:	11a0001e 	beqz	t5,80006c58 <core_init_state+0x238>
80006be0:	03387021 	addu	t6,t9,t8
80006be4:	240f0001 	li	t7,1
80006be8:	11af0017 	beq	t5,t7,80006c48 <core_init_state+0x228>
80006bec:	240a0002 	li	t2,2
80006bf0:	11aa0013 	beq	t5,t2,80006c40 <core_init_state+0x220>
80006bf4:	24070003 	li	a3,3
80006bf8:	11a7000f 	beq	t5,a3,80006c38 <core_init_state+0x218>
80006bfc:	240c0004 	li	t4,4
80006c00:	11ac000b 	beq	t5,t4,80006c30 <core_init_state+0x210>
80006c04:	24050005 	li	a1,5
80006c08:	11a50007 	beq	t5,a1,80006c28 <core_init_state+0x208>
80006c0c:	24100006 	li	s0,6
80006c10:	11b00003 	beq	t5,s0,80006c20 <core_init_state+0x200>
80006c14:	00000000 	nop
80006c18:	af000000 	sw	zero,0(t8)
80006c1c:	27180004 	addiu	t8,t8,4
80006c20:	af000000 	sw	zero,0(t8)
80006c24:	27180004 	addiu	t8,t8,4
80006c28:	af000000 	sw	zero,0(t8)
80006c2c:	27180004 	addiu	t8,t8,4
80006c30:	af000000 	sw	zero,0(t8)
80006c34:	27180004 	addiu	t8,t8,4
80006c38:	af000000 	sw	zero,0(t8)
80006c3c:	27180004 	addiu	t8,t8,4
80006c40:	af000000 	sw	zero,0(t8)
80006c44:	27180004 	addiu	t8,t8,4
80006c48:	af000000 	sw	zero,0(t8)
80006c4c:	27180004 	addiu	t8,t8,4
80006c50:	130e000c 	beq	t8,t6,80006c84 <core_init_state+0x264>
80006c54:	00000000 	nop
80006c58:	af000000 	sw	zero,0(t8)
80006c5c:	af000004 	sw	zero,4(t8)
80006c60:	af000008 	sw	zero,8(t8)
80006c64:	af00000c 	sw	zero,12(t8)
80006c68:	af000010 	sw	zero,16(t8)
80006c6c:	af000014 	sw	zero,20(t8)
80006c70:	af000018 	sw	zero,24(t8)
80006c74:	af00001c 	sw	zero,28(t8)
80006c78:	27180020 	addiu	t8,t8,32
80006c7c:	170efff6 	bne	t8,t6,80006c58 <core_init_state+0x238>
80006c80:	00000000 	nop
80006c84:	2419fffc 	li	t9,-4
80006c88:	02391024 	and	v0,s1,t9
80006c8c:	1051001c 	beq	v0,s1,80006d00 <core_init_state+0x2e0>
80006c90:	00491821 	addu	v1,v0,t1
80006c94:	00c34821 	addu	t1,a2,v1
80006c98:	24710001 	addiu	s1,v1,1
80006c9c:	0224402b 	sltu	t0,s1,a0
80006ca0:	11000017 	beqz	t0,80006d00 <core_init_state+0x2e0>
80006ca4:	a1200000 	sb	zero,0(t1)
80006ca8:	246b0002 	addiu	t3,v1,2
80006cac:	00d16821 	addu	t5,a2,s1
80006cb0:	0164702b 	sltu	t6,t3,a0
80006cb4:	11c00012 	beqz	t6,80006d00 <core_init_state+0x2e0>
80006cb8:	a1a00000 	sb	zero,0(t5)
80006cbc:	246f0003 	addiu	t7,v1,3
80006cc0:	00cb5021 	addu	t2,a2,t3
80006cc4:	01e4382b 	sltu	a3,t7,a0
80006cc8:	10e0000d 	beqz	a3,80006d00 <core_init_state+0x2e0>
80006ccc:	a1400000 	sb	zero,0(t2)
80006cd0:	246c0004 	addiu	t4,v1,4
80006cd4:	00cf2821 	addu	a1,a2,t7
80006cd8:	0184802b 	sltu	s0,t4,a0
80006cdc:	12000008 	beqz	s0,80006d00 <core_init_state+0x2e0>
80006ce0:	a0a00000 	sb	zero,0(a1)
80006ce4:	24780005 	addiu	t8,v1,5
80006ce8:	00ccc821 	addu	t9,a2,t4
80006cec:	0304202b 	sltu	a0,t8,a0
80006cf0:	10800003 	beqz	a0,80006d00 <core_init_state+0x2e0>
80006cf4:	a3200000 	sb	zero,0(t9)
80006cf8:	00d83021 	addu	a2,a2,t8
80006cfc:	a0c00000 	sb	zero,0(a2)
80006d00:	8fb10004 	lw	s1,4(sp)
80006d04:	8fb00000 	lw	s0,0(sp)
80006d08:	03e00008 	jr	ra
80006d0c:	27bd0008 	addiu	sp,sp,8
80006d10:	004c8821 	addu	s1,v0,t4
80006d14:	8e380000 	lw	t8,0(s1)
80006d18:	24020005 	li	v0,5
80006d1c:	1000ff63 	b	80006aac <core_init_state+0x8c>
80006d20:	24100004 	li	s0,4
	...
80006d30:	00118880 	sll	s1,s1,0x2
80006d34:	022ec021 	addu	t8,s1,t6
80006d38:	8f180000 	lw	t8,0(t8)
80006d3c:	24020009 	li	v0,9
80006d40:	1000ff5a 	b	80006aac <core_init_state+0x8c>
80006d44:	24100008 	li	s0,8
80006d48:	1000ff9b 	b	80006bb8 <core_init_state+0x198>
80006d4c:	00604825 	move	t1,v1
80006d50:	00001825 	move	v1,zero
80006d54:	00c36021 	addu	t4,a2,v1
80006d58:	00e33823 	subu	a3,a3,v1
80006d5c:	000c4823 	negu	t1,t4
80006d60:	2cea0006 	sltiu	t2,a3,6
80006d64:	00834023 	subu	t0,a0,v1
80006d68:	15400045 	bnez	t2,80006e80 <core_init_state+0x460>
80006d6c:	312b0003 	andi	t3,t1,0x3
80006d70:	11600060 	beqz	t3,80006ef4 <core_init_state+0x4d4>
80006d74:	240d0001 	li	t5,1
80006d78:	a1800000 	sb	zero,0(t4)
80006d7c:	116d0009 	beq	t3,t5,80006da4 <core_init_state+0x384>
80006d80:	246c0001 	addiu	t4,v1,1
80006d84:	00cc7021 	addu	t6,a2,t4
80006d88:	24050003 	li	a1,3
80006d8c:	a1c00000 	sb	zero,0(t6)
80006d90:	15650004 	bne	t3,a1,80006da4 <core_init_state+0x384>
80006d94:	246c0002 	addiu	t4,v1,2
80006d98:	00cc7821 	addu	t7,a2,t4
80006d9c:	a1e00000 	sb	zero,0(t7)
80006da0:	246c0003 	addiu	t4,v1,3
80006da4:	010bc023 	subu	t8,t0,t3
80006da8:	0018c882 	srl	t9,t8,0x2
80006dac:	00193880 	sll	a3,t9,0x2
80006db0:	24e2fffc 	addiu	v0,a3,-4
80006db4:	00024882 	srl	t1,v0,0x2
80006db8:	01635021 	addu	t2,t3,v1
80006dbc:	25230001 	addiu	v1,t1,1
80006dc0:	00ca1021 	addu	v0,a2,t2
80006dc4:	30680007 	andi	t0,v1,0x7
80006dc8:	1100001e 	beqz	t0,80006e44 <core_init_state+0x424>
80006dcc:	00e25821 	addu	t3,a3,v0
80006dd0:	240d0001 	li	t5,1
80006dd4:	110d0017 	beq	t0,t5,80006e34 <core_init_state+0x414>
80006dd8:	240e0002 	li	t6,2
80006ddc:	110e0013 	beq	t0,t6,80006e2c <core_init_state+0x40c>
80006de0:	24050003 	li	a1,3
80006de4:	1105000f 	beq	t0,a1,80006e24 <core_init_state+0x404>
80006de8:	240f0004 	li	t7,4
80006dec:	110f000b 	beq	t0,t7,80006e1c <core_init_state+0x3fc>
80006df0:	24190005 	li	t9,5
80006df4:	11190007 	beq	t0,t9,80006e14 <core_init_state+0x3f4>
80006df8:	24070006 	li	a3,6
80006dfc:	11070003 	beq	t0,a3,80006e0c <core_init_state+0x3ec>
80006e00:	00000000 	nop
80006e04:	ac400000 	sw	zero,0(v0)
80006e08:	24420004 	addiu	v0,v0,4
80006e0c:	ac400000 	sw	zero,0(v0)
80006e10:	24420004 	addiu	v0,v0,4
80006e14:	ac400000 	sw	zero,0(v0)
80006e18:	24420004 	addiu	v0,v0,4
80006e1c:	ac400000 	sw	zero,0(v0)
80006e20:	24420004 	addiu	v0,v0,4
80006e24:	ac400000 	sw	zero,0(v0)
80006e28:	24420004 	addiu	v0,v0,4
80006e2c:	ac400000 	sw	zero,0(v0)
80006e30:	24420004 	addiu	v0,v0,4
80006e34:	ac400000 	sw	zero,0(v0)
80006e38:	24420004 	addiu	v0,v0,4
80006e3c:	104b000c 	beq	v0,t3,80006e70 <core_init_state+0x450>
80006e40:	2409fffc 	li	t1,-4
80006e44:	ac400000 	sw	zero,0(v0)
80006e48:	ac400004 	sw	zero,4(v0)
80006e4c:	ac400008 	sw	zero,8(v0)
80006e50:	ac40000c 	sw	zero,12(v0)
80006e54:	ac400010 	sw	zero,16(v0)
80006e58:	ac400014 	sw	zero,20(v0)
80006e5c:	ac400018 	sw	zero,24(v0)
80006e60:	ac40001c 	sw	zero,28(v0)
80006e64:	24420020 	addiu	v0,v0,32
80006e68:	144bfff6 	bne	v0,t3,80006e44 <core_init_state+0x424>
80006e6c:	2409fffc 	li	t1,-4
80006e70:	03095024 	and	t2,t8,t1
80006e74:	1158001d 	beq	t2,t8,80006eec <core_init_state+0x4cc>
80006e78:	014c1821 	addu	v1,t2,t4
80006e7c:	00c36021 	addu	t4,a2,v1
80006e80:	24780001 	addiu	t8,v1,1
80006e84:	0304402b 	sltu	t0,t8,a0
80006e88:	11000018 	beqz	t0,80006eec <core_init_state+0x4cc>
80006e8c:	a1800000 	sb	zero,0(t4)
80006e90:	246b0002 	addiu	t3,v1,2
80006e94:	00d86821 	addu	t5,a2,t8
80006e98:	0164702b 	sltu	t6,t3,a0
80006e9c:	11c00013 	beqz	t6,80006eec <core_init_state+0x4cc>
80006ea0:	a1a00000 	sb	zero,0(t5)
80006ea4:	246f0003 	addiu	t7,v1,3
80006ea8:	00cb2821 	addu	a1,a2,t3
80006eac:	01e4c82b 	sltu	t9,t7,a0
80006eb0:	1320000e 	beqz	t9,80006eec <core_init_state+0x4cc>
80006eb4:	a0a00000 	sb	zero,0(a1)
80006eb8:	24690004 	addiu	t1,v1,4
80006ebc:	00cf1021 	addu	v0,a2,t7
80006ec0:	0124382b 	sltu	a3,t1,a0
80006ec4:	10e00009 	beqz	a3,80006eec <core_init_state+0x4cc>
80006ec8:	a0400000 	sb	zero,0(v0)
80006ecc:	246a0005 	addiu	t2,v1,5
80006ed0:	0144202b 	sltu	a0,t2,a0
80006ed4:	00c91821 	addu	v1,a2,t1
80006ed8:	10800004 	beqz	a0,80006eec <core_init_state+0x4cc>
80006edc:	a0600000 	sb	zero,0(v1)
80006ee0:	00ca3021 	addu	a2,a2,t2
80006ee4:	03e00008 	jr	ra
80006ee8:	a0c00000 	sb	zero,0(a2)
80006eec:	03e00008 	jr	ra
80006ef0:	00000000 	nop
80006ef4:	1000ffab 	b	80006da4 <core_init_state+0x384>
80006ef8:	00606025 	move	t4,v1
80006efc:	00000000 	nop

80006f00 <core_state_transition>:
core_state_transition():
80006f00:	8c820000 	lw	v0,0(a0)
80006f04:	00000000 	nop
80006f08:	90430000 	lbu	v1,0(v0)
80006f0c:	00000000 	nop
80006f10:	106000e1 	beqz	v1,80007298 <core_state_transition+0x398>
80006f14:	240b002c 	li	t3,44
80006f18:	106b00d4 	beq	v1,t3,8000726c <core_state_transition+0x36c>
80006f1c:	24490001 	addiu	t1,v0,1
80006f20:	8ca70000 	lw	a3,0(a1)
80006f24:	2466ffd0 	addiu	a2,v1,-48
80006f28:	2cc8000a 	sltiu	t0,a2,10
80006f2c:	11000034 	beqz	t0,80007000 <core_state_transition+0x100>
80006f30:	24ea0001 	addiu	t2,a3,1
80006f34:	acaa0000 	sw	t2,0(a1)
80006f38:	90430001 	lbu	v1,1(v0)
80006f3c:	00000000 	nop
80006f40:	106000cc 	beqz	v1,80007274 <core_state_transition+0x374>
80006f44:	00000000 	nop
80006f48:	106b0060 	beq	v1,t3,800070cc <core_state_transition+0x1cc>
80006f4c:	24480002 	addiu	t0,v0,2
80006f50:	246effd0 	addiu	t6,v1,-48
80006f54:	240c002e 	li	t4,46
80006f58:	240d002c 	li	t5,44
80006f5c:	106c000c 	beq	v1,t4,80006f90 <core_state_transition+0x90>
80006f60:	2dcf000a 	sltiu	t7,t6,10
80006f64:	11e00036 	beqz	t7,80007040 <core_state_transition+0x140>
80006f68:	250b0001 	addiu	t3,t0,1
80006f6c:	91230001 	lbu	v1,1(t1)
80006f70:	00000000 	nop
80006f74:	106000bf 	beqz	v1,80007274 <core_state_transition+0x374>
80006f78:	01004825 	move	t1,t0
80006f7c:	106d00d3 	beq	v1,t5,800072cc <core_state_transition+0x3cc>
80006f80:	246effd0 	addiu	t6,v1,-48
80006f84:	01604025 	move	t0,t3
80006f88:	146cfff6 	bne	v1,t4,80006f64 <core_state_transition+0x64>
80006f8c:	2dcf000a 	sltiu	t7,t6,10
80006f90:	8ca70010 	lw	a3,16(a1)
80006f94:	00000000 	nop
80006f98:	24e60001 	addiu	a2,a3,1
80006f9c:	aca60010 	sw	a2,16(a1)
80006fa0:	91390001 	lbu	t9,1(t1)
80006fa4:	00000000 	nop
80006fa8:	132000c6 	beqz	t9,800072c4 <core_state_transition+0x3c4>
80006fac:	01004825 	move	t1,t0
80006fb0:	2409002c 	li	t1,44
80006fb4:	132900aa 	beq	t9,t1,80007260 <core_state_transition+0x360>
80006fb8:	25070001 	addiu	a3,t0,1
80006fbc:	240cffdf 	li	t4,-33
80006fc0:	24020045 	li	v0,69
80006fc4:	240d002c 	li	t5,44
80006fc8:	272effd0 	addiu	t6,t9,-48
80006fcc:	032c7824 	and	t7,t9,t4
80006fd0:	11e20043 	beq	t7,v0,800070e0 <core_state_transition+0x1e0>
80006fd4:	2dd8000a 	sltiu	t8,t6,10
80006fd8:	17000085 	bnez	t8,800071f0 <core_state_transition+0x2f0>
80006fdc:	00000000 	nop
80006fe0:	8ca80014 	lw	t0,20(a1)
80006fe4:	00e04825 	move	t1,a3
80006fe8:	250a0001 	addiu	t2,t0,1
80006fec:	acaa0014 	sw	t2,20(a1)
80006ff0:	24020001 	li	v0,1
80006ff4:	03e00008 	jr	ra
80006ff8:	ac890000 	sw	t1,0(a0)
80006ffc:	00000000 	nop
80007000:	240c002b 	li	t4,43
80007004:	106c0016 	beq	v1,t4,80007060 <core_state_transition+0x160>
80007008:	240d002d 	li	t5,45
8000700c:	106d0014 	beq	v1,t5,80007060 <core_state_transition+0x160>
80007010:	240e002e 	li	t6,46
80007014:	106e007e 	beq	v1,t6,80007210 <core_state_transition+0x310>
80007018:	00000000 	nop
8000701c:	8caf0004 	lw	t7,4(a1)
80007020:	acaa0000 	sw	t2,0(a1)
80007024:	25f80001 	addiu	t8,t7,1
80007028:	acb80004 	sw	t8,4(a1)
8000702c:	24020001 	li	v0,1
80007030:	03e00008 	jr	ra
80007034:	ac890000 	sw	t1,0(a0)
	...
80007040:	8cb80010 	lw	t8,16(a1)
80007044:	01004825 	move	t1,t0
80007048:	27190001 	addiu	t9,t8,1
8000704c:	acb90010 	sw	t9,16(a1)
80007050:	24020001 	li	v0,1
80007054:	03e00008 	jr	ra
80007058:	ac890000 	sw	t1,0(a0)
8000705c:	00000000 	nop
80007060:	acaa0000 	sw	t2,0(a1)
80007064:	90590001 	lbu	t9,1(v0)
80007068:	00000000 	nop
8000706c:	1320008d 	beqz	t9,800072a4 <core_state_transition+0x3a4>
80007070:	00000000 	nop
80007074:	132b008b 	beq	t9,t3,800072a4 <core_state_transition+0x3a4>
80007078:	24490002 	addiu	t1,v0,2
8000707c:	8cab0008 	lw	t3,8(a1)
80007080:	2723ffd0 	addiu	v1,t9,-48
80007084:	2c67000a 	sltiu	a3,v1,10
80007088:	14e00009 	bnez	a3,800070b0 <core_state_transition+0x1b0>
8000708c:	25660001 	addiu	a2,t3,1
80007090:	2408002e 	li	t0,46
80007094:	1328006a 	beq	t9,t0,80007240 <core_state_transition+0x340>
80007098:	00000000 	nop
8000709c:	aca60008 	sw	a2,8(a1)
800070a0:	24020001 	li	v0,1
800070a4:	03e00008 	jr	ra
800070a8:	ac890000 	sw	t1,0(a0)
800070ac:	00000000 	nop
800070b0:	aca60008 	sw	a2,8(a1)
800070b4:	90430002 	lbu	v1,2(v0)
800070b8:	00000000 	nop
800070bc:	1060006d 	beqz	v1,80007274 <core_state_transition+0x374>
800070c0:	240a002c 	li	t2,44
800070c4:	146affa2 	bne	v1,t2,80006f50 <core_state_transition+0x50>
800070c8:	25280001 	addiu	t0,t1,1
800070cc:	01004825 	move	t1,t0
800070d0:	1000ffe0 	b	80007054 <core_state_transition+0x154>
800070d4:	24020004 	li	v0,4
	...
800070e0:	8ca30014 	lw	v1,20(a1)
800070e4:	00000000 	nop
800070e8:	246b0001 	addiu	t3,v1,1
800070ec:	acab0014 	sw	t3,20(a1)
800070f0:	91060001 	lbu	a2,1(t0)
800070f4:	00000000 	nop
800070f8:	10c00062 	beqz	a2,80007284 <core_state_transition+0x384>
800070fc:	240c002c 	li	t4,44
80007100:	10cc0061 	beq	a2,t4,80007288 <core_state_transition+0x388>
80007104:	24e90001 	addiu	t1,a3,1
80007108:	2402002b 	li	v0,43
8000710c:	10c2000c 	beq	a2,v0,80007140 <core_state_transition+0x240>
80007110:	240d002d 	li	t5,45
80007114:	10cd000a 	beq	a2,t5,80007140 <core_state_transition+0x240>
80007118:	24020001 	li	v0,1
8000711c:	8cae000c 	lw	t6,12(a1)
80007120:	00000000 	nop
80007124:	25cf0001 	addiu	t7,t6,1
80007128:	acaf000c 	sw	t7,12(a1)
8000712c:	03e00008 	jr	ra
80007130:	ac890000 	sw	t1,0(a0)
	...
80007140:	8cb8000c 	lw	t8,12(a1)
80007144:	00000000 	nop
80007148:	270a0001 	addiu	t2,t8,1
8000714c:	acaa000c 	sw	t2,12(a1)
80007150:	90f90001 	lbu	t9,1(a3)
80007154:	00000000 	nop
80007158:	13200048 	beqz	t9,8000727c <core_state_transition+0x37c>
8000715c:	2408002c 	li	t0,44
80007160:	13280046 	beq	t9,t0,8000727c <core_state_transition+0x37c>
80007164:	24e90002 	addiu	t1,a3,2
80007168:	8ca30018 	lw	v1,24(a1)
8000716c:	272bffd0 	addiu	t3,t9,-48
80007170:	246c0001 	addiu	t4,v1,1
80007174:	2d66000a 	sltiu	a2,t3,10
80007178:	10c00010 	beqz	a2,800071bc <core_state_transition+0x2bc>
8000717c:	acac0018 	sw	t4,24(a1)
80007180:	90f80002 	lbu	t8,2(a3)
80007184:	00000000 	nop
80007188:	1300ffb2 	beqz	t8,80007054 <core_state_transition+0x154>
8000718c:	24020007 	li	v0,7
80007190:	13080046 	beq	t8,t0,800072ac <core_state_transition+0x3ac>
80007194:	24e30003 	addiu	v1,a3,3
80007198:	2407002c 	li	a3,44
8000719c:	2702ffd0 	addiu	v0,t8,-48
800071a0:	2c4d000a 	sltiu	t5,v0,10
800071a4:	15a0000a 	bnez	t5,800071d0 <core_state_transition+0x2d0>
800071a8:	24790001 	addiu	t9,v1,1
800071ac:	8cae0004 	lw	t6,4(a1)
800071b0:	00604825 	move	t1,v1
800071b4:	25cf0001 	addiu	t7,t6,1
800071b8:	acaf0004 	sw	t7,4(a1)
800071bc:	1000ffa5 	b	80007054 <core_state_transition+0x154>
800071c0:	24020001 	li	v0,1
	...
800071d0:	91380001 	lbu	t8,1(t1)
800071d4:	00000000 	nop
800071d8:	1300002d 	beqz	t8,80007290 <core_state_transition+0x390>
800071dc:	00604825 	move	t1,v1
800071e0:	13070035 	beq	t8,a3,800072b8 <core_state_transition+0x3b8>
800071e4:	03201825 	move	v1,t9
800071e8:	1000ffed 	b	800071a0 <core_state_transition+0x2a0>
800071ec:	2702ffd0 	addiu	v0,t8,-48
800071f0:	91190001 	lbu	t9,1(t0)
800071f4:	00000000 	nop
800071f8:	13200019 	beqz	t9,80007260 <core_state_transition+0x360>
800071fc:	24e90001 	addiu	t1,a3,1
80007200:	132d0018 	beq	t9,t5,80007264 <core_state_transition+0x364>
80007204:	00e04025 	move	t0,a3
80007208:	1000ff6f 	b	80006fc8 <core_state_transition+0xc8>
8000720c:	01203825 	move	a3,t1
80007210:	acaa0000 	sw	t2,0(a1)
80007214:	90590001 	lbu	t9,1(v0)
80007218:	00000000 	nop
8000721c:	13200011 	beqz	t9,80007264 <core_state_transition+0x364>
80007220:	00000000 	nop
80007224:	132b000e 	beq	t9,t3,80007260 <core_state_transition+0x360>
80007228:	24470002 	addiu	a3,v0,2
8000722c:	1000ff63 	b	80006fbc <core_state_transition+0xbc>
80007230:	01204025 	move	t0,t1
	...
80007240:	aca60008 	sw	a2,8(a1)
80007244:	90590002 	lbu	t9,2(v0)
80007248:	00000000 	nop
8000724c:	1320ff81 	beqz	t9,80007054 <core_state_transition+0x154>
80007250:	24020005 	li	v0,5
80007254:	2402002c 	li	v0,44
80007258:	1722fff4 	bne	t9,v0,8000722c <core_state_transition+0x32c>
8000725c:	25270001 	addiu	a3,t1,1
80007260:	00e04825 	move	t1,a3
80007264:	1000ff7b 	b	80007054 <core_state_transition+0x154>
80007268:	24020005 	li	v0,5
8000726c:	1000ff79 	b	80007054 <core_state_transition+0x154>
80007270:	00001025 	move	v0,zero
80007274:	1000ff77 	b	80007054 <core_state_transition+0x154>
80007278:	24020004 	li	v0,4
8000727c:	1000ff75 	b	80007054 <core_state_transition+0x154>
80007280:	24020006 	li	v0,6
80007284:	00e04825 	move	t1,a3
80007288:	1000ff72 	b	80007054 <core_state_transition+0x154>
8000728c:	24020003 	li	v0,3
80007290:	1000ff70 	b	80007054 <core_state_transition+0x154>
80007294:	24020007 	li	v0,7
80007298:	00404825 	move	t1,v0
8000729c:	1000ff6d 	b	80007054 <core_state_transition+0x154>
800072a0:	00001025 	move	v0,zero
800072a4:	1000ff6b 	b	80007054 <core_state_transition+0x154>
800072a8:	24020002 	li	v0,2
800072ac:	00604825 	move	t1,v1
800072b0:	1000ff68 	b	80007054 <core_state_transition+0x154>
800072b4:	24020007 	li	v0,7
800072b8:	03204825 	move	t1,t9
800072bc:	1000ff65 	b	80007054 <core_state_transition+0x154>
800072c0:	24020007 	li	v0,7
800072c4:	1000ff63 	b	80007054 <core_state_transition+0x154>
800072c8:	24020005 	li	v0,5
800072cc:	01604825 	move	t1,t3
800072d0:	1000ff60 	b	80007054 <core_state_transition+0x154>
800072d4:	24020004 	li	v0,4
	...

800072e0 <parseval>:
parseval():
800072e0:	80830000 	lb	v1,0(a0)
800072e4:	2402002d 	li	v0,45
800072e8:	10620071 	beq	v1,v0,800074b0 <parseval+0x1d0>
800072ec:	2408ffff 	li	t0,-1
800072f0:	24080001 	li	t0,1
800072f4:	24050030 	li	a1,48
800072f8:	10650065 	beq	v1,a1,80007490 <parseval+0x1b0>
800072fc:	2467ffd0 	addiu	a3,v1,-48
80007300:	30e600ff 	andi	a2,a3,0xff
80007304:	2cc2000a 	sltiu	v0,a2,10
80007308:	1040004c 	beqz	v0,8000743c <parseval+0x15c>
8000730c:	00000000 	nop
80007310:	00001025 	move	v0,zero
80007314:	00025080 	sll	t2,v0,0x2
80007318:	01425821 	addu	t3,t2,v0
8000731c:	80830001 	lb	v1,1(a0)
80007320:	000b6840 	sll	t5,t3,0x1
80007324:	00ed1021 	addu	v0,a3,t5
80007328:	2469ffd0 	addiu	t1,v1,-48
8000732c:	312c00ff 	andi	t4,t1,0xff
80007330:	00027880 	sll	t7,v0,0x2
80007334:	01e2c021 	addu	t8,t7,v0
80007338:	2d8e000a 	sltiu	t6,t4,10
8000733c:	11c0003f 	beqz	t6,8000743c <parseval+0x15c>
80007340:	0018c840 	sll	t9,t8,0x1
80007344:	80830002 	lb	v1,2(a0)
80007348:	01391021 	addu	v0,t1,t9
8000734c:	2467ffd0 	addiu	a3,v1,-48
80007350:	00022880 	sll	a1,v0,0x2
80007354:	30e600ff 	andi	a2,a3,0xff
80007358:	00a25021 	addu	t2,a1,v0
8000735c:	2cc9000a 	sltiu	t1,a2,10
80007360:	11200036 	beqz	t1,8000743c <parseval+0x15c>
80007364:	000a5840 	sll	t3,t2,0x1
80007368:	80830003 	lb	v1,3(a0)
8000736c:	00eb1021 	addu	v0,a3,t3
80007370:	246cffd0 	addiu	t4,v1,-48
80007374:	00026880 	sll	t5,v0,0x2
80007378:	318e00ff 	andi	t6,t4,0xff
8000737c:	01a27821 	addu	t7,t5,v0
80007380:	2dd8000a 	sltiu	t8,t6,10
80007384:	1300002d 	beqz	t8,8000743c <parseval+0x15c>
80007388:	000fc840 	sll	t9,t7,0x1
8000738c:	80830004 	lb	v1,4(a0)
80007390:	01991021 	addu	v0,t4,t9
80007394:	2467ffd0 	addiu	a3,v1,-48
80007398:	00022880 	sll	a1,v0,0x2
8000739c:	30e600ff 	andi	a2,a3,0xff
800073a0:	00a25021 	addu	t2,a1,v0
800073a4:	2cc9000a 	sltiu	t1,a2,10
800073a8:	11200024 	beqz	t1,8000743c <parseval+0x15c>
800073ac:	000a5840 	sll	t3,t2,0x1
800073b0:	80830005 	lb	v1,5(a0)
800073b4:	00eb1021 	addu	v0,a3,t3
800073b8:	246cffd0 	addiu	t4,v1,-48
800073bc:	00026880 	sll	t5,v0,0x2
800073c0:	318e00ff 	andi	t6,t4,0xff
800073c4:	01a27821 	addu	t7,t5,v0
800073c8:	2dd8000a 	sltiu	t8,t6,10
800073cc:	1300001b 	beqz	t8,8000743c <parseval+0x15c>
800073d0:	000fc840 	sll	t9,t7,0x1
800073d4:	80830006 	lb	v1,6(a0)
800073d8:	01991021 	addu	v0,t4,t9
800073dc:	2467ffd0 	addiu	a3,v1,-48
800073e0:	00022880 	sll	a1,v0,0x2
800073e4:	30e600ff 	andi	a2,a3,0xff
800073e8:	00a25021 	addu	t2,a1,v0
800073ec:	2cc9000a 	sltiu	t1,a2,10
800073f0:	11200012 	beqz	t1,8000743c <parseval+0x15c>
800073f4:	000a5840 	sll	t3,t2,0x1
800073f8:	80830007 	lb	v1,7(a0)
800073fc:	00eb1021 	addu	v0,a3,t3
80007400:	246cffd0 	addiu	t4,v1,-48
80007404:	00026880 	sll	t5,v0,0x2
80007408:	318e00ff 	andi	t6,t4,0xff
8000740c:	01a27821 	addu	t7,t5,v0
80007410:	2dd8000a 	sltiu	t8,t6,10
80007414:	24840008 	addiu	a0,a0,8
80007418:	13000008 	beqz	t8,8000743c <parseval+0x15c>
8000741c:	000fc840 	sll	t9,t7,0x1
80007420:	80830000 	lb	v1,0(a0)
80007424:	00000000 	nop
80007428:	2467ffd0 	addiu	a3,v1,-48
8000742c:	30e500ff 	andi	a1,a3,0xff
80007430:	2ca6000a 	sltiu	a2,a1,10
80007434:	14c0ffb7 	bnez	a2,80007314 <parseval+0x34>
80007438:	01991021 	addu	v0,t4,t9
8000743c:	2404004b 	li	a0,75
80007440:	1064000b 	beq	v1,a0,80007470 <parseval+0x190>
80007444:	2419004d 	li	t9,77
80007448:	14790003 	bne	v1,t9,80007458 <parseval+0x178>
8000744c:	00480018 	mult	v0,t0
80007450:	00021500 	sll	v0,v0,0x14
80007454:	00480018 	mult	v0,t0
80007458:	00001012 	mflo	v0
8000745c:	03e00008 	jr	ra
80007460:	00000000 	nop
	...
80007470:	00021280 	sll	v0,v0,0xa
80007474:	00480018 	mult	v0,t0
80007478:	00001012 	mflo	v0
8000747c:	03e00008 	jr	ra
80007480:	00000000 	nop
	...
80007490:	80830001 	lb	v1,1(a0)
80007494:	24070078 	li	a3,120
80007498:	10670009 	beq	v1,a3,800074c0 <parseval+0x1e0>
8000749c:	00003825 	move	a3,zero
800074a0:	1000ff9c 	b	80007314 <parseval+0x34>
800074a4:	00001025 	move	v0,zero
	...
800074b0:	80830001 	lb	v1,1(a0)
800074b4:	1000ff8f 	b	800072f4 <parseval+0x14>
800074b8:	24840001 	addiu	a0,a0,1
800074bc:	00000000 	nop
800074c0:	24870002 	addiu	a3,a0,2
800074c4:	00001025 	move	v0,zero
800074c8:	80e30000 	lb	v1,0(a3)
800074cc:	00024900 	sll	t1,v0,0x4
800074d0:	306a00ff 	andi	t2,v1,0xff
800074d4:	254bffd0 	addiu	t3,t2,-48
800074d8:	246cffd0 	addiu	t4,v1,-48
800074dc:	254dff9f 	addiu	t5,t2,-97
800074e0:	2d6e000a 	sltiu	t6,t3,10
800074e4:	298f000a 	slti	t7,t4,10
800074e8:	15c00003 	bnez	t6,800074f8 <parseval+0x218>
800074ec:	2db80006 	sltiu	t8,t5,6
800074f0:	1300ffd3 	beqz	t8,80007440 <parseval+0x160>
800074f4:	2404004b 	li	a0,75
800074f8:	15e00002 	bnez	t7,80007504 <parseval+0x224>
800074fc:	00000000 	nop
80007500:	246cffa9 	addiu	t4,v1,-87
80007504:	01891021 	addu	v0,t4,t1
80007508:	1000ffef 	b	800074c8 <parseval+0x1e8>
8000750c:	24e70001 	addiu	a3,a3,1

80007510 <get_seed_args>:
get_seed_args():
80007510:	0085282a 	slt	a1,a0,a1
80007514:	10a00064 	beqz	a1,800076a8 <get_seed_args+0x198>
80007518:	00001025 	move	v0,zero
8000751c:	00042080 	sll	a0,a0,0x2
80007520:	00c41021 	addu	v0,a2,a0
80007524:	8c430000 	lw	v1,0(v0)
80007528:	2406002d 	li	a2,45
8000752c:	80650000 	lb	a1,0(v1)
80007530:	00000000 	nop
80007534:	10a6005e 	beq	a1,a2,800076b0 <get_seed_args+0x1a0>
80007538:	2408ffff 	li	t0,-1
8000753c:	24080001 	li	t0,1
80007540:	24070030 	li	a3,48
80007544:	10a70062 	beq	a1,a3,800076d0 <get_seed_args+0x1c0>
80007548:	24aaffd0 	addiu	t2,a1,-48
8000754c:	314900ff 	andi	t1,t2,0xff
80007550:	2d22000a 	sltiu	v0,t1,10
80007554:	1040004c 	beqz	v0,80007688 <get_seed_args+0x178>
80007558:	00000000 	nop
8000755c:	00001025 	move	v0,zero
80007560:	00026080 	sll	t4,v0,0x2
80007564:	01827021 	addu	t6,t4,v0
80007568:	80650001 	lb	a1,1(v1)
8000756c:	000ec040 	sll	t8,t6,0x1
80007570:	01581021 	addu	v0,t2,t8
80007574:	24adffd0 	addiu	t5,a1,-48
80007578:	31af00ff 	andi	t7,t5,0xff
8000757c:	00022080 	sll	a0,v0,0x2
80007580:	00823021 	addu	a2,a0,v0
80007584:	2df9000a 	sltiu	t9,t7,10
80007588:	1320003f 	beqz	t9,80007688 <get_seed_args+0x178>
8000758c:	00063840 	sll	a3,a2,0x1
80007590:	80650002 	lb	a1,2(v1)
80007594:	01a71021 	addu	v0,t5,a3
80007598:	24a9ffd0 	addiu	t1,a1,-48
8000759c:	00025080 	sll	t2,v0,0x2
800075a0:	312b00ff 	andi	t3,t1,0xff
800075a4:	01426021 	addu	t4,t2,v0
800075a8:	2d6d000a 	sltiu	t5,t3,10
800075ac:	11a00036 	beqz	t5,80007688 <get_seed_args+0x178>
800075b0:	000c7040 	sll	t6,t4,0x1
800075b4:	80650003 	lb	a1,3(v1)
800075b8:	012e1021 	addu	v0,t1,t6
800075bc:	24afffd0 	addiu	t7,a1,-48
800075c0:	0002c080 	sll	t8,v0,0x2
800075c4:	31f900ff 	andi	t9,t7,0xff
800075c8:	03022021 	addu	a0,t8,v0
800075cc:	2f26000a 	sltiu	a2,t9,10
800075d0:	10c0002d 	beqz	a2,80007688 <get_seed_args+0x178>
800075d4:	00043840 	sll	a3,a0,0x1
800075d8:	80650004 	lb	a1,4(v1)
800075dc:	01e71021 	addu	v0,t7,a3
800075e0:	24a9ffd0 	addiu	t1,a1,-48
800075e4:	00025080 	sll	t2,v0,0x2
800075e8:	312b00ff 	andi	t3,t1,0xff
800075ec:	01426021 	addu	t4,t2,v0
800075f0:	2d6d000a 	sltiu	t5,t3,10
800075f4:	11a00024 	beqz	t5,80007688 <get_seed_args+0x178>
800075f8:	000c7040 	sll	t6,t4,0x1
800075fc:	80650005 	lb	a1,5(v1)
80007600:	012e1021 	addu	v0,t1,t6
80007604:	24afffd0 	addiu	t7,a1,-48
80007608:	0002c080 	sll	t8,v0,0x2
8000760c:	31f900ff 	andi	t9,t7,0xff
80007610:	03022021 	addu	a0,t8,v0
80007614:	2f26000a 	sltiu	a2,t9,10
80007618:	10c0001b 	beqz	a2,80007688 <get_seed_args+0x178>
8000761c:	00043840 	sll	a3,a0,0x1
80007620:	80650006 	lb	a1,6(v1)
80007624:	01e71021 	addu	v0,t7,a3
80007628:	24a9ffd0 	addiu	t1,a1,-48
8000762c:	00025080 	sll	t2,v0,0x2
80007630:	312b00ff 	andi	t3,t1,0xff
80007634:	01426021 	addu	t4,t2,v0
80007638:	2d6d000a 	sltiu	t5,t3,10
8000763c:	11a00012 	beqz	t5,80007688 <get_seed_args+0x178>
80007640:	000c7040 	sll	t6,t4,0x1
80007644:	80650007 	lb	a1,7(v1)
80007648:	012e1021 	addu	v0,t1,t6
8000764c:	24afffd0 	addiu	t7,a1,-48
80007650:	0002c080 	sll	t8,v0,0x2
80007654:	31f900ff 	andi	t9,t7,0xff
80007658:	03022021 	addu	a0,t8,v0
8000765c:	2f26000a 	sltiu	a2,t9,10
80007660:	24630008 	addiu	v1,v1,8
80007664:	10c00008 	beqz	a2,80007688 <get_seed_args+0x178>
80007668:	00043840 	sll	a3,a0,0x1
8000766c:	80650000 	lb	a1,0(v1)
80007670:	00000000 	nop
80007674:	24aaffd0 	addiu	t2,a1,-48
80007678:	314900ff 	andi	t1,t2,0xff
8000767c:	2d2b000a 	sltiu	t3,t1,10
80007680:	1560ffb7 	bnez	t3,80007560 <get_seed_args+0x50>
80007684:	01e71021 	addu	v0,t7,a3
80007688:	2403004b 	li	v1,75
8000768c:	10a3000c 	beq	a1,v1,800076c0 <get_seed_args+0x1b0>
80007690:	2407004d 	li	a3,77
80007694:	14a70003 	bne	a1,a3,800076a4 <get_seed_args+0x194>
80007698:	00480018 	mult	v0,t0
8000769c:	00021500 	sll	v0,v0,0x14
800076a0:	00480018 	mult	v0,t0
800076a4:	00001012 	mflo	v0
800076a8:	03e00008 	jr	ra
800076ac:	00000000 	nop
800076b0:	80650001 	lb	a1,1(v1)
800076b4:	1000ffa2 	b	80007540 <get_seed_args+0x30>
800076b8:	24630001 	addiu	v1,v1,1
800076bc:	00000000 	nop
800076c0:	1000fff7 	b	800076a0 <get_seed_args+0x190>
800076c4:	00021280 	sll	v0,v0,0xa
	...
800076d0:	806a0001 	lb	t2,1(v1)
800076d4:	240b0078 	li	t3,120
800076d8:	154bffa0 	bne	t2,t3,8000755c <get_seed_args+0x4c>
800076dc:	00005025 	move	t2,zero
800076e0:	246a0002 	addiu	t2,v1,2
800076e4:	00001025 	move	v0,zero
800076e8:	81450000 	lb	a1,0(t2)
800076ec:	00026100 	sll	t4,v0,0x4
800076f0:	30ad00ff 	andi	t5,a1,0xff
800076f4:	25aeffd0 	addiu	t6,t5,-48
800076f8:	24afffd0 	addiu	t7,a1,-48
800076fc:	25b8ff9f 	addiu	t8,t5,-97
80007700:	2dd9000a 	sltiu	t9,t6,10
80007704:	29e6000a 	slti	a2,t7,10
80007708:	17200003 	bnez	t9,80007718 <get_seed_args+0x208>
8000770c:	2f040006 	sltiu	a0,t8,6
80007710:	1080ffde 	beqz	a0,8000768c <get_seed_args+0x17c>
80007714:	2403004b 	li	v1,75
80007718:	14c00002 	bnez	a2,80007724 <get_seed_args+0x214>
8000771c:	00000000 	nop
80007720:	24afffa9 	addiu	t7,a1,-87
80007724:	018f1021 	addu	v0,t4,t7
80007728:	1000ffef 	b	800076e8 <get_seed_args+0x1d8>
8000772c:	254a0001 	addiu	t2,t2,1

80007730 <crcu8>:
crcu8():
80007730:	00853026 	xor	a2,a0,a1
80007734:	30c70001 	andi	a3,a2,0x1
80007738:	00041842 	srl	v1,a0,0x1
8000773c:	10e00002 	beqz	a3,80007748 <crcu8+0x18>
80007740:	00051042 	srl	v0,a1,0x1
80007744:	3842a001 	xori	v0,v0,0xa001
80007748:	00432826 	xor	a1,v0,v1
8000774c:	30a80001 	andi	t0,a1,0x1
80007750:	00044882 	srl	t1,a0,0x2
80007754:	11000003 	beqz	t0,80007764 <crcu8+0x34>
80007758:	00025842 	srl	t3,v0,0x1
8000775c:	316affff 	andi	t2,t3,0xffff
80007760:	394ba001 	xori	t3,t2,0xa001
80007764:	01696026 	xor	t4,t3,t1
80007768:	318d0001 	andi	t5,t4,0x1
8000776c:	000470c2 	srl	t6,a0,0x3
80007770:	11a00003 	beqz	t5,80007780 <crcu8+0x50>
80007774:	000bc042 	srl	t8,t3,0x1
80007778:	330fffff 	andi	t7,t8,0xffff
8000777c:	39f8a001 	xori	t8,t7,0xa001
80007780:	030ec826 	xor	t9,t8,t6
80007784:	33260001 	andi	a2,t9,0x1
80007788:	00043902 	srl	a3,a0,0x4
8000778c:	10c00003 	beqz	a2,8000779c <crcu8+0x6c>
80007790:	00181042 	srl	v0,t8,0x1
80007794:	3043ffff 	andi	v1,v0,0xffff
80007798:	3862a001 	xori	v0,v1,0xa001
8000779c:	00472826 	xor	a1,v0,a3
800077a0:	30a80001 	andi	t0,a1,0x1
800077a4:	00044942 	srl	t1,a0,0x5
800077a8:	11000003 	beqz	t0,800077b8 <crcu8+0x88>
800077ac:	00025842 	srl	t3,v0,0x1
800077b0:	316affff 	andi	t2,t3,0xffff
800077b4:	394ba001 	xori	t3,t2,0xa001
800077b8:	01696026 	xor	t4,t3,t1
800077bc:	318d0001 	andi	t5,t4,0x1
800077c0:	00047182 	srl	t6,a0,0x6
800077c4:	11a00003 	beqz	t5,800077d4 <crcu8+0xa4>
800077c8:	000bc042 	srl	t8,t3,0x1
800077cc:	330fffff 	andi	t7,t8,0xffff
800077d0:	39f8a001 	xori	t8,t7,0xa001
800077d4:	030ec826 	xor	t9,t8,t6
800077d8:	33260001 	andi	a2,t9,0x1
800077dc:	000421c2 	srl	a0,a0,0x7
800077e0:	10c00003 	beqz	a2,800077f0 <crcu8+0xc0>
800077e4:	00181042 	srl	v0,t8,0x1
800077e8:	3047ffff 	andi	a3,v0,0xffff
800077ec:	38e2a001 	xori	v0,a3,0xa001
800077f0:	30430001 	andi	v1,v0,0x1
800077f4:	10640003 	beq	v1,a0,80007804 <crcu8+0xd4>
800077f8:	00021042 	srl	v0,v0,0x1
800077fc:	3045ffff 	andi	a1,v0,0xffff
80007800:	38a2a001 	xori	v0,a1,0xa001
80007804:	03e00008 	jr	ra
80007808:	00000000 	nop
8000780c:	00000000 	nop

80007810 <crcu16>:
crcu16():
80007810:	00a43826 	xor	a3,a1,a0
80007814:	308300ff 	andi	v1,a0,0xff
80007818:	30e80001 	andi	t0,a3,0x1
8000781c:	00033042 	srl	a2,v1,0x1
80007820:	11000002 	beqz	t0,8000782c <crcu16+0x1c>
80007824:	00051042 	srl	v0,a1,0x1
80007828:	3842a001 	xori	v0,v0,0xa001
8000782c:	00462826 	xor	a1,v0,a2
80007830:	30a90001 	andi	t1,a1,0x1
80007834:	00035082 	srl	t2,v1,0x2
80007838:	11200003 	beqz	t1,80007848 <crcu16+0x38>
8000783c:	00026042 	srl	t4,v0,0x1
80007840:	318bffff 	andi	t3,t4,0xffff
80007844:	396ca001 	xori	t4,t3,0xa001
80007848:	018a6826 	xor	t5,t4,t2
8000784c:	31ae0001 	andi	t6,t5,0x1
80007850:	000378c2 	srl	t7,v1,0x3
80007854:	11c00003 	beqz	t6,80007864 <crcu16+0x54>
80007858:	000cc842 	srl	t9,t4,0x1
8000785c:	3338ffff 	andi	t8,t9,0xffff
80007860:	3b19a001 	xori	t9,t8,0xa001
80007864:	032f3826 	xor	a3,t9,t7
80007868:	30e80001 	andi	t0,a3,0x1
8000786c:	00033102 	srl	a2,v1,0x4
80007870:	11000003 	beqz	t0,80007880 <crcu16+0x70>
80007874:	00194842 	srl	t1,t9,0x1
80007878:	3122ffff 	andi	v0,t1,0xffff
8000787c:	3849a001 	xori	t1,v0,0xa001
80007880:	01262826 	xor	a1,t1,a2
80007884:	30aa0001 	andi	t2,a1,0x1
80007888:	00035942 	srl	t3,v1,0x5
8000788c:	11400003 	beqz	t2,8000789c <crcu16+0x8c>
80007890:	00096842 	srl	t5,t1,0x1
80007894:	31acffff 	andi	t4,t5,0xffff
80007898:	398da001 	xori	t5,t4,0xa001
8000789c:	01ab7026 	xor	t6,t5,t3
800078a0:	31cf0001 	andi	t7,t6,0x1
800078a4:	0003c182 	srl	t8,v1,0x6
800078a8:	11e00003 	beqz	t7,800078b8 <crcu16+0xa8>
800078ac:	000d3842 	srl	a3,t5,0x1
800078b0:	30f9ffff 	andi	t9,a3,0xffff
800078b4:	3b27a001 	xori	a3,t9,0xa001
800078b8:	00f84026 	xor	t0,a3,t8
800078bc:	31060001 	andi	a2,t0,0x1
800078c0:	000319c2 	srl	v1,v1,0x7
800078c4:	10c00003 	beqz	a2,800078d4 <crcu16+0xc4>
800078c8:	00074842 	srl	t1,a3,0x1
800078cc:	3122ffff 	andi	v0,t1,0xffff
800078d0:	3849a001 	xori	t1,v0,0xa001
800078d4:	31250001 	andi	a1,t1,0x1
800078d8:	10a30003 	beq	a1,v1,800078e8 <crcu16+0xd8>
800078dc:	00095842 	srl	t3,t1,0x1
800078e0:	316affff 	andi	t2,t3,0xffff
800078e4:	394ba001 	xori	t3,t2,0xa001
800078e8:	00046202 	srl	t4,a0,0x8
800078ec:	018b6826 	xor	t5,t4,t3
800078f0:	31ae0001 	andi	t6,t5,0x1
800078f4:	00047a02 	srl	t7,a0,0x8
800078f8:	000bc842 	srl	t9,t3,0x1
800078fc:	11c00003 	beqz	t6,8000790c <crcu16+0xfc>
80007900:	00042242 	srl	a0,a0,0x9
80007904:	3338ffff 	andi	t8,t9,0xffff
80007908:	3b19a001 	xori	t9,t8,0xa001
8000790c:	00993826 	xor	a3,a0,t9
80007910:	30e80001 	andi	t0,a3,0x1
80007914:	000f3082 	srl	a2,t7,0x2
80007918:	11000003 	beqz	t0,80007928 <crcu16+0x118>
8000791c:	00191042 	srl	v0,t9,0x1
80007920:	3043ffff 	andi	v1,v0,0xffff
80007924:	3862a001 	xori	v0,v1,0xa001
80007928:	00464826 	xor	t1,v0,a2
8000792c:	312a0001 	andi	t2,t1,0x1
80007930:	000f28c2 	srl	a1,t7,0x3
80007934:	11400003 	beqz	t2,80007944 <crcu16+0x134>
80007938:	00026042 	srl	t4,v0,0x1
8000793c:	318bffff 	andi	t3,t4,0xffff
80007940:	396ca001 	xori	t4,t3,0xa001
80007944:	01856826 	xor	t5,t4,a1
80007948:	31ae0001 	andi	t6,t5,0x1
8000794c:	000f2102 	srl	a0,t7,0x4
80007950:	11c00003 	beqz	t6,80007960 <crcu16+0x150>
80007954:	000cc842 	srl	t9,t4,0x1
80007958:	3338ffff 	andi	t8,t9,0xffff
8000795c:	3b19a001 	xori	t9,t8,0xa001
80007960:	03243826 	xor	a3,t9,a0
80007964:	30e80001 	andi	t0,a3,0x1
80007968:	000f3142 	srl	a2,t7,0x5
8000796c:	11000003 	beqz	t0,8000797c <crcu16+0x16c>
80007970:	00191042 	srl	v0,t9,0x1
80007974:	3043ffff 	andi	v1,v0,0xffff
80007978:	3862a001 	xori	v0,v1,0xa001
8000797c:	00464826 	xor	t1,v0,a2
80007980:	312a0001 	andi	t2,t1,0x1
80007984:	000f2982 	srl	a1,t7,0x6
80007988:	11400003 	beqz	t2,80007998 <crcu16+0x188>
8000798c:	00026042 	srl	t4,v0,0x1
80007990:	318bffff 	andi	t3,t4,0xffff
80007994:	396ca001 	xori	t4,t3,0xa001
80007998:	01856826 	xor	t5,t4,a1
8000799c:	31ae0001 	andi	t6,t5,0x1
800079a0:	000f79c2 	srl	t7,t7,0x7
800079a4:	11c00003 	beqz	t6,800079b4 <crcu16+0x1a4>
800079a8:	000cc042 	srl	t8,t4,0x1
800079ac:	3304ffff 	andi	a0,t8,0xffff
800079b0:	3898a001 	xori	t8,a0,0xa001
800079b4:	33190001 	andi	t9,t8,0x1
800079b8:	132f0003 	beq	t9,t7,800079c8 <crcu16+0x1b8>
800079bc:	00181042 	srl	v0,t8,0x1
800079c0:	3047ffff 	andi	a3,v0,0xffff
800079c4:	38e2a001 	xori	v0,a3,0xa001
800079c8:	03e00008 	jr	ra
800079cc:	00000000 	nop

800079d0 <crcu32>:
crcu32():
800079d0:	00a44026 	xor	t0,a1,a0
800079d4:	308600ff 	andi	a2,a0,0xff
800079d8:	31090001 	andi	t1,t0,0x1
800079dc:	3083ffff 	andi	v1,a0,0xffff
800079e0:	00063842 	srl	a3,a2,0x1
800079e4:	11200002 	beqz	t1,800079f0 <crcu32+0x20>
800079e8:	00051042 	srl	v0,a1,0x1
800079ec:	3842a001 	xori	v0,v0,0xa001
800079f0:	00472826 	xor	a1,v0,a3
800079f4:	30aa0001 	andi	t2,a1,0x1
800079f8:	00065882 	srl	t3,a2,0x2
800079fc:	11400003 	beqz	t2,80007a0c <crcu32+0x3c>
80007a00:	00026842 	srl	t5,v0,0x1
80007a04:	31acffff 	andi	t4,t5,0xffff
80007a08:	398da001 	xori	t5,t4,0xa001
80007a0c:	01ab7026 	xor	t6,t5,t3
80007a10:	31cf0001 	andi	t7,t6,0x1
80007a14:	0006c0c2 	srl	t8,a2,0x3
80007a18:	11e00003 	beqz	t7,80007a28 <crcu32+0x58>
80007a1c:	000d4042 	srl	t0,t5,0x1
80007a20:	3119ffff 	andi	t9,t0,0xffff
80007a24:	3b28a001 	xori	t0,t9,0xa001
80007a28:	01184826 	xor	t1,t0,t8
80007a2c:	31270001 	andi	a3,t1,0x1
80007a30:	00062902 	srl	a1,a2,0x4
80007a34:	10e00003 	beqz	a3,80007a44 <crcu32+0x74>
80007a38:	00085042 	srl	t2,t0,0x1
80007a3c:	3142ffff 	andi	v0,t2,0xffff
80007a40:	384aa001 	xori	t2,v0,0xa001
80007a44:	01455826 	xor	t3,t2,a1
80007a48:	316c0001 	andi	t4,t3,0x1
80007a4c:	00066942 	srl	t5,a2,0x5
80007a50:	11800003 	beqz	t4,80007a60 <crcu32+0x90>
80007a54:	000a7842 	srl	t7,t2,0x1
80007a58:	31eeffff 	andi	t6,t7,0xffff
80007a5c:	39cfa001 	xori	t7,t6,0xa001
80007a60:	01edc026 	xor	t8,t7,t5
80007a64:	33190001 	andi	t9,t8,0x1
80007a68:	00064182 	srl	t0,a2,0x6
80007a6c:	13200003 	beqz	t9,80007a7c <crcu32+0xac>
80007a70:	000f3842 	srl	a3,t7,0x1
80007a74:	30e9ffff 	andi	t1,a3,0xffff
80007a78:	3927a001 	xori	a3,t1,0xa001
80007a7c:	00e82826 	xor	a1,a3,t0
80007a80:	30aa0001 	andi	t2,a1,0x1
80007a84:	000631c2 	srl	a2,a2,0x7
80007a88:	11400003 	beqz	t2,80007a98 <crcu32+0xc8>
80007a8c:	00075842 	srl	t3,a3,0x1
80007a90:	3162ffff 	andi	v0,t3,0xffff
80007a94:	384ba001 	xori	t3,v0,0xa001
80007a98:	316c0001 	andi	t4,t3,0x1
80007a9c:	158600b0 	bne	t4,a2,80007d60 <crcu32+0x390>
80007aa0:	000b7042 	srl	t6,t3,0x1
80007aa4:	00037a02 	srl	t7,v1,0x8
80007aa8:	01cfc026 	xor	t8,t6,t7
80007aac:	33190001 	andi	t9,t8,0x1
80007ab0:	00034202 	srl	t0,v1,0x8
80007ab4:	000e3842 	srl	a3,t6,0x1
80007ab8:	13200003 	beqz	t9,80007ac8 <crcu32+0xf8>
80007abc:	00031a42 	srl	v1,v1,0x9
80007ac0:	30e9ffff 	andi	t1,a3,0xffff
80007ac4:	3927a001 	xori	a3,t1,0xa001
80007ac8:	00e32826 	xor	a1,a3,v1
80007acc:	30aa0001 	andi	t2,a1,0x1
80007ad0:	00083082 	srl	a2,t0,0x2
80007ad4:	11400003 	beqz	t2,80007ae4 <crcu32+0x114>
80007ad8:	00075842 	srl	t3,a3,0x1
80007adc:	3162ffff 	andi	v0,t3,0xffff
80007ae0:	384ba001 	xori	t3,v0,0xa001
80007ae4:	01666026 	xor	t4,t3,a2
80007ae8:	318d0001 	andi	t5,t4,0x1
80007aec:	000870c2 	srl	t6,t0,0x3
80007af0:	11a00003 	beqz	t5,80007b00 <crcu32+0x130>
80007af4:	000bc042 	srl	t8,t3,0x1
80007af8:	330fffff 	andi	t7,t8,0xffff
80007afc:	39f8a001 	xori	t8,t7,0xa001
80007b00:	030ec826 	xor	t9,t8,t6
80007b04:	33290001 	andi	t1,t9,0x1
80007b08:	00081902 	srl	v1,t0,0x4
80007b0c:	11200003 	beqz	t1,80007b1c <crcu32+0x14c>
80007b10:	00182842 	srl	a1,t8,0x1
80007b14:	30a7ffff 	andi	a3,a1,0xffff
80007b18:	38e5a001 	xori	a1,a3,0xa001
80007b1c:	00a35026 	xor	t2,a1,v1
80007b20:	314b0001 	andi	t3,t2,0x1
80007b24:	00083142 	srl	a2,t0,0x5
80007b28:	11600003 	beqz	t3,80007b38 <crcu32+0x168>
80007b2c:	00056042 	srl	t4,a1,0x1
80007b30:	3182ffff 	andi	v0,t4,0xffff
80007b34:	384ca001 	xori	t4,v0,0xa001
80007b38:	01866826 	xor	t5,t4,a2
80007b3c:	31ae0001 	andi	t6,t5,0x1
80007b40:	00087982 	srl	t7,t0,0x6
80007b44:	11c00003 	beqz	t6,80007b54 <crcu32+0x184>
80007b48:	000cc842 	srl	t9,t4,0x1
80007b4c:	3338ffff 	andi	t8,t9,0xffff
80007b50:	3b19a001 	xori	t9,t8,0xa001
80007b54:	032f4826 	xor	t1,t9,t7
80007b58:	31230001 	andi	v1,t1,0x1
80007b5c:	000841c2 	srl	t0,t0,0x7
80007b60:	10600003 	beqz	v1,80007b70 <crcu32+0x1a0>
80007b64:	00192842 	srl	a1,t9,0x1
80007b68:	30a7ffff 	andi	a3,a1,0xffff
80007b6c:	38e5a001 	xori	a1,a3,0xa001
80007b70:	30aa0001 	andi	t2,a1,0x1
80007b74:	11480003 	beq	t2,t0,80007b84 <crcu32+0x1b4>
80007b78:	00051042 	srl	v0,a1,0x1
80007b7c:	304bffff 	andi	t3,v0,0xffff
80007b80:	3962a001 	xori	v0,t3,0xa001
80007b84:	00043402 	srl	a2,a0,0x10
80007b88:	00466026 	xor	t4,v0,a2
80007b8c:	30cd00ff 	andi	t5,a2,0xff
80007b90:	318e0001 	andi	t6,t4,0x1
80007b94:	00042402 	srl	a0,a0,0x10
80007b98:	000d7842 	srl	t7,t5,0x1
80007b9c:	11c00003 	beqz	t6,80007bac <crcu32+0x1dc>
80007ba0:	0002c842 	srl	t9,v0,0x1
80007ba4:	3338ffff 	andi	t8,t9,0xffff
80007ba8:	3b19a001 	xori	t9,t8,0xa001
80007bac:	032f4826 	xor	t1,t9,t7
80007bb0:	31230001 	andi	v1,t1,0x1
80007bb4:	000d4082 	srl	t0,t5,0x2
80007bb8:	10600003 	beqz	v1,80007bc8 <crcu32+0x1f8>
80007bbc:	00195042 	srl	t2,t9,0x1
80007bc0:	3147ffff 	andi	a3,t2,0xffff
80007bc4:	38eaa001 	xori	t2,a3,0xa001
80007bc8:	01482826 	xor	a1,t2,t0
80007bcc:	30ab0001 	andi	t3,a1,0x1
80007bd0:	000d30c2 	srl	a2,t5,0x3
80007bd4:	11600003 	beqz	t3,80007be4 <crcu32+0x214>
80007bd8:	000a6042 	srl	t4,t2,0x1
80007bdc:	3182ffff 	andi	v0,t4,0xffff
80007be0:	384ca001 	xori	t4,v0,0xa001
80007be4:	01867026 	xor	t6,t4,a2
80007be8:	31cf0001 	andi	t7,t6,0x1
80007bec:	000dc102 	srl	t8,t5,0x4
80007bf0:	11e00003 	beqz	t7,80007c00 <crcu32+0x230>
80007bf4:	000c4842 	srl	t1,t4,0x1
80007bf8:	3139ffff 	andi	t9,t1,0xffff
80007bfc:	3b29a001 	xori	t1,t9,0xa001
80007c00:	01381826 	xor	v1,t1,t8
80007c04:	30680001 	andi	t0,v1,0x1
80007c08:	000d3942 	srl	a3,t5,0x5
80007c0c:	11000003 	beqz	t0,80007c1c <crcu32+0x24c>
80007c10:	00095842 	srl	t3,t1,0x1
80007c14:	316affff 	andi	t2,t3,0xffff
80007c18:	394ba001 	xori	t3,t2,0xa001
80007c1c:	01672826 	xor	a1,t3,a3
80007c20:	30a60001 	andi	a2,a1,0x1
80007c24:	000d6182 	srl	t4,t5,0x6
80007c28:	10c00003 	beqz	a2,80007c38 <crcu32+0x268>
80007c2c:	000b7042 	srl	t6,t3,0x1
80007c30:	31c2ffff 	andi	v0,t6,0xffff
80007c34:	384ea001 	xori	t6,v0,0xa001
80007c38:	01cc7826 	xor	t7,t6,t4
80007c3c:	31f80001 	andi	t8,t7,0x1
80007c40:	000d69c2 	srl	t5,t5,0x7
80007c44:	13000003 	beqz	t8,80007c54 <crcu32+0x284>
80007c48:	000e4842 	srl	t1,t6,0x1
80007c4c:	3139ffff 	andi	t9,t1,0xffff
80007c50:	3b29a001 	xori	t1,t9,0xa001
80007c54:	31230001 	andi	v1,t1,0x1
80007c58:	146d003d 	bne	v1,t5,80007d50 <crcu32+0x380>
80007c5c:	00093842 	srl	a3,t1,0x1
80007c60:	00045202 	srl	t2,a0,0x8
80007c64:	01475826 	xor	t3,t2,a3
80007c68:	31650001 	andi	a1,t3,0x1
80007c6c:	00043202 	srl	a2,a0,0x8
80007c70:	00071042 	srl	v0,a3,0x1
80007c74:	10a00003 	beqz	a1,80007c84 <crcu32+0x2b4>
80007c78:	00042242 	srl	a0,a0,0x9
80007c7c:	304cffff 	andi	t4,v0,0xffff
80007c80:	3982a001 	xori	v0,t4,0xa001
80007c84:	00447026 	xor	t6,v0,a0
80007c88:	31cf0001 	andi	t7,t6,0x1
80007c8c:	0006c082 	srl	t8,a2,0x2
80007c90:	11e00003 	beqz	t7,80007ca0 <crcu32+0x2d0>
80007c94:	0002c842 	srl	t9,v0,0x1
80007c98:	332dffff 	andi	t5,t9,0xffff
80007c9c:	39b9a001 	xori	t9,t5,0xa001
80007ca0:	03194826 	xor	t1,t8,t9
80007ca4:	31230001 	andi	v1,t1,0x1
80007ca8:	000640c2 	srl	t0,a2,0x3
80007cac:	10600003 	beqz	v1,80007cbc <crcu32+0x2ec>
80007cb0:	00195042 	srl	t2,t9,0x1
80007cb4:	3147ffff 	andi	a3,t2,0xffff
80007cb8:	38eaa001 	xori	t2,a3,0xa001
80007cbc:	010a5826 	xor	t3,t0,t2
80007cc0:	31650001 	andi	a1,t3,0x1
80007cc4:	00062102 	srl	a0,a2,0x4
80007cc8:	10a00003 	beqz	a1,80007cd8 <crcu32+0x308>
80007ccc:	000a1042 	srl	v0,t2,0x1
80007cd0:	304cffff 	andi	t4,v0,0xffff
80007cd4:	3982a001 	xori	v0,t4,0xa001
80007cd8:	00827026 	xor	t6,a0,v0
80007cdc:	31cf0001 	andi	t7,t6,0x1
80007ce0:	0006c142 	srl	t8,a2,0x5
80007ce4:	11e00003 	beqz	t7,80007cf4 <crcu32+0x324>
80007ce8:	0002c842 	srl	t9,v0,0x1
80007cec:	332dffff 	andi	t5,t9,0xffff
80007cf0:	39b9a001 	xori	t9,t5,0xa001
80007cf4:	03194826 	xor	t1,t8,t9
80007cf8:	31230001 	andi	v1,t1,0x1
80007cfc:	00064182 	srl	t0,a2,0x6
80007d00:	10600003 	beqz	v1,80007d10 <crcu32+0x340>
80007d04:	00195042 	srl	t2,t9,0x1
80007d08:	3147ffff 	andi	a3,t2,0xffff
80007d0c:	38eaa001 	xori	t2,a3,0xa001
80007d10:	010a5826 	xor	t3,t0,t2
80007d14:	31650001 	andi	a1,t3,0x1
80007d18:	000631c2 	srl	a2,a2,0x7
80007d1c:	10a00003 	beqz	a1,80007d2c <crcu32+0x35c>
80007d20:	000a6042 	srl	t4,t2,0x1
80007d24:	3184ffff 	andi	a0,t4,0xffff
80007d28:	388ca001 	xori	t4,a0,0xa001
80007d2c:	318e0001 	andi	t6,t4,0x1
80007d30:	11c60003 	beq	t6,a2,80007d40 <crcu32+0x370>
80007d34:	000c1042 	srl	v0,t4,0x1
80007d38:	3042ffff 	andi	v0,v0,0xffff
80007d3c:	3842a001 	xori	v0,v0,0xa001
80007d40:	03e00008 	jr	ra
80007d44:	00000000 	nop
	...
80007d50:	30e8ffff 	andi	t0,a3,0xffff
80007d54:	1000ffc2 	b	80007c60 <crcu32+0x290>
80007d58:	3907a001 	xori	a3,t0,0xa001
80007d5c:	00000000 	nop
80007d60:	31cdffff 	andi	t5,t6,0xffff
80007d64:	1000ff4f 	b	80007aa4 <crcu32+0xd4>
80007d68:	39aea001 	xori	t6,t5,0xa001
80007d6c:	00000000 	nop

80007d70 <crc16>:
crc16():
80007d70:	00a43826 	xor	a3,a1,a0
80007d74:	308300ff 	andi	v1,a0,0xff
80007d78:	30e80001 	andi	t0,a3,0x1
80007d7c:	3084ffff 	andi	a0,a0,0xffff
80007d80:	00033042 	srl	a2,v1,0x1
80007d84:	11000002 	beqz	t0,80007d90 <crc16+0x20>
80007d88:	00051042 	srl	v0,a1,0x1
80007d8c:	3842a001 	xori	v0,v0,0xa001
80007d90:	00462826 	xor	a1,v0,a2
80007d94:	30a90001 	andi	t1,a1,0x1
80007d98:	00035082 	srl	t2,v1,0x2
80007d9c:	11200003 	beqz	t1,80007dac <crc16+0x3c>
80007da0:	00026042 	srl	t4,v0,0x1
80007da4:	318bffff 	andi	t3,t4,0xffff
80007da8:	396ca001 	xori	t4,t3,0xa001
80007dac:	018a6826 	xor	t5,t4,t2
80007db0:	31ae0001 	andi	t6,t5,0x1
80007db4:	000378c2 	srl	t7,v1,0x3
80007db8:	11c00003 	beqz	t6,80007dc8 <crc16+0x58>
80007dbc:	000cc842 	srl	t9,t4,0x1
80007dc0:	3338ffff 	andi	t8,t9,0xffff
80007dc4:	3b19a001 	xori	t9,t8,0xa001
80007dc8:	032f3826 	xor	a3,t9,t7
80007dcc:	30e80001 	andi	t0,a3,0x1
80007dd0:	00033102 	srl	a2,v1,0x4
80007dd4:	11000003 	beqz	t0,80007de4 <crc16+0x74>
80007dd8:	00194842 	srl	t1,t9,0x1
80007ddc:	3122ffff 	andi	v0,t1,0xffff
80007de0:	3849a001 	xori	t1,v0,0xa001
80007de4:	01262826 	xor	a1,t1,a2
80007de8:	30aa0001 	andi	t2,a1,0x1
80007dec:	00035942 	srl	t3,v1,0x5
80007df0:	11400003 	beqz	t2,80007e00 <crc16+0x90>
80007df4:	00096842 	srl	t5,t1,0x1
80007df8:	31acffff 	andi	t4,t5,0xffff
80007dfc:	398da001 	xori	t5,t4,0xa001
80007e00:	01ab7026 	xor	t6,t5,t3
80007e04:	31cf0001 	andi	t7,t6,0x1
80007e08:	0003c182 	srl	t8,v1,0x6
80007e0c:	11e00003 	beqz	t7,80007e1c <crc16+0xac>
80007e10:	000d3842 	srl	a3,t5,0x1
80007e14:	30f9ffff 	andi	t9,a3,0xffff
80007e18:	3b27a001 	xori	a3,t9,0xa001
80007e1c:	00f84026 	xor	t0,a3,t8
80007e20:	31060001 	andi	a2,t0,0x1
80007e24:	000319c2 	srl	v1,v1,0x7
80007e28:	10c00003 	beqz	a2,80007e38 <crc16+0xc8>
80007e2c:	00074842 	srl	t1,a3,0x1
80007e30:	3122ffff 	andi	v0,t1,0xffff
80007e34:	3849a001 	xori	t1,v0,0xa001
80007e38:	31250001 	andi	a1,t1,0x1
80007e3c:	10a30003 	beq	a1,v1,80007e4c <crc16+0xdc>
80007e40:	00095842 	srl	t3,t1,0x1
80007e44:	316affff 	andi	t2,t3,0xffff
80007e48:	394ba001 	xori	t3,t2,0xa001
80007e4c:	00046202 	srl	t4,a0,0x8
80007e50:	018b6826 	xor	t5,t4,t3
80007e54:	31ae0001 	andi	t6,t5,0x1
80007e58:	00047a02 	srl	t7,a0,0x8
80007e5c:	000bc842 	srl	t9,t3,0x1
80007e60:	11c00003 	beqz	t6,80007e70 <crc16+0x100>
80007e64:	00042242 	srl	a0,a0,0x9
80007e68:	3338ffff 	andi	t8,t9,0xffff
80007e6c:	3b19a001 	xori	t9,t8,0xa001
80007e70:	00993826 	xor	a3,a0,t9
80007e74:	30e80001 	andi	t0,a3,0x1
80007e78:	000f3082 	srl	a2,t7,0x2
80007e7c:	11000003 	beqz	t0,80007e8c <crc16+0x11c>
80007e80:	00191042 	srl	v0,t9,0x1
80007e84:	3043ffff 	andi	v1,v0,0xffff
80007e88:	3862a001 	xori	v0,v1,0xa001
80007e8c:	00464826 	xor	t1,v0,a2
80007e90:	312a0001 	andi	t2,t1,0x1
80007e94:	000f28c2 	srl	a1,t7,0x3
80007e98:	11400003 	beqz	t2,80007ea8 <crc16+0x138>
80007e9c:	00026042 	srl	t4,v0,0x1
80007ea0:	318bffff 	andi	t3,t4,0xffff
80007ea4:	396ca001 	xori	t4,t3,0xa001
80007ea8:	01856826 	xor	t5,t4,a1
80007eac:	31ae0001 	andi	t6,t5,0x1
80007eb0:	000f2102 	srl	a0,t7,0x4
80007eb4:	11c00003 	beqz	t6,80007ec4 <crc16+0x154>
80007eb8:	000cc842 	srl	t9,t4,0x1
80007ebc:	3338ffff 	andi	t8,t9,0xffff
80007ec0:	3b19a001 	xori	t9,t8,0xa001
80007ec4:	03243826 	xor	a3,t9,a0
80007ec8:	30e80001 	andi	t0,a3,0x1
80007ecc:	000f3142 	srl	a2,t7,0x5
80007ed0:	11000003 	beqz	t0,80007ee0 <crc16+0x170>
80007ed4:	00191042 	srl	v0,t9,0x1
80007ed8:	3043ffff 	andi	v1,v0,0xffff
80007edc:	3862a001 	xori	v0,v1,0xa001
80007ee0:	00464826 	xor	t1,v0,a2
80007ee4:	312a0001 	andi	t2,t1,0x1
80007ee8:	000f2982 	srl	a1,t7,0x6
80007eec:	11400003 	beqz	t2,80007efc <crc16+0x18c>
80007ef0:	00026042 	srl	t4,v0,0x1
80007ef4:	318bffff 	andi	t3,t4,0xffff
80007ef8:	396ca001 	xori	t4,t3,0xa001
80007efc:	01856826 	xor	t5,t4,a1
80007f00:	31ae0001 	andi	t6,t5,0x1
80007f04:	000f79c2 	srl	t7,t7,0x7
80007f08:	11c00003 	beqz	t6,80007f18 <crc16+0x1a8>
80007f0c:	000cc042 	srl	t8,t4,0x1
80007f10:	3304ffff 	andi	a0,t8,0xffff
80007f14:	3898a001 	xori	t8,a0,0xa001
80007f18:	33190001 	andi	t9,t8,0x1
80007f1c:	132f0003 	beq	t9,t7,80007f2c <crc16+0x1bc>
80007f20:	00181042 	srl	v0,t8,0x1
80007f24:	3047ffff 	andi	a3,v0,0xffff
80007f28:	38e2a001 	xori	v0,a3,0xa001
80007f2c:	03e00008 	jr	ra
80007f30:	00000000 	nop
	...

80007f40 <check_data_types>:
check_data_types():
80007f40:	03e00008 	jr	ra
80007f44:	00001025 	move	v0,zero
	...

80007f50 <calc_func>:
calc_func():
80007f50:	27bdffd0 	addiu	sp,sp,-48
80007f54:	afb0001c 	sw	s0,28(sp)
80007f58:	84900000 	lh	s0,0(a0)
80007f5c:	afbf002c 	sw	ra,44(sp)
80007f60:	001011c3 	sra	v0,s0,0x7
80007f64:	30430001 	andi	v1,v0,0x1
80007f68:	afb30028 	sw	s3,40(sp)
80007f6c:	afb20024 	sw	s2,36(sp)
80007f70:	1060000b 	beqz	v1,80007fa0 <calc_func+0x50>
80007f74:	afb10020 	sw	s1,32(sp)
80007f78:	8fbf002c 	lw	ra,44(sp)
80007f7c:	3219007f 	andi	t9,s0,0x7f
80007f80:	8fb30028 	lw	s3,40(sp)
80007f84:	8fb20024 	lw	s2,36(sp)
80007f88:	8fb10020 	lw	s1,32(sp)
80007f8c:	8fb0001c 	lw	s0,28(sp)
80007f90:	03201025 	move	v0,t9
80007f94:	03e00008 	jr	ra
80007f98:	27bd0030 	addiu	sp,sp,48
80007f9c:	00000000 	nop
80007fa0:	00809825 	move	s3,a0
80007fa4:	001020c3 	sra	a0,s0,0x3
80007fa8:	3086000f 	andi	a2,a0,0xf
80007fac:	00063900 	sll	a3,a2,0x4
80007fb0:	32080007 	andi	t0,s0,0x7
80007fb4:	00a08825 	move	s1,a1
80007fb8:	94a50038 	lhu	a1,56(a1)
80007fbc:	11000024 	beqz	t0,80008050 <calc_func+0x100>
80007fc0:	00e65825 	or	t3,a3,a2
80007fc4:	240e0001 	li	t6,1
80007fc8:	110e0015 	beq	t0,t6,80008020 <calc_func+0xd0>
80007fcc:	00a03025 	move	a2,a1
80007fd0:	3204ffff 	andi	a0,s0,0xffff
80007fd4:	02009025 	move	s2,s0
80007fd8:	0c001e04 	jal	80007810 <crcu16>
80007fdc:	00000000 	nop
80007fe0:	2403ff00 	li	v1,-256
80007fe4:	3259007f 	andi	t9,s2,0x7f
80007fe8:	02038024 	and	s0,s0,v1
80007fec:	8fbf002c 	lw	ra,44(sp)
80007ff0:	03302025 	or	a0,t9,s0
80007ff4:	34860080 	ori	a2,a0,0x80
80007ff8:	a6220038 	sh	v0,56(s1)
80007ffc:	8fb20024 	lw	s2,36(sp)
80008000:	8fb10020 	lw	s1,32(sp)
80008004:	8fb0001c 	lw	s0,28(sp)
80008008:	a6660000 	sh	a2,0(s3)
8000800c:	03201025 	move	v0,t9
80008010:	8fb30028 	lw	s3,40(sp)
80008014:	03e00008 	jr	ra
80008018:	27bd0030 	addiu	sp,sp,48
8000801c:	00000000 	nop
80008020:	26240028 	addiu	a0,s1,40
80008024:	0c000498 	jal	80001260 <core_bench_matrix>
80008028:	01602825 	move	a1,t3
8000802c:	962f003c 	lhu	t7,60(s1)
80008030:	0002c400 	sll	t8,v0,0x10
80008034:	96250038 	lhu	a1,56(s1)
80008038:	00402025 	move	a0,v0
8000803c:	15e0ffe6 	bnez	t7,80007fd8 <calc_func+0x88>
80008040:	00189403 	sra	s2,t8,0x10
80008044:	1000ffe4 	b	80007fd8 <calc_func+0x88>
80008048:	a622003c 	sh	v0,60(s1)
8000804c:	00000000 	nop
80008050:	29690022 	slti	t1,t3,34
80008054:	86270002 	lh	a3,2(s1)
80008058:	86260000 	lh	a2,0(s1)
8000805c:	8e2a0014 	lw	t2,20(s1)
80008060:	8e240018 	lw	a0,24(s1)
80008064:	11200002 	beqz	t1,80008070 <calc_func+0x120>
80008068:	afa50014 	sw	a1,20(sp)
8000806c:	240b0022 	li	t3,34
80008070:	000b2c00 	sll	a1,t3,0x10
80008074:	00056403 	sra	t4,a1,0x10
80008078:	afac0010 	sw	t4,16(sp)
8000807c:	0c00162c 	jal	800058b0 <core_bench_state>
80008080:	01402825 	move	a1,t2
80008084:	962d003e 	lhu	t5,62(s1)
80008088:	00029400 	sll	s2,v0,0x10
8000808c:	96250038 	lhu	a1,56(s1)
80008090:	00402025 	move	a0,v0
80008094:	15a0ffd0 	bnez	t5,80007fd8 <calc_func+0x88>
80008098:	00129403 	sra	s2,s2,0x10
8000809c:	1000ffce 	b	80007fd8 <calc_func+0x88>
800080a0:	a622003e 	sh	v0,62(s1)
	...

800080b0 <cmp_complex>:
cmp_complex():
800080b0:	27bdffd0 	addiu	sp,sp,-48
800080b4:	afb1001c 	sw	s1,28(sp)
800080b8:	84910000 	lh	s1,0(a0)
800080bc:	afb20020 	sw	s2,32(sp)
800080c0:	001111c3 	sra	v0,s1,0x7
800080c4:	30430001 	andi	v1,v0,0x1
800080c8:	afb00018 	sw	s0,24(sp)
800080cc:	afbf002c 	sw	ra,44(sp)
800080d0:	afb40028 	sw	s4,40(sp)
800080d4:	afb30024 	sw	s3,36(sp)
800080d8:	00a09025 	move	s2,a1
800080dc:	10600028 	beqz	v1,80008180 <cmp_complex+0xd0>
800080e0:	00c08025 	move	s0,a2
800080e4:	3234007f 	andi	s4,s1,0x7f
800080e8:	86510000 	lh	s1,0(s2)
800080ec:	00000000 	nop
800080f0:	001111c3 	sra	v0,s1,0x7
800080f4:	305f0001 	andi	ra,v0,0x1
800080f8:	17e0003d 	bnez	ra,800081f0 <cmp_complex+0x140>
800080fc:	001130c3 	sra	a2,s1,0x3
80008100:	30d3000f 	andi	s3,a2,0xf
80008104:	00132900 	sll	a1,s3,0x4
80008108:	32270007 	andi	a3,s1,0x7
8000810c:	96190038 	lhu	t9,56(s0)
80008110:	10e00067 	beqz	a3,800082b0 <cmp_complex+0x200>
80008114:	02654825 	or	t1,s3,a1
80008118:	240e0001 	li	t6,1
8000811c:	10ee0078 	beq	a3,t6,80008300 <cmp_complex+0x250>
80008120:	26040028 	addiu	a0,s0,40
80008124:	3224ffff 	andi	a0,s1,0xffff
80008128:	02209825 	move	s3,s1
8000812c:	0c001e04 	jal	80007810 <crcu16>
80008130:	03202825 	move	a1,t9
80008134:	2404ff00 	li	a0,-256
80008138:	3263007f 	andi	v1,s3,0x7f
8000813c:	02248824 	and	s1,s1,a0
80008140:	00713025 	or	a2,v1,s1
80008144:	34c50080 	ori	a1,a2,0x80
80008148:	a6020038 	sh	v0,56(s0)
8000814c:	a6450000 	sh	a1,0(s2)
80008150:	8fbf002c 	lw	ra,44(sp)
80008154:	8fb30024 	lw	s3,36(sp)
80008158:	8fb20020 	lw	s2,32(sp)
8000815c:	8fb1001c 	lw	s1,28(sp)
80008160:	8fb00018 	lw	s0,24(sp)
80008164:	02831023 	subu	v0,s4,v1
80008168:	8fb40028 	lw	s4,40(sp)
8000816c:	03e00008 	jr	ra
80008170:	27bd0030 	addiu	sp,sp,48
	...
80008180:	00809825 	move	s3,a0
80008184:	001120c3 	sra	a0,s1,0x3
80008188:	3086000f 	andi	a2,a0,0xf
8000818c:	00062900 	sll	a1,a2,0x4
80008190:	32270007 	andi	a3,s1,0x7
80008194:	96180038 	lhu	t8,56(s0)
80008198:	10e0002d 	beqz	a3,80008250 <cmp_complex+0x1a0>
8000819c:	00c54825 	or	t1,a2,a1
800081a0:	240d0001 	li	t5,1
800081a4:	10ed001e 	beq	a3,t5,80008220 <cmp_complex+0x170>
800081a8:	26040028 	addiu	a0,s0,40
800081ac:	3224ffff 	andi	a0,s1,0xffff
800081b0:	0220a025 	move	s4,s1
800081b4:	0c001e04 	jal	80007810 <crcu16>
800081b8:	03002825 	move	a1,t8
800081bc:	2419ff00 	li	t9,-256
800081c0:	02398824 	and	s1,s1,t9
800081c4:	3294007f 	andi	s4,s4,0x7f
800081c8:	02911825 	or	v1,s4,s1
800081cc:	34640080 	ori	a0,v1,0x80
800081d0:	a6020038 	sh	v0,56(s0)
800081d4:	a6640000 	sh	a0,0(s3)
800081d8:	86510000 	lh	s1,0(s2)
800081dc:	00000000 	nop
800081e0:	001111c3 	sra	v0,s1,0x7
800081e4:	305f0001 	andi	ra,v0,0x1
800081e8:	13e0ffc5 	beqz	ra,80008100 <cmp_complex+0x50>
800081ec:	001130c3 	sra	a2,s1,0x3
800081f0:	8fbf002c 	lw	ra,44(sp)
800081f4:	3223007f 	andi	v1,s1,0x7f
800081f8:	8fb30024 	lw	s3,36(sp)
800081fc:	8fb20020 	lw	s2,32(sp)
80008200:	8fb1001c 	lw	s1,28(sp)
80008204:	8fb00018 	lw	s0,24(sp)
80008208:	02831023 	subu	v0,s4,v1
8000820c:	8fb40028 	lw	s4,40(sp)
80008210:	03e00008 	jr	ra
80008214:	27bd0030 	addiu	sp,sp,48
	...
80008220:	03003025 	move	a2,t8
80008224:	0c000498 	jal	80001260 <core_bench_matrix>
80008228:	01202825 	move	a1,t1
8000822c:	960e003c 	lhu	t6,60(s0)
80008230:	00027c00 	sll	t7,v0,0x10
80008234:	00402025 	move	a0,v0
80008238:	15c00019 	bnez	t6,800082a0 <cmp_complex+0x1f0>
8000823c:	000fa403 	sra	s4,t7,0x10
80008240:	96180038 	lhu	t8,56(s0)
80008244:	1000ffdb 	b	800081b4 <cmp_complex+0x104>
80008248:	a602003c 	sh	v0,60(s0)
8000824c:	00000000 	nop
80008250:	29280022 	slti	t0,t1,34
80008254:	86070002 	lh	a3,2(s0)
80008258:	86060000 	lh	a2,0(s0)
8000825c:	8e050014 	lw	a1,20(s0)
80008260:	8e040018 	lw	a0,24(s0)
80008264:	11000002 	beqz	t0,80008270 <cmp_complex+0x1c0>
80008268:	afb80014 	sw	t8,20(sp)
8000826c:	24090022 	li	t1,34
80008270:	00095400 	sll	t2,t1,0x10
80008274:	000a5c03 	sra	t3,t2,0x10
80008278:	0c00162c 	jal	800058b0 <core_bench_state>
8000827c:	afab0010 	sw	t3,16(sp)
80008280:	960c003e 	lhu	t4,62(s0)
80008284:	0002a400 	sll	s4,v0,0x10
80008288:	00402025 	move	a0,v0
8000828c:	15800004 	bnez	t4,800082a0 <cmp_complex+0x1f0>
80008290:	0014a403 	sra	s4,s4,0x10
80008294:	96180038 	lhu	t8,56(s0)
80008298:	1000ffc6 	b	800081b4 <cmp_complex+0x104>
8000829c:	a602003e 	sh	v0,62(s0)
800082a0:	96180038 	lhu	t8,56(s0)
800082a4:	1000ffc3 	b	800081b4 <cmp_complex+0x104>
800082a8:	00000000 	nop
800082ac:	00000000 	nop
800082b0:	29280022 	slti	t0,t1,34
800082b4:	86070002 	lh	a3,2(s0)
800082b8:	86060000 	lh	a2,0(s0)
800082bc:	8e050014 	lw	a1,20(s0)
800082c0:	8e040018 	lw	a0,24(s0)
800082c4:	11000002 	beqz	t0,800082d0 <cmp_complex+0x220>
800082c8:	afb90014 	sw	t9,20(sp)
800082cc:	24090022 	li	t1,34
800082d0:	00095400 	sll	t2,t1,0x10
800082d4:	000a5c03 	sra	t3,t2,0x10
800082d8:	0c00162c 	jal	800058b0 <core_bench_state>
800082dc:	afab0010 	sw	t3,16(sp)
800082e0:	960c003e 	lhu	t4,62(s0)
800082e4:	00026c00 	sll	t5,v0,0x10
800082e8:	00402025 	move	a0,v0
800082ec:	15800010 	bnez	t4,80008330 <cmp_complex+0x280>
800082f0:	000d9c03 	sra	s3,t5,0x10
800082f4:	96190038 	lhu	t9,56(s0)
800082f8:	1000ff8c 	b	8000812c <cmp_complex+0x7c>
800082fc:	a602003e 	sh	v0,62(s0)
80008300:	03203025 	move	a2,t9
80008304:	0c000498 	jal	80001260 <core_bench_matrix>
80008308:	01202825 	move	a1,t1
8000830c:	960f003c 	lhu	t7,60(s0)
80008310:	0002c400 	sll	t8,v0,0x10
80008314:	00402025 	move	a0,v0
80008318:	15e00005 	bnez	t7,80008330 <cmp_complex+0x280>
8000831c:	00189c03 	sra	s3,t8,0x10
80008320:	96190038 	lhu	t9,56(s0)
80008324:	1000ff81 	b	8000812c <cmp_complex+0x7c>
80008328:	a602003c 	sh	v0,60(s0)
8000832c:	00000000 	nop
80008330:	96190038 	lhu	t9,56(s0)
80008334:	0c001e04 	jal	80007810 <crcu16>
80008338:	03202825 	move	a1,t9
8000833c:	2404ff00 	li	a0,-256
80008340:	3263007f 	andi	v1,s3,0x7f
80008344:	02248824 	and	s1,s1,a0
80008348:	00713025 	or	a2,v1,s1
8000834c:	34c50080 	ori	a1,a2,0x80
80008350:	a6020038 	sh	v0,56(s0)
80008354:	1000ff7e 	b	80008150 <cmp_complex+0xa0>
80008358:	a6450000 	sh	a1,0(s2)
8000835c:	00000000 	nop

80008360 <cmp_idx>:
cmp_idx():
80008360:	10c00007 	beqz	a2,80008380 <cmp_idx+0x20>
80008364:	2407ff00 	li	a3,-256
80008368:	84840002 	lh	a0,2(a0)
8000836c:	84a50002 	lh	a1,2(a1)
80008370:	03e00008 	jr	ra
80008374:	00851023 	subu	v0,a0,a1
	...
80008380:	84830000 	lh	v1,0(a0)
80008384:	00000000 	nop
80008388:	3066ffff 	andi	a2,v1,0xffff
8000838c:	00671024 	and	v0,v1,a3
80008390:	00064202 	srl	t0,a2,0x8
80008394:	00484825 	or	t1,v0,t0
80008398:	a4890000 	sh	t1,0(a0)
8000839c:	84aa0000 	lh	t2,0(a1)
800083a0:	84840002 	lh	a0,2(a0)
800083a4:	314bffff 	andi	t3,t2,0xffff
800083a8:	01476024 	and	t4,t2,a3
800083ac:	000b6a02 	srl	t5,t3,0x8
800083b0:	018d7025 	or	t6,t4,t5
800083b4:	a4ae0000 	sh	t6,0(a1)
800083b8:	84a50002 	lh	a1,2(a1)
800083bc:	03e00008 	jr	ra
800083c0:	00851023 	subu	v0,a0,a1
	...

800083d0 <copy_info>:
copy_info():
800083d0:	84a30000 	lh	v1,0(a1)
800083d4:	84a20002 	lh	v0,2(a1)
800083d8:	a4830000 	sh	v1,0(a0)
800083dc:	03e00008 	jr	ra
800083e0:	a4820002 	sh	v0,2(a0)
	...

800083f0 <core_bench_list>:
core_bench_list():
800083f0:	848c0004 	lh	t4,4(a0)
800083f4:	27bdffa0 	addiu	sp,sp,-96
800083f8:	afbe0058 	sw	s8,88(sp)
800083fc:	afb70054 	sw	s7,84(sp)
80008400:	8c9e0024 	lw	s8,36(a0)
80008404:	afbf005c 	sw	ra,92(sp)
80008408:	afb60050 	sw	s6,80(sp)
8000840c:	afb5004c 	sw	s5,76(sp)
80008410:	afb40048 	sw	s4,72(sp)
80008414:	afb30044 	sw	s3,68(sp)
80008418:	afb20040 	sw	s2,64(sp)
8000841c:	afb1003c 	sw	s1,60(sp)
80008420:	afb00038 	sw	s0,56(sp)
80008424:	0080b825 	move	s7,a0
80008428:	afa0002c 	sw	zero,44(sp)
8000842c:	1980030e 	blez	t4,80009068 <core_bench_list+0xc78>
80008430:	afa50024 	sw	a1,36(sp)
80008434:	00004825 	move	t1,zero
80008438:	00006825 	move	t5,zero
8000843c:	00005825 	move	t3,zero
80008440:	00007025 	move	t6,zero
80008444:	8fa30024 	lw	v1,36(sp)
80008448:	312200ff 	andi	v0,t1,0xff
8000844c:	0460017c 	bltz	v1,80008a40 <core_bench_list+0x650>
80008450:	afa2002c 	sw	v0,44(sp)
80008454:	13c00309 	beqz	s8,8000907c <core_bench_list+0xc8c>
80008458:	03c05025 	move	t2,s8
8000845c:	10000008 	b	80008480 <core_bench_list+0x90>
80008460:	00000000 	nop
	...
80008470:	8d4a0000 	lw	t2,0(t2)
80008474:	00000000 	nop
80008478:	11400007 	beqz	t2,80008498 <core_bench_list+0xa8>
8000847c:	00000000 	nop
80008480:	8d480004 	lw	t0,4(t2)
80008484:	8fb00024 	lw	s0,36(sp)
80008488:	850f0002 	lh	t7,2(t0)
8000848c:	00000000 	nop
80008490:	15f0fff7 	bne	t7,s0,80008470 <core_bench_list+0x80>
80008494:	00000000 	nop
80008498:	8fd10000 	lw	s1,0(s8)
8000849c:	00001025 	move	v0,zero
800084a0:	12200029 	beqz	s1,80008548 <core_bench_list+0x158>
800084a4:	afc20000 	sw	v0,0(s8)
800084a8:	8e320000 	lw	s2,0(s1)
800084ac:	03c01025 	move	v0,s8
800084b0:	ae3e0000 	sw	s8,0(s1)
800084b4:	12400024 	beqz	s2,80008548 <core_bench_list+0x158>
800084b8:	0220f025 	move	s8,s1
800084bc:	8e530000 	lw	s3,0(s2)
800084c0:	02201025 	move	v0,s1
800084c4:	ae510000 	sw	s1,0(s2)
800084c8:	1260001f 	beqz	s3,80008548 <core_bench_list+0x158>
800084cc:	0240f025 	move	s8,s2
800084d0:	8e740000 	lw	s4,0(s3)
800084d4:	02401025 	move	v0,s2
800084d8:	ae720000 	sw	s2,0(s3)
800084dc:	1280001a 	beqz	s4,80008548 <core_bench_list+0x158>
800084e0:	0260f025 	move	s8,s3
800084e4:	8e950000 	lw	s5,0(s4)
800084e8:	02601025 	move	v0,s3
800084ec:	ae930000 	sw	s3,0(s4)
800084f0:	12a00015 	beqz	s5,80008548 <core_bench_list+0x158>
800084f4:	0280f025 	move	s8,s4
800084f8:	8eb60000 	lw	s6,0(s5)
800084fc:	02801025 	move	v0,s4
80008500:	aeb40000 	sw	s4,0(s5)
80008504:	12c00010 	beqz	s6,80008548 <core_bench_list+0x158>
80008508:	02a0f025 	move	s8,s5
8000850c:	8ed80000 	lw	t8,0(s6)
80008510:	02a01025 	move	v0,s5
80008514:	aed50000 	sw	s5,0(s6)
80008518:	1300000b 	beqz	t8,80008548 <core_bench_list+0x158>
8000851c:	02c0f025 	move	s8,s6
80008520:	8f190000 	lw	t9,0(t8)
80008524:	02c01025 	move	v0,s6
80008528:	af160000 	sw	s6,0(t8)
8000852c:	13200006 	beqz	t9,80008548 <core_bench_list+0x158>
80008530:	0300f025 	move	s8,t8
80008534:	0320f025 	move	s8,t9
80008538:	8fd10000 	lw	s1,0(s8)
8000853c:	03001025 	move	v0,t8
80008540:	1620ffd9 	bnez	s1,800084a8 <core_bench_list+0xb8>
80008544:	afc20000 	sw	v0,0(s8)
80008548:	1140014d 	beqz	t2,80008a80 <core_bench_list+0x690>
8000854c:	25b00001 	addiu	s0,t5,1
80008550:	8d5f0004 	lw	ra,4(t2)
80008554:	256b0001 	addiu	t3,t3,1
80008558:	87e20000 	lh	v0,0(ra)
8000855c:	00000000 	nop
80008560:	30430001 	andi	v1,v0,0x1
80008564:	10600005 	beqz	v1,8000857c <core_bench_list+0x18c>
80008568:	316bffff 	andi	t3,t3,0xffff
8000856c:	00022243 	sra	a0,v0,0x9
80008570:	30860001 	andi	a2,a0,0x1
80008574:	01c67021 	addu	t6,t6,a2
80008578:	31ceffff 	andi	t6,t6,0xffff
8000857c:	8d470000 	lw	a3,0(t2)
80008580:	00000000 	nop
80008584:	10e00008 	beqz	a3,800085a8 <core_bench_list+0x1b8>
80008588:	00000000 	nop
8000858c:	8ce80000 	lw	t0,0(a3)
80008590:	00000000 	nop
80008594:	ad480000 	sw	t0,0(t2)
80008598:	8fca0000 	lw	t2,0(s8)
8000859c:	00000000 	nop
800085a0:	acea0000 	sw	t2,0(a3)
800085a4:	afc70000 	sw	a3,0(s8)
800085a8:	8fb40024 	lw	s4,36(sp)
800085ac:	00000000 	nop
800085b0:	06800004 	bltz	s4,800085c4 <core_bench_list+0x1d4>
800085b4:	26950001 	addiu	s5,s4,1
800085b8:	0015b400 	sll	s6,s5,0x10
800085bc:	0016c403 	sra	t8,s6,0x10
800085c0:	afb80024 	sw	t8,36(sp)
800085c4:	25290001 	addiu	t1,t1,1
800085c8:	0009cc00 	sll	t9,t1,0x10
800085cc:	00194c03 	sra	t1,t9,0x10
800085d0:	1589ff9c 	bne	t4,t1,80008444 <core_bench_list+0x54>
800085d4:	00000000 	nop
800085d8:	000b6080 	sll	t4,t3,0x2
800085dc:	018d6823 	subu	t5,t4,t5
800085e0:	01cdf821 	addu	ra,t6,t5
800085e4:	33e2ffff 	andi	v0,ra,0xffff
800085e8:	afa20034 	sw	v0,52(sp)
800085ec:	1ca00187 	bgtz	a1,80008c0c <core_bench_list+0x81c>
800085f0:	24050001 	li	a1,1
800085f4:	8fd70000 	lw	s7,0(s8)
800085f8:	8fad0024 	lw	t5,36(sp)
800085fc:	8ef20000 	lw	s2,0(s7)
80008600:	8ee40004 	lw	a0,4(s7)
80008604:	8e490004 	lw	t1,4(s2)
80008608:	8e4c0000 	lw	t4,0(s2)
8000860c:	03c09825 	move	s3,s8
80008610:	aee90004 	sw	t1,4(s7)
80008614:	ae440004 	sw	a0,4(s2)
80008618:	aeec0000 	sw	t4,0(s7)
8000861c:	05a000e0 	bltz	t5,800089a0 <core_bench_list+0x5b0>
80008620:	ae400000 	sw	zero,0(s2)
80008624:	8e6b0004 	lw	t3,4(s3)
80008628:	8fa30024 	lw	v1,36(sp)
8000862c:	85660002 	lh	a2,2(t3)
80008630:	00000000 	nop
80008634:	10c30009 	beq	a2,v1,8000865c <core_bench_list+0x26c>
80008638:	00000000 	nop
8000863c:	8e730000 	lw	s3,0(s3)
80008640:	00000000 	nop
80008644:	1660fff7 	bnez	s3,80008624 <core_bench_list+0x234>
80008648:	00000000 	nop
8000864c:	8fd30000 	lw	s3,0(s8)
80008650:	00000000 	nop
80008654:	1260004b 	beqz	s3,80008784 <core_bench_list+0x394>
80008658:	00000000 	nop
8000865c:	8fce0004 	lw	t6,4(s8)
80008660:	8fa50034 	lw	a1,52(sp)
80008664:	85c40000 	lh	a0,0(t6)
80008668:	0c001f5c 	jal	80007d70 <crc16>
8000866c:	00000000 	nop
80008670:	8e700000 	lw	s0,0(s3)
80008674:	00000000 	nop
80008678:	12000040 	beqz	s0,8000877c <core_bench_list+0x38c>
8000867c:	afa20034 	sw	v0,52(sp)
80008680:	8fc70004 	lw	a3,4(s8)
80008684:	00000000 	nop
80008688:	84e40000 	lh	a0,0(a3)
8000868c:	0c001f5c 	jal	80007d70 <crc16>
80008690:	00402825 	move	a1,v0
80008694:	8e130000 	lw	s3,0(s0)
80008698:	00402825 	move	a1,v0
8000869c:	12600037 	beqz	s3,8000877c <core_bench_list+0x38c>
800086a0:	afa20034 	sw	v0,52(sp)
800086a4:	8fc80004 	lw	t0,4(s8)
800086a8:	00000000 	nop
800086ac:	85040000 	lh	a0,0(t0)
800086b0:	0c001f5c 	jal	80007d70 <crc16>
800086b4:	00000000 	nop
800086b8:	8e740000 	lw	s4,0(s3)
800086bc:	00402825 	move	a1,v0
800086c0:	1280002e 	beqz	s4,8000877c <core_bench_list+0x38c>
800086c4:	afa20034 	sw	v0,52(sp)
800086c8:	8fca0004 	lw	t2,4(s8)
800086cc:	00000000 	nop
800086d0:	85440000 	lh	a0,0(t2)
800086d4:	0c001f5c 	jal	80007d70 <crc16>
800086d8:	00000000 	nop
800086dc:	8e960000 	lw	s6,0(s4)
800086e0:	00402825 	move	a1,v0
800086e4:	12c00025 	beqz	s6,8000877c <core_bench_list+0x38c>
800086e8:	afa20034 	sw	v0,52(sp)
800086ec:	8fcf0004 	lw	t7,4(s8)
800086f0:	00000000 	nop
800086f4:	85e40000 	lh	a0,0(t7)
800086f8:	0c001f5c 	jal	80007d70 <crc16>
800086fc:	00000000 	nop
80008700:	8ed10000 	lw	s1,0(s6)
80008704:	00402825 	move	a1,v0
80008708:	1220001c 	beqz	s1,8000877c <core_bench_list+0x38c>
8000870c:	afa20034 	sw	v0,52(sp)
80008710:	8fd80004 	lw	t8,4(s8)
80008714:	00000000 	nop
80008718:	87040000 	lh	a0,0(t8)
8000871c:	0c001f5c 	jal	80007d70 <crc16>
80008720:	00000000 	nop
80008724:	8e350000 	lw	s5,0(s1)
80008728:	00402825 	move	a1,v0
8000872c:	12a00013 	beqz	s5,8000877c <core_bench_list+0x38c>
80008730:	afa20034 	sw	v0,52(sp)
80008734:	8fd90004 	lw	t9,4(s8)
80008738:	00000000 	nop
8000873c:	87240000 	lh	a0,0(t9)
80008740:	0c001f5c 	jal	80007d70 <crc16>
80008744:	00000000 	nop
80008748:	8eb70000 	lw	s7,0(s5)
8000874c:	00402825 	move	a1,v0
80008750:	12e0000a 	beqz	s7,8000877c <core_bench_list+0x38c>
80008754:	afa20034 	sw	v0,52(sp)
80008758:	8fc90004 	lw	t1,4(s8)
8000875c:	00000000 	nop
80008760:	85240000 	lh	a0,0(t1)
80008764:	0c001f5c 	jal	80007d70 <crc16>
80008768:	00000000 	nop
8000876c:	8ef30000 	lw	s3,0(s7)
80008770:	00000000 	nop
80008774:	1660ffb9 	bnez	s3,8000865c <core_bench_list+0x26c>
80008778:	afa20034 	sw	v0,52(sp)
8000877c:	8fd30000 	lw	s3,0(s8)
80008780:	8e440004 	lw	a0,4(s2)
80008784:	8e6d0000 	lw	t5,0(s3)
80008788:	8e6c0004 	lw	t4,4(s3)
8000878c:	240a0001 	li	t2,1
80008790:	ae4c0004 	sw	t4,4(s2)
80008794:	00005825 	move	t3,zero
80008798:	ae640004 	sw	a0,4(s3)
8000879c:	00008025 	move	s0,zero
800087a0:	ae4d0000 	sw	t5,0(s2)
800087a4:	00008825 	move	s1,zero
800087a8:	ae720000 	sw	s2,0(s3)
800087ac:	240dff00 	li	t5,-256
800087b0:	240e0001 	li	t6,1
800087b4:	315f0007 	andi	ra,t2,0x7
800087b8:	26310001 	addiu	s1,s1,1
800087bc:	03c01025 	move	v0,s8
800087c0:	13e0002c 	beqz	ra,80008874 <core_bench_list+0x484>
800087c4:	00002025 	move	a0,zero
800087c8:	24050001 	li	a1,1
800087cc:	13e50023 	beq	ra,a1,8000885c <core_bench_list+0x46c>
800087d0:	24060002 	li	a2,2
800087d4:	13e6001d 	beq	ra,a2,8000884c <core_bench_list+0x45c>
800087d8:	24030003 	li	v1,3
800087dc:	13e30017 	beq	ra,v1,8000883c <core_bench_list+0x44c>
800087e0:	24120004 	li	s2,4
800087e4:	13f20011 	beq	ra,s2,8000882c <core_bench_list+0x43c>
800087e8:	24070005 	li	a3,5
800087ec:	13e7000b 	beq	ra,a3,8000881c <core_bench_list+0x42c>
800087f0:	24080006 	li	t0,6
800087f4:	13e80005 	beq	ra,t0,8000880c <core_bench_list+0x41c>
800087f8:	00000000 	nop
800087fc:	8fc20000 	lw	v0,0(s8)
80008800:	00000000 	nop
80008804:	1040003b 	beqz	v0,800088f4 <core_bench_list+0x504>
80008808:	24040001 	li	a0,1
8000880c:	8c420000 	lw	v0,0(v0)
80008810:	00000000 	nop
80008814:	10400037 	beqz	v0,800088f4 <core_bench_list+0x504>
80008818:	24840001 	addiu	a0,a0,1
8000881c:	8c420000 	lw	v0,0(v0)
80008820:	00000000 	nop
80008824:	10400033 	beqz	v0,800088f4 <core_bench_list+0x504>
80008828:	24840001 	addiu	a0,a0,1
8000882c:	8c420000 	lw	v0,0(v0)
80008830:	00000000 	nop
80008834:	1040002f 	beqz	v0,800088f4 <core_bench_list+0x504>
80008838:	24840001 	addiu	a0,a0,1
8000883c:	8c420000 	lw	v0,0(v0)
80008840:	00000000 	nop
80008844:	1040002b 	beqz	v0,800088f4 <core_bench_list+0x504>
80008848:	24840001 	addiu	a0,a0,1
8000884c:	8c420000 	lw	v0,0(v0)
80008850:	00000000 	nop
80008854:	10400027 	beqz	v0,800088f4 <core_bench_list+0x504>
80008858:	24840001 	addiu	a0,a0,1
8000885c:	8c420000 	lw	v0,0(v0)
80008860:	00000000 	nop
80008864:	10400023 	beqz	v0,800088f4 <core_bench_list+0x504>
80008868:	24840001 	addiu	a0,a0,1
8000886c:	11440064 	beq	t2,a0,80008a00 <core_bench_list+0x610>
80008870:	00000000 	nop
80008874:	8c420000 	lw	v0,0(v0)
80008878:	24840001 	addiu	a0,a0,1
8000887c:	1040001d 	beqz	v0,800088f4 <core_bench_list+0x504>
80008880:	0080a025 	move	s4,a0
80008884:	8c420000 	lw	v0,0(v0)
80008888:	00000000 	nop
8000888c:	10400019 	beqz	v0,800088f4 <core_bench_list+0x504>
80008890:	24840001 	addiu	a0,a0,1
80008894:	8c420000 	lw	v0,0(v0)
80008898:	00000000 	nop
8000889c:	10400015 	beqz	v0,800088f4 <core_bench_list+0x504>
800088a0:	26840002 	addiu	a0,s4,2
800088a4:	8c420000 	lw	v0,0(v0)
800088a8:	00000000 	nop
800088ac:	10400011 	beqz	v0,800088f4 <core_bench_list+0x504>
800088b0:	26840003 	addiu	a0,s4,3
800088b4:	8c420000 	lw	v0,0(v0)
800088b8:	00000000 	nop
800088bc:	1040000d 	beqz	v0,800088f4 <core_bench_list+0x504>
800088c0:	26840004 	addiu	a0,s4,4
800088c4:	8c420000 	lw	v0,0(v0)
800088c8:	00000000 	nop
800088cc:	10400009 	beqz	v0,800088f4 <core_bench_list+0x504>
800088d0:	26840005 	addiu	a0,s4,5
800088d4:	8c420000 	lw	v0,0(v0)
800088d8:	00000000 	nop
800088dc:	10400005 	beqz	v0,800088f4 <core_bench_list+0x504>
800088e0:	26840006 	addiu	a0,s4,6
800088e4:	8c420000 	lw	v0,0(v0)
800088e8:	00000000 	nop
800088ec:	1440ffdf 	bnez	v0,8000886c <core_bench_list+0x47c>
800088f0:	26840007 	addiu	a0,s4,7
800088f4:	10800020 	beqz	a0,80008978 <core_bench_list+0x588>
800088f8:	01403025 	move	a2,t2
800088fc:	10c00038 	beqz	a2,800089e0 <core_bench_list+0x5f0>
80008900:	03c0b025 	move	s6,s8
80008904:	10400036 	beqz	v0,800089e0 <core_bench_list+0x5f0>
80008908:	00000000 	nop
8000890c:	8fdf0004 	lw	ra,4(s8)
80008910:	8c430004 	lw	v1,4(v0)
80008914:	87e50000 	lh	a1,0(ra)
80008918:	87e70002 	lh	a3,2(ra)
8000891c:	30a8ffff 	andi	t0,a1,0xffff
80008920:	00ada824 	and	s5,a1,t5
80008924:	00087a02 	srl	t7,t0,0x8
80008928:	02afb825 	or	s7,s5,t7
8000892c:	a7f70000 	sh	s7,0(ra)
80008930:	84780000 	lh	t8,0(v1)
80008934:	84730002 	lh	s3,2(v1)
80008938:	3319ffff 	andi	t9,t8,0xffff
8000893c:	030d9024 	and	s2,t8,t5
80008940:	00194a02 	srl	t1,t9,0x8
80008944:	0249a025 	or	s4,s2,t1
80008948:	00f36023 	subu	t4,a3,s3
8000894c:	19800024 	blez	t4,800089e0 <core_bench_list+0x5f0>
80008950:	a4740000 	sh	s4,0(v1)
80008954:	0040b025 	move	s6,v0
80008958:	8c420000 	lw	v0,0(v0)
8000895c:	24c6ffff 	addiu	a2,a2,-1
80008960:	1160000c 	beqz	t3,80008994 <core_bench_list+0x5a4>
80008964:	00000000 	nop
80008968:	ad760000 	sw	s6,0(t3)
8000896c:	02c05825 	move	t3,s6
80008970:	1480ffe2 	bnez	a0,800088fc <core_bench_list+0x50c>
80008974:	00000000 	nop
80008978:	10c0001d 	beqz	a2,800089f0 <core_bench_list+0x600>
8000897c:	00000000 	nop
80008980:	10400023 	beqz	v0,80008a10 <core_bench_list+0x620>
80008984:	0040b025 	move	s6,v0
80008988:	8c420000 	lw	v0,0(v0)
8000898c:	1560fff6 	bnez	t3,80008968 <core_bench_list+0x578>
80008990:	24c6ffff 	addiu	a2,a2,-1
80008994:	02c08025 	move	s0,s6
80008998:	1000fff5 	b	80008970 <core_bench_list+0x580>
8000899c:	02c05825 	move	t3,s6
800089a0:	8e7f0004 	lw	ra,4(s3)
800089a4:	8fa5002c 	lw	a1,44(sp)
800089a8:	93e20000 	lbu	v0,0(ra)
800089ac:	00000000 	nop
800089b0:	1045ff2a 	beq	v0,a1,8000865c <core_bench_list+0x26c>
800089b4:	00000000 	nop
800089b8:	8e730000 	lw	s3,0(s3)
800089bc:	00000000 	nop
800089c0:	1660fff7 	bnez	s3,800089a0 <core_bench_list+0x5b0>
800089c4:	00000000 	nop
800089c8:	8fd30000 	lw	s3,0(s8)
800089cc:	00000000 	nop
800089d0:	1660ff22 	bnez	s3,8000865c <core_bench_list+0x26c>
800089d4:	00000000 	nop
800089d8:	1000ff6a 	b	80008784 <core_bench_list+0x394>
800089dc:	00000000 	nop
800089e0:	8fde0000 	lw	s8,0(s8)
800089e4:	1000ffde 	b	80008960 <core_bench_list+0x570>
800089e8:	2484ffff 	addiu	a0,a0,-1
800089ec:	00000000 	nop
800089f0:	10400007 	beqz	v0,80008a10 <core_bench_list+0x620>
800089f4:	0040f025 	move	s8,v0
800089f8:	1000ff6f 	b	800087b8 <core_bench_list+0x3c8>
800089fc:	315f0007 	andi	ra,t2,0x7
80008a00:	1000ffbc 	b	800088f4 <core_bench_list+0x504>
80008a04:	01402025 	move	a0,t2
	...
80008a10:	122e0025 	beq	s1,t6,80008aa8 <core_bench_list+0x6b8>
80008a14:	ad600000 	sw	zero,0(t3)
80008a18:	12000021 	beqz	s0,80008aa0 <core_bench_list+0x6b0>
80008a1c:	000a5040 	sll	t2,t2,0x1
80008a20:	02001025 	move	v0,s0
80008a24:	00008825 	move	s1,zero
80008a28:	00005825 	move	t3,zero
80008a2c:	00008025 	move	s0,zero
80008a30:	1000ff60 	b	800087b4 <core_bench_list+0x3c4>
80008a34:	0040f025 	move	s8,v0
	...
80008a40:	13c0018e 	beqz	s8,8000907c <core_bench_list+0xc8c>
80008a44:	03c05025 	move	t2,s8
80008a48:	10000005 	b	80008a60 <core_bench_list+0x670>
80008a4c:	00000000 	nop
80008a50:	8d4a0000 	lw	t2,0(t2)
80008a54:	00000000 	nop
80008a58:	1140fe8f 	beqz	t2,80008498 <core_bench_list+0xa8>
80008a5c:	00000000 	nop
80008a60:	8d440004 	lw	a0,4(t2)
80008a64:	8fa7002c 	lw	a3,44(sp)
80008a68:	90860000 	lbu	a2,0(a0)
80008a6c:	00000000 	nop
80008a70:	14c7fff7 	bne	a2,a3,80008a50 <core_bench_list+0x660>
80008a74:	00000000 	nop
80008a78:	1000fe87 	b	80008498 <core_bench_list+0xa8>
80008a7c:	00000000 	nop
80008a80:	8c4f0004 	lw	t7,4(v0)
80008a84:	00000000 	nop
80008a88:	81f10001 	lb	s1,1(t7)
80008a8c:	320dffff 	andi	t5,s0,0xffff
80008a90:	32320001 	andi	s2,s1,0x1
80008a94:	01d29821 	addu	s3,t6,s2
80008a98:	1000fec3 	b	800085a8 <core_bench_list+0x1b8>
80008a9c:	326effff 	andi	t6,s3,0xffff
80008aa0:	ac000000 	sw	zero,0(zero)
80008aa4:	0000000d 	break
80008aa8:	8e160000 	lw	s6,0(s0)
80008aac:	00000000 	nop
80008ab0:	12c00049 	beqz	s6,80008bd8 <core_bench_list+0x7e8>
80008ab4:	00000000 	nop
80008ab8:	8e1e0004 	lw	s8,4(s0)
80008abc:	8fa50034 	lw	a1,52(sp)
80008ac0:	87c40000 	lh	a0,0(s8)
80008ac4:	0c001f5c 	jal	80007d70 <crc16>
80008ac8:	00000000 	nop
80008acc:	8ed60000 	lw	s6,0(s6)
80008ad0:	00000000 	nop
80008ad4:	12c00040 	beqz	s6,80008bd8 <core_bench_list+0x7e8>
80008ad8:	afa20034 	sw	v0,52(sp)
80008adc:	8e0b0004 	lw	t3,4(s0)
80008ae0:	00000000 	nop
80008ae4:	85640000 	lh	a0,0(t3)
80008ae8:	0c001f5c 	jal	80007d70 <crc16>
80008aec:	00402825 	move	a1,v0
80008af0:	8ed10000 	lw	s1,0(s6)
80008af4:	00402825 	move	a1,v0
80008af8:	12200037 	beqz	s1,80008bd8 <core_bench_list+0x7e8>
80008afc:	afa20034 	sw	v0,52(sp)
80008b00:	8e0e0004 	lw	t6,4(s0)
80008b04:	00000000 	nop
80008b08:	85c40000 	lh	a0,0(t6)
80008b0c:	0c001f5c 	jal	80007d70 <crc16>
80008b10:	00000000 	nop
80008b14:	8e350000 	lw	s5,0(s1)
80008b18:	00402825 	move	a1,v0
80008b1c:	12a0002e 	beqz	s5,80008bd8 <core_bench_list+0x7e8>
80008b20:	afa20034 	sw	v0,52(sp)
80008b24:	8e0f0004 	lw	t7,4(s0)
80008b28:	00000000 	nop
80008b2c:	85e40000 	lh	a0,0(t7)
80008b30:	0c001f5c 	jal	80007d70 <crc16>
80008b34:	00000000 	nop
80008b38:	8eb70000 	lw	s7,0(s5)
80008b3c:	00402825 	move	a1,v0
80008b40:	12e00025 	beqz	s7,80008bd8 <core_bench_list+0x7e8>
80008b44:	afa20034 	sw	v0,52(sp)
80008b48:	8e180004 	lw	t8,4(s0)
80008b4c:	00000000 	nop
80008b50:	87040000 	lh	a0,0(t8)
80008b54:	0c001f5c 	jal	80007d70 <crc16>
80008b58:	00000000 	nop
80008b5c:	8ef30000 	lw	s3,0(s7)
80008b60:	00402825 	move	a1,v0
80008b64:	1260001c 	beqz	s3,80008bd8 <core_bench_list+0x7e8>
80008b68:	afa20034 	sw	v0,52(sp)
80008b6c:	8e190004 	lw	t9,4(s0)
80008b70:	00000000 	nop
80008b74:	87240000 	lh	a0,0(t9)
80008b78:	0c001f5c 	jal	80007d70 <crc16>
80008b7c:	00000000 	nop
80008b80:	8e720000 	lw	s2,0(s3)
80008b84:	00402825 	move	a1,v0
80008b88:	12400013 	beqz	s2,80008bd8 <core_bench_list+0x7e8>
80008b8c:	afa20034 	sw	v0,52(sp)
80008b90:	8e090004 	lw	t1,4(s0)
80008b94:	00000000 	nop
80008b98:	85240000 	lh	a0,0(t1)
80008b9c:	0c001f5c 	jal	80007d70 <crc16>
80008ba0:	00000000 	nop
80008ba4:	8e540000 	lw	s4,0(s2)
80008ba8:	00402825 	move	a1,v0
80008bac:	1280000a 	beqz	s4,80008bd8 <core_bench_list+0x7e8>
80008bb0:	afa20034 	sw	v0,52(sp)
80008bb4:	8e0c0004 	lw	t4,4(s0)
80008bb8:	00000000 	nop
80008bbc:	85840000 	lh	a0,0(t4)
80008bc0:	0c001f5c 	jal	80007d70 <crc16>
80008bc4:	00000000 	nop
80008bc8:	8e960000 	lw	s6,0(s4)
80008bcc:	00000000 	nop
80008bd0:	16c0ffb9 	bnez	s6,80008ab8 <core_bench_list+0x6c8>
80008bd4:	afa20034 	sw	v0,52(sp)
80008bd8:	8fbf005c 	lw	ra,92(sp)
80008bdc:	8fa20034 	lw	v0,52(sp)
80008be0:	8fbe0058 	lw	s8,88(sp)
80008be4:	8fb70054 	lw	s7,84(sp)
80008be8:	8fb60050 	lw	s6,80(sp)
80008bec:	8fb5004c 	lw	s5,76(sp)
80008bf0:	8fb40048 	lw	s4,72(sp)
80008bf4:	8fb30044 	lw	s3,68(sp)
80008bf8:	8fb20040 	lw	s2,64(sp)
80008bfc:	8fb1003c 	lw	s1,60(sp)
80008c00:	8fb00038 	lw	s0,56(sp)
80008c04:	03e00008 	jr	ra
80008c08:	27bd0060 	addiu	sp,sp,96
80008c0c:	26eb0028 	addiu	t3,s7,40
80008c10:	afa5001c 	sw	a1,28(sp)
80008c14:	afab0030 	sw	t3,48(sp)
80008c18:	13c0ffa1 	beqz	s8,80008aa0 <core_bench_list+0x6b0>
80008c1c:	00008825 	move	s1,zero
80008c20:	afa00020 	sw	zero,32(sp)
80008c24:	afa00028 	sw	zero,40(sp)
80008c28:	8fa60028 	lw	a2,40(sp)
80008c2c:	8fa3001c 	lw	v1,28(sp)
80008c30:	24ce0001 	addiu	t6,a2,1
80008c34:	30640007 	andi	a0,v1,0x7
80008c38:	afae0028 	sw	t6,40(sp)
80008c3c:	03c0c025 	move	t8,s8
80008c40:	1080002e 	beqz	a0,80008cfc <core_bench_list+0x90c>
80008c44:	0000b025 	move	s6,zero
80008c48:	24070001 	li	a3,1
80008c4c:	10870023 	beq	a0,a3,80008cdc <core_bench_list+0x8ec>
80008c50:	24080002 	li	t0,2
80008c54:	1088001d 	beq	a0,t0,80008ccc <core_bench_list+0x8dc>
80008c58:	240a0003 	li	t2,3
80008c5c:	108a0017 	beq	a0,t2,80008cbc <core_bench_list+0x8cc>
80008c60:	240f0004 	li	t7,4
80008c64:	108f0011 	beq	a0,t7,80008cac <core_bench_list+0x8bc>
80008c68:	24100005 	li	s0,5
80008c6c:	1090000b 	beq	a0,s0,80008c9c <core_bench_list+0x8ac>
80008c70:	24120006 	li	s2,6
80008c74:	10920005 	beq	a0,s2,80008c8c <core_bench_list+0x89c>
80008c78:	00000000 	nop
80008c7c:	8fd80000 	lw	t8,0(s8)
80008c80:	00000000 	nop
80008c84:	1300003d 	beqz	t8,80008d7c <core_bench_list+0x98c>
80008c88:	24160001 	li	s6,1
80008c8c:	8f180000 	lw	t8,0(t8)
80008c90:	00000000 	nop
80008c94:	13000039 	beqz	t8,80008d7c <core_bench_list+0x98c>
80008c98:	26d60001 	addiu	s6,s6,1
80008c9c:	8f180000 	lw	t8,0(t8)
80008ca0:	00000000 	nop
80008ca4:	13000035 	beqz	t8,80008d7c <core_bench_list+0x98c>
80008ca8:	26d60001 	addiu	s6,s6,1
80008cac:	8f180000 	lw	t8,0(t8)
80008cb0:	00000000 	nop
80008cb4:	13000031 	beqz	t8,80008d7c <core_bench_list+0x98c>
80008cb8:	26d60001 	addiu	s6,s6,1
80008cbc:	8f180000 	lw	t8,0(t8)
80008cc0:	00000000 	nop
80008cc4:	1300002d 	beqz	t8,80008d7c <core_bench_list+0x98c>
80008cc8:	26d60001 	addiu	s6,s6,1
80008ccc:	8f180000 	lw	t8,0(t8)
80008cd0:	00000000 	nop
80008cd4:	13000029 	beqz	t8,80008d7c <core_bench_list+0x98c>
80008cd8:	26d60001 	addiu	s6,s6,1
80008cdc:	8f180000 	lw	t8,0(t8)
80008ce0:	00000000 	nop
80008ce4:	13000025 	beqz	t8,80008d7c <core_bench_list+0x98c>
80008ce8:	26d60001 	addiu	s6,s6,1
80008cec:	8fb3001c 	lw	s3,28(sp)
80008cf0:	00000000 	nop
80008cf4:	12d30021 	beq	s6,s3,80008d7c <core_bench_list+0x98c>
80008cf8:	00000000 	nop
80008cfc:	8f180000 	lw	t8,0(t8)
80008d00:	26d60001 	addiu	s6,s6,1
80008d04:	1300001d 	beqz	t8,80008d7c <core_bench_list+0x98c>
80008d08:	02c0a025 	move	s4,s6
80008d0c:	8f180000 	lw	t8,0(t8)
80008d10:	00000000 	nop
80008d14:	13000019 	beqz	t8,80008d7c <core_bench_list+0x98c>
80008d18:	26d60001 	addiu	s6,s6,1
80008d1c:	8f180000 	lw	t8,0(t8)
80008d20:	00000000 	nop
80008d24:	13000015 	beqz	t8,80008d7c <core_bench_list+0x98c>
80008d28:	26960002 	addiu	s6,s4,2
80008d2c:	8f180000 	lw	t8,0(t8)
80008d30:	00000000 	nop
80008d34:	13000011 	beqz	t8,80008d7c <core_bench_list+0x98c>
80008d38:	26960003 	addiu	s6,s4,3
80008d3c:	8f180000 	lw	t8,0(t8)
80008d40:	00000000 	nop
80008d44:	1300000d 	beqz	t8,80008d7c <core_bench_list+0x98c>
80008d48:	26960004 	addiu	s6,s4,4
80008d4c:	8f180000 	lw	t8,0(t8)
80008d50:	00000000 	nop
80008d54:	13000009 	beqz	t8,80008d7c <core_bench_list+0x98c>
80008d58:	26960005 	addiu	s6,s4,5
80008d5c:	8f180000 	lw	t8,0(t8)
80008d60:	00000000 	nop
80008d64:	13000005 	beqz	t8,80008d7c <core_bench_list+0x98c>
80008d68:	26960006 	addiu	s6,s4,6
80008d6c:	8f180000 	lw	t8,0(t8)
80008d70:	00000000 	nop
80008d74:	1700ffdd 	bnez	t8,80008cec <core_bench_list+0x8fc>
80008d78:	26960007 	addiu	s6,s4,7
80008d7c:	03c0a025 	move	s4,s8
80008d80:	8fb5001c 	lw	s5,28(sp)
80008d84:	12c0001f 	beqz	s6,80008e04 <core_bench_list+0xa14>
80008d88:	0300f025 	move	s8,t8
80008d8c:	12a00028 	beqz	s5,80008e30 <core_bench_list+0xa40>
80008d90:	02809825 	move	s3,s4
80008d94:	13c00026 	beqz	s8,80008e30 <core_bench_list+0xa40>
80008d98:	00000000 	nop
80008d9c:	8e900004 	lw	s0,4(s4)
80008da0:	8fd20004 	lw	s2,4(s8)
80008da4:	86090000 	lh	t1,0(s0)
80008da8:	00000000 	nop
80008dac:	31220080 	andi	v0,t1,0x80
80008db0:	1040003b 	beqz	v0,80008ea0 <core_bench_list+0xab0>
80008db4:	000920c3 	sra	a0,t1,0x3
80008db8:	3133007f 	andi	s3,t1,0x7f
80008dbc:	864b0000 	lh	t3,0(s2)
80008dc0:	00000000 	nop
80008dc4:	31700080 	andi	s0,t3,0x80
80008dc8:	1200001d 	beqz	s0,80008e40 <core_bench_list+0xa50>
80008dcc:	000b10c3 	sra	v0,t3,0x3
80008dd0:	3164007f 	andi	a0,t3,0x7f
80008dd4:	02649023 	subu	s2,s3,a0
80008dd8:	1a400015 	blez	s2,80008e30 <core_bench_list+0xa40>
80008ddc:	02809825 	move	s3,s4
80008de0:	03c09825 	move	s3,s8
80008de4:	8fde0000 	lw	s8,0(s8)
80008de8:	26b5ffff 	addiu	s5,s5,-1
80008dec:	1220000c 	beqz	s1,80008e20 <core_bench_list+0xa30>
80008df0:	00000000 	nop
80008df4:	ae330000 	sw	s3,0(s1)
80008df8:	02608825 	move	s1,s3
80008dfc:	16c0ffe3 	bnez	s6,80008d8c <core_bench_list+0x99c>
80008e00:	00000000 	nop
80008e04:	12a0003e 	beqz	s5,80008f00 <core_bench_list+0xb10>
80008e08:	00000000 	nop
80008e0c:	13c0003e 	beqz	s8,80008f08 <core_bench_list+0xb18>
80008e10:	03c09825 	move	s3,s8
80008e14:	8fde0000 	lw	s8,0(s8)
80008e18:	1620fff6 	bnez	s1,80008df4 <core_bench_list+0xa04>
80008e1c:	26b5ffff 	addiu	s5,s5,-1
80008e20:	afb30020 	sw	s3,32(sp)
80008e24:	1000fff5 	b	80008dfc <core_bench_list+0xa0c>
80008e28:	02608825 	move	s1,s3
80008e2c:	00000000 	nop
80008e30:	8e940000 	lw	s4,0(s4)
80008e34:	1000ffed 	b	80008dec <core_bench_list+0x9fc>
80008e38:	26d6ffff 	addiu	s6,s6,-1
80008e3c:	00000000 	nop
80008e40:	305f000f 	andi	ra,v0,0xf
80008e44:	001f1900 	sll	v1,ra,0x4
80008e48:	31680007 	andi	t0,t3,0x7
80008e4c:	96ea0038 	lhu	t2,56(s7)
80008e50:	11000047 	beqz	t0,80008f70 <core_bench_list+0xb80>
80008e54:	03e37825 	or	t7,ra,v1
80008e58:	240c0001 	li	t4,1
80008e5c:	110c0034 	beq	t0,t4,80008f30 <core_bench_list+0xb40>
80008e60:	01403025 	move	a2,t2
80008e64:	3164ffff 	andi	a0,t3,0xffff
80008e68:	01608025 	move	s0,t3
80008e6c:	01402825 	move	a1,t2
80008e70:	0c001e04 	jal	80007810 <crcu16>
80008e74:	afab0018 	sw	t3,24(sp)
80008e78:	8fa30018 	lw	v1,24(sp)
80008e7c:	240eff00 	li	t6,-256
80008e80:	3204007f 	andi	a0,s0,0x7f
80008e84:	006e4024 	and	t0,v1,t6
80008e88:	00886825 	or	t5,a0,t0
80008e8c:	35af0080 	ori	t7,t5,0x80
80008e90:	a6e20038 	sh	v0,56(s7)
80008e94:	1000ffcf 	b	80008dd4 <core_bench_list+0x9e4>
80008e98:	a64f0000 	sh	t7,0(s2)
80008e9c:	00000000 	nop
80008ea0:	308a000f 	andi	t2,a0,0xf
80008ea4:	000a7100 	sll	t6,t2,0x4
80008ea8:	313f0007 	andi	ra,t1,0x7
80008eac:	96ec0038 	lhu	t4,56(s7)
80008eb0:	13e00057 	beqz	ra,80009010 <core_bench_list+0xc20>
80008eb4:	014e4025 	or	t0,t2,t6
80008eb8:	24180001 	li	t8,1
80008ebc:	13f80044 	beq	ra,t8,80008fd0 <core_bench_list+0xbe0>
80008ec0:	01803025 	move	a2,t4
80008ec4:	3124ffff 	andi	a0,t1,0xffff
80008ec8:	01209825 	move	s3,t1
80008ecc:	01802825 	move	a1,t4
80008ed0:	0c001e04 	jal	80007810 <crcu16>
80008ed4:	afa90018 	sw	t1,24(sp)
80008ed8:	8fab0018 	lw	t3,24(sp)
80008edc:	2406ff00 	li	a2,-256
80008ee0:	3273007f 	andi	s3,s3,0x7f
80008ee4:	01662024 	and	a0,t3,a2
80008ee8:	02645025 	or	t2,s3,a0
80008eec:	354e0080 	ori	t6,t2,0x80
80008ef0:	a6e20038 	sh	v0,56(s7)
80008ef4:	1000ffb1 	b	80008dbc <core_bench_list+0x9cc>
80008ef8:	a60e0000 	sh	t6,0(s0)
80008efc:	00000000 	nop
80008f00:	17c0ff49 	bnez	s8,80008c28 <core_bench_list+0x838>
80008f04:	00000000 	nop
80008f08:	ae200000 	sw	zero,0(s1)
80008f0c:	8fb10028 	lw	s1,40(sp)
80008f10:	241e0001 	li	s8,1
80008f14:	123e0056 	beq	s1,s8,80009070 <core_bench_list+0xc80>
80008f18:	00000000 	nop
80008f1c:	8fb5001c 	lw	s5,28(sp)
80008f20:	8fbe0020 	lw	s8,32(sp)
80008f24:	0015c840 	sll	t9,s5,0x1
80008f28:	1000ff3b 	b	80008c18 <core_bench_list+0x828>
80008f2c:	afb9001c 	sw	t9,28(sp)
80008f30:	8fa40030 	lw	a0,48(sp)
80008f34:	01e02825 	move	a1,t7
80008f38:	0c000498 	jal	80001260 <core_bench_matrix>
80008f3c:	afab0018 	sw	t3,24(sp)
80008f40:	96e6003c 	lhu	a2,60(s7)
80008f44:	00024c00 	sll	t1,v0,0x10
80008f48:	8fab0018 	lw	t3,24(sp)
80008f4c:	96ea0038 	lhu	t2,56(s7)
80008f50:	00402025 	move	a0,v0
80008f54:	14c0ffc5 	bnez	a2,80008e6c <core_bench_list+0xa7c>
80008f58:	00098403 	sra	s0,t1,0x10
80008f5c:	1000ffc3 	b	80008e6c <core_bench_list+0xa7c>
80008f60:	a6e2003c 	sh	v0,60(s7)
	...
80008f70:	29ed0022 	slti	t5,t7,34
80008f74:	86e70002 	lh	a3,2(s7)
80008f78:	86e60000 	lh	a2,0(s7)
80008f7c:	8ee50014 	lw	a1,20(s7)
80008f80:	8ee40018 	lw	a0,24(s7)
80008f84:	11a00002 	beqz	t5,80008f90 <core_bench_list+0xba0>
80008f88:	afaa0014 	sw	t2,20(sp)
80008f8c:	240f0022 	li	t7,34
80008f90:	000fc400 	sll	t8,t7,0x10
80008f94:	0018cc03 	sra	t9,t8,0x10
80008f98:	afb90010 	sw	t9,16(sp)
80008f9c:	0c00162c 	jal	800058b0 <core_bench_state>
80008fa0:	afab0018 	sw	t3,24(sp)
80008fa4:	96e5003e 	lhu	a1,62(s7)
80008fa8:	00023c00 	sll	a3,v0,0x10
80008fac:	8fab0018 	lw	t3,24(sp)
80008fb0:	96ea0038 	lhu	t2,56(s7)
80008fb4:	00402025 	move	a0,v0
80008fb8:	14a0ffac 	bnez	a1,80008e6c <core_bench_list+0xa7c>
80008fbc:	00078403 	sra	s0,a3,0x10
80008fc0:	1000ffaa 	b	80008e6c <core_bench_list+0xa7c>
80008fc4:	a6e2003e 	sh	v0,62(s7)
	...
80008fd0:	8fa40030 	lw	a0,48(sp)
80008fd4:	01002825 	move	a1,t0
80008fd8:	0c000498 	jal	80001260 <core_bench_matrix>
80008fdc:	afa90018 	sw	t1,24(sp)
80008fe0:	96f9003c 	lhu	t9,60(s7)
80008fe4:	00029c00 	sll	s3,v0,0x10
80008fe8:	8fa90018 	lw	t1,24(sp)
80008fec:	96ec0038 	lhu	t4,56(s7)
80008ff0:	00402025 	move	a0,v0
80008ff4:	1720ffb5 	bnez	t9,80008ecc <core_bench_list+0xadc>
80008ff8:	00139c03 	sra	s3,s3,0x10
80008ffc:	1000ffb3 	b	80008ecc <core_bench_list+0xadc>
80009000:	a6e2003c 	sh	v0,60(s7)
	...
80009010:	29030022 	slti	v1,t0,34
80009014:	86e70002 	lh	a3,2(s7)
80009018:	86e60000 	lh	a2,0(s7)
8000901c:	8ee50014 	lw	a1,20(s7)
80009020:	8ee40018 	lw	a0,24(s7)
80009024:	10600002 	beqz	v1,80009030 <core_bench_list+0xc40>
80009028:	afac0014 	sw	t4,20(sp)
8000902c:	24080022 	li	t0,34
80009030:	00086c00 	sll	t5,t0,0x10
80009034:	000d7c03 	sra	t7,t5,0x10
80009038:	afaf0010 	sw	t7,16(sp)
8000903c:	0c00162c 	jal	800058b0 <core_bench_state>
80009040:	afa90018 	sw	t1,24(sp)
80009044:	96e5003e 	lhu	a1,62(s7)
80009048:	00023c00 	sll	a3,v0,0x10
8000904c:	8fa90018 	lw	t1,24(sp)
80009050:	96ec0038 	lhu	t4,56(s7)
80009054:	00402025 	move	a0,v0
80009058:	14a0ff9c 	bnez	a1,80008ecc <core_bench_list+0xadc>
8000905c:	00079c03 	sra	s3,a3,0x10
80009060:	1000ff9a 	b	80008ecc <core_bench_list+0xadc>
80009064:	a6e2003e 	sh	v0,62(s7)
80009068:	1000fd60 	b	800085ec <core_bench_list+0x1fc>
8000906c:	afa00034 	sw	zero,52(sp)
80009070:	8fbe0020 	lw	s8,32(sp)
80009074:	1000fd5f 	b	800085f4 <core_bench_list+0x204>
80009078:	00000000 	nop
8000907c:	8c020000 	lw	v0,0(zero)
80009080:	0000000d 	break
	...

80009090 <core_list_init>:
core_list_init():
80009090:	240a0014 	li	t2,20
80009094:	15400002 	bnez	t2,800090a0 <core_list_init+0x10>
80009098:	008a001b 	divu	zero,a0,t2
8000909c:	0007000d 	break	0x7
800090a0:	24a20010 	addiu	v0,a1,16
800090a4:	24048080 	li	a0,-32640
800090a8:	aca00000 	sw	zero,0(a1)
800090ac:	24a70008 	addiu	a3,a1,8
800090b0:	00001812 	mflo	v1
800090b4:	2469fffe 	addiu	t1,v1,-2
800090b8:	000940c0 	sll	t0,t1,0x3
800090bc:	00a8c821 	addu	t9,a1,t0
800090c0:	00095880 	sll	t3,t1,0x2
800090c4:	0059602b 	sltu	t4,v0,t9
800090c8:	acb90004 	sw	t9,4(a1)
800090cc:	032b4021 	addu	t0,t9,t3
800090d0:	a7200002 	sh	zero,2(t9)
800090d4:	a7240000 	sh	a0,0(t9)
800090d8:	11800179 	beqz	t4,800096c0 <core_list_init+0x630>
800090dc:	272d0004 	addiu	t5,t9,4
800090e0:	27230008 	addiu	v1,t9,8
800090e4:	0068702b 	sltu	t6,v1,t0
800090e8:	11c00175 	beqz	t6,800096c0 <core_list_init+0x630>
800090ec:	240fffff 	li	t7,-1
800090f0:	24187fff 	li	t8,32767
800090f4:	aca00008 	sw	zero,8(a1)
800090f8:	aca70000 	sw	a3,0(a1)
800090fc:	acad000c 	sw	t5,12(a1)
80009100:	a72f0004 	sh	t7,4(t9)
80009104:	a7380006 	sh	t8,6(t9)
80009108:	112000ab 	beqz	t1,800093b8 <core_list_init+0x328>
8000910c:	312a0003 	andi	t2,t1,0x3
80009110:	30cbffff 	andi	t3,a2,0xffff
80009114:	00002025 	move	a0,zero
80009118:	11400049 	beqz	t2,80009240 <core_list_init+0x1b0>
8000911c:	240c7fff 	li	t4,32767
80009120:	240d0001 	li	t5,1
80009124:	114d002d 	beq	t2,t5,800091dc <core_list_init+0x14c>
80009128:	240e0002 	li	t6,2
8000912c:	114e0015 	beq	t2,t6,80009184 <core_list_init+0xf4>
80009130:	244f0008 	addiu	t7,v0,8
80009134:	24580008 	addiu	t8,v0,8
80009138:	0319202b 	sltu	a0,t8,t9
8000913c:	1080000f 	beqz	a0,8000917c <core_list_init+0xec>
80009140:	246f0004 	addiu	t7,v1,4
80009144:	01e8502b 	sltu	t2,t7,t0
80009148:	1140000c 	beqz	t2,8000917c <core_list_init+0xec>
8000914c:	000b68c0 	sll	t5,t3,0x3
80009150:	31a40078 	andi	a0,t5,0x78
80009154:	00047200 	sll	t6,a0,0x8
80009158:	01c45025 	or	t2,t6,a0
8000915c:	ac470000 	sw	a3,0(v0)
80009160:	aca20000 	sw	v0,0(a1)
80009164:	00403825 	move	a3,v0
80009168:	ac430004 	sw	v1,4(v0)
8000916c:	a46a0000 	sh	t2,0(v1)
80009170:	a46c0002 	sh	t4,2(v1)
80009174:	03001025 	move	v0,t8
80009178:	01e01825 	move	v1,t7
8000917c:	24040001 	li	a0,1
80009180:	244f0008 	addiu	t7,v0,8
80009184:	01f9c02b 	sltu	t8,t7,t9
80009188:	13000013 	beqz	t8,800091d8 <core_list_init+0x148>
8000918c:	246d0004 	addiu	t5,v1,4
80009190:	01a8702b 	sltu	t6,t5,t0
80009194:	11c00010 	beqz	t6,800091d8 <core_list_init+0x148>
80009198:	3098ffff 	andi	t8,a0,0xffff
8000919c:	030b5026 	xor	t2,t8,t3
800091a0:	000a70c0 	sll	t6,t2,0x3
800091a4:	31ca0078 	andi	t2,t6,0x78
800091a8:	33180007 	andi	t8,t8,0x7
800091ac:	01585025 	or	t2,t2,t8
800091b0:	000a7200 	sll	t6,t2,0x8
800091b4:	01cac025 	or	t8,t6,t2
800091b8:	ac470000 	sw	a3,0(v0)
800091bc:	aca20000 	sw	v0,0(a1)
800091c0:	00403825 	move	a3,v0
800091c4:	ac430004 	sw	v1,4(v0)
800091c8:	a4780000 	sh	t8,0(v1)
800091cc:	a46c0002 	sh	t4,2(v1)
800091d0:	01e01025 	move	v0,t7
800091d4:	01a01825 	move	v1,t5
800091d8:	24840001 	addiu	a0,a0,1
800091dc:	244f0008 	addiu	t7,v0,8
800091e0:	01f9682b 	sltu	t5,t7,t9
800091e4:	11a00013 	beqz	t5,80009234 <core_list_init+0x1a4>
800091e8:	24780004 	addiu	t8,v1,4
800091ec:	0308502b 	sltu	t2,t8,t0
800091f0:	11400010 	beqz	t2,80009234 <core_list_init+0x1a4>
800091f4:	308effff 	andi	t6,a0,0xffff
800091f8:	01cb6826 	xor	t5,t6,t3
800091fc:	000d50c0 	sll	t2,t5,0x3
80009200:	314d0078 	andi	t5,t2,0x78
80009204:	31ce0007 	andi	t6,t6,0x7
80009208:	01ae5025 	or	t2,t5,t6
8000920c:	000a6a00 	sll	t5,t2,0x8
80009210:	01aa7025 	or	t6,t5,t2
80009214:	ac470000 	sw	a3,0(v0)
80009218:	aca20000 	sw	v0,0(a1)
8000921c:	00403825 	move	a3,v0
80009220:	ac430004 	sw	v1,4(v0)
80009224:	a46e0000 	sh	t6,0(v1)
80009228:	a46c0002 	sh	t4,2(v1)
8000922c:	01e01025 	move	v0,t7
80009230:	03001825 	move	v1,t8
80009234:	24840001 	addiu	a0,a0,1
80009238:	1124005f 	beq	t1,a0,800093b8 <core_list_init+0x328>
8000923c:	00000000 	nop
80009240:	244f0008 	addiu	t7,v0,8
80009244:	01f9c02b 	sltu	t8,t7,t9
80009248:	13000013 	beqz	t8,80009298 <core_list_init+0x208>
8000924c:	246d0004 	addiu	t5,v1,4
80009250:	01a8502b 	sltu	t2,t5,t0
80009254:	11400010 	beqz	t2,80009298 <core_list_init+0x208>
80009258:	308effff 	andi	t6,a0,0xffff
8000925c:	01cbc026 	xor	t8,t6,t3
80009260:	001850c0 	sll	t2,t8,0x3
80009264:	31580078 	andi	t8,t2,0x78
80009268:	31ce0007 	andi	t6,t6,0x7
8000926c:	030e5025 	or	t2,t8,t6
80009270:	000ac200 	sll	t8,t2,0x8
80009274:	030a7025 	or	t6,t8,t2
80009278:	ac470000 	sw	a3,0(v0)
8000927c:	aca20000 	sw	v0,0(a1)
80009280:	00403825 	move	a3,v0
80009284:	ac430004 	sw	v1,4(v0)
80009288:	a46e0000 	sh	t6,0(v1)
8000928c:	a46c0002 	sh	t4,2(v1)
80009290:	01e01025 	move	v0,t7
80009294:	01a01825 	move	v1,t5
80009298:	244f0008 	addiu	t7,v0,8
8000929c:	01f9682b 	sltu	t5,t7,t9
800092a0:	11a00015 	beqz	t5,800092f8 <core_list_init+0x268>
800092a4:	24840001 	addiu	a0,a0,1
800092a8:	24780004 	addiu	t8,v1,4
800092ac:	0308502b 	sltu	t2,t8,t0
800092b0:	11400011 	beqz	t2,800092f8 <core_list_init+0x268>
800092b4:	308effff 	andi	t6,a0,0xffff
800092b8:	01cb6826 	xor	t5,t6,t3
800092bc:	000d50c0 	sll	t2,t5,0x3
800092c0:	314d0078 	andi	t5,t2,0x78
800092c4:	31ce0007 	andi	t6,t6,0x7
800092c8:	01ae5025 	or	t2,t5,t6
800092cc:	000a6a00 	sll	t5,t2,0x8
800092d0:	01aa7025 	or	t6,t5,t2
800092d4:	ac470000 	sw	a3,0(v0)
800092d8:	aca20000 	sw	v0,0(a1)
800092dc:	00403825 	move	a3,v0
800092e0:	ac430004 	sw	v1,4(v0)
800092e4:	a46e0000 	sh	t6,0(v1)
800092e8:	a46c0002 	sh	t4,2(v1)
800092ec:	01e01025 	move	v0,t7
800092f0:	03001825 	move	v1,t8
800092f4:	244f0008 	addiu	t7,v0,8
800092f8:	01f9c02b 	sltu	t8,t7,t9
800092fc:	13000014 	beqz	t8,80009350 <core_list_init+0x2c0>
80009300:	248d0001 	addiu	t5,a0,1
80009304:	24780004 	addiu	t8,v1,4
80009308:	0308502b 	sltu	t2,t8,t0
8000930c:	11400010 	beqz	t2,80009350 <core_list_init+0x2c0>
80009310:	31aeffff 	andi	t6,t5,0xffff
80009314:	01cb6826 	xor	t5,t6,t3
80009318:	000d50c0 	sll	t2,t5,0x3
8000931c:	314d0078 	andi	t5,t2,0x78
80009320:	31ce0007 	andi	t6,t6,0x7
80009324:	01ae5025 	or	t2,t5,t6
80009328:	000a6a00 	sll	t5,t2,0x8
8000932c:	01aa7025 	or	t6,t5,t2
80009330:	ac470000 	sw	a3,0(v0)
80009334:	aca20000 	sw	v0,0(a1)
80009338:	00403825 	move	a3,v0
8000933c:	ac430004 	sw	v1,4(v0)
80009340:	a46e0000 	sh	t6,0(v1)
80009344:	a46c0002 	sh	t4,2(v1)
80009348:	01e01025 	move	v0,t7
8000934c:	03001825 	move	v1,t8
80009350:	244f0008 	addiu	t7,v0,8
80009354:	01f9c02b 	sltu	t8,t7,t9
80009358:	13000014 	beqz	t8,800093ac <core_list_init+0x31c>
8000935c:	248d0002 	addiu	t5,a0,2
80009360:	24780004 	addiu	t8,v1,4
80009364:	0308502b 	sltu	t2,t8,t0
80009368:	11400010 	beqz	t2,800093ac <core_list_init+0x31c>
8000936c:	31aeffff 	andi	t6,t5,0xffff
80009370:	01cb6826 	xor	t5,t6,t3
80009374:	000d50c0 	sll	t2,t5,0x3
80009378:	314d0078 	andi	t5,t2,0x78
8000937c:	31ce0007 	andi	t6,t6,0x7
80009380:	01ae5025 	or	t2,t5,t6
80009384:	000a6a00 	sll	t5,t2,0x8
80009388:	01aa7025 	or	t6,t5,t2
8000938c:	ac470000 	sw	a3,0(v0)
80009390:	aca20000 	sw	v0,0(a1)
80009394:	00403825 	move	a3,v0
80009398:	ac430004 	sw	v1,4(v0)
8000939c:	a46e0000 	sh	t6,0(v1)
800093a0:	a46c0002 	sh	t4,2(v1)
800093a4:	01e01025 	move	v0,t7
800093a8:	03001825 	move	v1,t8
800093ac:	24840003 	addiu	a0,a0,3
800093b0:	1524ffa4 	bne	t1,a0,80009244 <core_list_init+0x1b4>
800093b4:	244f0008 	addiu	t7,v0,8
800093b8:	8ce40000 	lw	a0,0(a3)
800093bc:	00000000 	nop
800093c0:	1080001e 	beqz	a0,8000943c <core_list_init+0x3ac>
800093c4:	24020001 	li	v0,1
800093c8:	24190005 	li	t9,5
800093cc:	17200002 	bnez	t9,800093d8 <core_list_init+0x348>
800093d0:	0139001b 	divu	zero,t1,t9
800093d4:	0007000d 	break	0x7
800093d8:	8ce90004 	lw	t1,4(a3)
800093dc:	00005812 	mflo	t3
800093e0:	004b402b 	sltu	t0,v0,t3
800093e4:	1100000a 	beqz	t0,80009410 <core_list_init+0x380>
800093e8:	00000000 	nop
800093ec:	8c990000 	lw	t9,0(a0)
800093f0:	a5220002 	sh	v0,2(t1)
800093f4:	13200011 	beqz	t9,8000943c <core_list_init+0x3ac>
800093f8:	24420001 	addiu	v0,v0,1
800093fc:	00803825 	move	a3,a0
80009400:	004b402b 	sltu	t0,v0,t3
80009404:	8ce90004 	lw	t1,4(a3)
80009408:	1500fff8 	bnez	t0,800093ec <core_list_init+0x35c>
8000940c:	03202025 	move	a0,t9
80009410:	304cffff 	andi	t4,v0,0xffff
80009414:	258f0001 	addiu	t7,t4,1
80009418:	000fc200 	sll	t8,t7,0x8
8000941c:	330a0700 	andi	t2,t8,0x700
80009420:	01866826 	xor	t5,t4,a2
80009424:	8c990000 	lw	t9,0(a0)
80009428:	014d7025 	or	t6,t2,t5
8000942c:	31c73fff 	andi	a3,t6,0x3fff
80009430:	a5270002 	sh	a3,2(t1)
80009434:	1720fff1 	bnez	t9,800093fc <core_list_init+0x36c>
80009438:	24420001 	addiu	v0,v0,1
8000943c:	24080001 	li	t0,1
80009440:	00004825 	move	t1,zero
80009444:	00001025 	move	v0,zero
80009448:	00006825 	move	t5,zero
8000944c:	240eff00 	li	t6,-256
80009450:	240f0001 	li	t7,1
80009454:	31060007 	andi	a2,t0,0x7
80009458:	25ad0001 	addiu	t5,t5,1
8000945c:	00a01825 	move	v1,a1
80009460:	10c0002c 	beqz	a2,80009514 <core_list_init+0x484>
80009464:	00002025 	move	a0,zero
80009468:	240b0001 	li	t3,1
8000946c:	10cb0023 	beq	a2,t3,800094fc <core_list_init+0x46c>
80009470:	240c0002 	li	t4,2
80009474:	10cc001d 	beq	a2,t4,800094ec <core_list_init+0x45c>
80009478:	24180003 	li	t8,3
8000947c:	10d80017 	beq	a2,t8,800094dc <core_list_init+0x44c>
80009480:	240a0004 	li	t2,4
80009484:	10ca0011 	beq	a2,t2,800094cc <core_list_init+0x43c>
80009488:	24190005 	li	t9,5
8000948c:	10d9000b 	beq	a2,t9,800094bc <core_list_init+0x42c>
80009490:	24070006 	li	a3,6
80009494:	10c70005 	beq	a2,a3,800094ac <core_list_init+0x41c>
80009498:	00000000 	nop
8000949c:	8ca30000 	lw	v1,0(a1)
800094a0:	00000000 	nop
800094a4:	1060003b 	beqz	v1,80009594 <core_list_init+0x504>
800094a8:	24040001 	li	a0,1
800094ac:	8c630000 	lw	v1,0(v1)
800094b0:	00000000 	nop
800094b4:	10600037 	beqz	v1,80009594 <core_list_init+0x504>
800094b8:	24840001 	addiu	a0,a0,1
800094bc:	8c630000 	lw	v1,0(v1)
800094c0:	00000000 	nop
800094c4:	10600033 	beqz	v1,80009594 <core_list_init+0x504>
800094c8:	24840001 	addiu	a0,a0,1
800094cc:	8c630000 	lw	v1,0(v1)
800094d0:	00000000 	nop
800094d4:	1060002f 	beqz	v1,80009594 <core_list_init+0x504>
800094d8:	24840001 	addiu	a0,a0,1
800094dc:	8c630000 	lw	v1,0(v1)
800094e0:	00000000 	nop
800094e4:	1060002b 	beqz	v1,80009594 <core_list_init+0x504>
800094e8:	24840001 	addiu	a0,a0,1
800094ec:	8c630000 	lw	v1,0(v1)
800094f0:	00000000 	nop
800094f4:	10600027 	beqz	v1,80009594 <core_list_init+0x504>
800094f8:	24840001 	addiu	a0,a0,1
800094fc:	8c630000 	lw	v1,0(v1)
80009500:	00000000 	nop
80009504:	10600023 	beqz	v1,80009594 <core_list_init+0x504>
80009508:	24840001 	addiu	a0,a0,1
8000950c:	11040058 	beq	t0,a0,80009670 <core_list_init+0x5e0>
80009510:	00000000 	nop
80009514:	8c630000 	lw	v1,0(v1)
80009518:	24840001 	addiu	a0,a0,1
8000951c:	1060001d 	beqz	v1,80009594 <core_list_init+0x504>
80009520:	00803025 	move	a2,a0
80009524:	8c630000 	lw	v1,0(v1)
80009528:	00000000 	nop
8000952c:	10600019 	beqz	v1,80009594 <core_list_init+0x504>
80009530:	24840001 	addiu	a0,a0,1
80009534:	8c630000 	lw	v1,0(v1)
80009538:	00000000 	nop
8000953c:	10600015 	beqz	v1,80009594 <core_list_init+0x504>
80009540:	24c40002 	addiu	a0,a2,2
80009544:	8c630000 	lw	v1,0(v1)
80009548:	00000000 	nop
8000954c:	10600011 	beqz	v1,80009594 <core_list_init+0x504>
80009550:	24c40003 	addiu	a0,a2,3
80009554:	8c630000 	lw	v1,0(v1)
80009558:	00000000 	nop
8000955c:	1060000d 	beqz	v1,80009594 <core_list_init+0x504>
80009560:	24c40004 	addiu	a0,a2,4
80009564:	8c630000 	lw	v1,0(v1)
80009568:	00000000 	nop
8000956c:	10600009 	beqz	v1,80009594 <core_list_init+0x504>
80009570:	24c40005 	addiu	a0,a2,5
80009574:	8c630000 	lw	v1,0(v1)
80009578:	00000000 	nop
8000957c:	10600005 	beqz	v1,80009594 <core_list_init+0x504>
80009580:	24c40006 	addiu	a0,a2,6
80009584:	8c630000 	lw	v1,0(v1)
80009588:	00000000 	nop
8000958c:	1460ffdf 	bnez	v1,8000950c <core_list_init+0x47c>
80009590:	24c40007 	addiu	a0,a2,7
80009594:	00a0c825 	move	t9,a1
80009598:	01003825 	move	a3,t0
8000959c:	10800020 	beqz	a0,80009620 <core_list_init+0x590>
800095a0:	00602825 	move	a1,v1
800095a4:	10e0002e 	beqz	a3,80009660 <core_list_init+0x5d0>
800095a8:	03205825 	move	t3,t9
800095ac:	10a0002c 	beqz	a1,80009660 <core_list_init+0x5d0>
800095b0:	00000000 	nop
800095b4:	8f2c0004 	lw	t4,4(t9)
800095b8:	8cab0004 	lw	t3,4(a1)
800095bc:	85860000 	lh	a2,0(t4)
800095c0:	858a0002 	lh	t2,2(t4)
800095c4:	30d8ffff 	andi	t8,a2,0xffff
800095c8:	00ce1824 	and	v1,a2,t6
800095cc:	00183202 	srl	a2,t8,0x8
800095d0:	0066c025 	or	t8,v1,a2
800095d4:	a5980000 	sh	t8,0(t4)
800095d8:	85630000 	lh	v1,0(t3)
800095dc:	85660002 	lh	a2,2(t3)
800095e0:	306cffff 	andi	t4,v1,0xffff
800095e4:	006ec024 	and	t8,v1,t6
800095e8:	000c1a02 	srl	v1,t4,0x8
800095ec:	03036025 	or	t4,t8,v1
800095f0:	01465023 	subu	t2,t2,a2
800095f4:	19400016 	blez	t2,80009650 <core_list_init+0x5c0>
800095f8:	a56c0000 	sh	t4,0(t3)
800095fc:	00a05825 	move	t3,a1
80009600:	8ca50000 	lw	a1,0(a1)
80009604:	24e7ffff 	addiu	a3,a3,-1
80009608:	1120000c 	beqz	t1,8000963c <core_list_init+0x5ac>
8000960c:	00000000 	nop
80009610:	ad2b0000 	sw	t3,0(t1)
80009614:	01604825 	move	t1,t3
80009618:	1480ffe2 	bnez	a0,800095a4 <core_list_init+0x514>
8000961c:	00000000 	nop
80009620:	10e00017 	beqz	a3,80009680 <core_list_init+0x5f0>
80009624:	00000000 	nop
80009628:	10a00017 	beqz	a1,80009688 <core_list_init+0x5f8>
8000962c:	00a05825 	move	t3,a1
80009630:	8ca50000 	lw	a1,0(a1)
80009634:	1520fff6 	bnez	t1,80009610 <core_list_init+0x580>
80009638:	24e7ffff 	addiu	a3,a3,-1
8000963c:	01601025 	move	v0,t3
80009640:	1000fff5 	b	80009618 <core_list_init+0x588>
80009644:	01604825 	move	t1,t3
	...
80009650:	03205825 	move	t3,t9
	...
80009660:	8f390000 	lw	t9,0(t9)
80009664:	1000ffe8 	b	80009608 <core_list_init+0x578>
80009668:	2484ffff 	addiu	a0,a0,-1
8000966c:	00000000 	nop
80009670:	1000ffc8 	b	80009594 <core_list_init+0x504>
80009674:	01002025 	move	a0,t0
	...
80009680:	14a0ff75 	bnez	a1,80009458 <core_list_init+0x3c8>
80009684:	31060007 	andi	a2,t0,0x7
80009688:	11af000a 	beq	t5,t7,800096b4 <core_list_init+0x624>
8000968c:	ad200000 	sw	zero,0(t1)
80009690:	10400006 	beqz	v0,800096ac <core_list_init+0x61c>
80009694:	00084040 	sll	t0,t0,0x1
80009698:	00402825 	move	a1,v0
8000969c:	00006825 	move	t5,zero
800096a0:	00004825 	move	t1,zero
800096a4:	1000ff6b 	b	80009454 <core_list_init+0x3c4>
800096a8:	00001025 	move	v0,zero
800096ac:	ac000000 	sw	zero,0(zero)
800096b0:	0000000d 	break
800096b4:	03e00008 	jr	ra
800096b8:	00000000 	nop
800096bc:	00000000 	nop
800096c0:	00e01025 	move	v0,a3
800096c4:	01a01825 	move	v1,t5
800096c8:	1000fe8f 	b	80009108 <core_list_init+0x78>
800096cc:	00003825 	move	a3,zero

800096d0 <core_list_insert_new>:
core_list_insert_new():
800096d0:	8cc20000 	lw	v0,0(a2)
800096d4:	8fa30010 	lw	v1,16(sp)
800096d8:	24480008 	addiu	t0,v0,8
800096dc:	0103482b 	sltu	t1,t0,v1
800096e0:	11200017 	beqz	t1,80009740 <core_list_insert_new+0x70>
800096e4:	00000000 	nop
800096e8:	8ceb0000 	lw	t3,0(a3)
800096ec:	8fac0014 	lw	t4,20(sp)
800096f0:	256a0004 	addiu	t2,t3,4
800096f4:	014c682b 	sltu	t5,t2,t4
800096f8:	11a00011 	beqz	t5,80009740 <core_list_insert_new+0x70>
800096fc:	00000000 	nop
80009700:	acc80000 	sw	t0,0(a2)
80009704:	8c8e0000 	lw	t6,0(a0)
80009708:	84a60000 	lh	a2,0(a1)
8000970c:	ac4e0000 	sw	t6,0(v0)
80009710:	ac820000 	sw	v0,0(a0)
80009714:	ac4b0004 	sw	t3,4(v0)
80009718:	8cef0000 	lw	t7,0(a3)
8000971c:	84a40002 	lh	a0,2(a1)
80009720:	25e50004 	addiu	a1,t7,4
80009724:	ace50000 	sw	a1,0(a3)
80009728:	8c470004 	lw	a3,4(v0)
8000972c:	00000000 	nop
80009730:	a4e60000 	sh	a2,0(a3)
80009734:	03e00008 	jr	ra
80009738:	a4e40002 	sh	a0,2(a3)
8000973c:	00000000 	nop
80009740:	03e00008 	jr	ra
80009744:	00001025 	move	v0,zero
	...

80009750 <core_list_remove>:
core_list_remove():
80009750:	8c820000 	lw	v0,0(a0)
80009754:	8c850004 	lw	a1,4(a0)
80009758:	8c460004 	lw	a2,4(v0)
8000975c:	8c430000 	lw	v1,0(v0)
80009760:	ac860004 	sw	a2,4(a0)
80009764:	ac450004 	sw	a1,4(v0)
80009768:	ac830000 	sw	v1,0(a0)
8000976c:	03e00008 	jr	ra
80009770:	ac400000 	sw	zero,0(v0)
	...

80009780 <core_list_undo_remove>:
core_list_undo_remove():
80009780:	00801025 	move	v0,a0
80009784:	8ca60004 	lw	a2,4(a1)
80009788:	8c840004 	lw	a0,4(a0)
8000978c:	8ca30000 	lw	v1,0(a1)
80009790:	ac460004 	sw	a2,4(v0)
80009794:	aca40004 	sw	a0,4(a1)
80009798:	ac430000 	sw	v1,0(v0)
8000979c:	03e00008 	jr	ra
800097a0:	aca20000 	sw	v0,0(a1)
	...

800097b0 <core_list_find>:
core_list_find():
800097b0:	84a70002 	lh	a3,2(a1)
800097b4:	00000000 	nop
800097b8:	04e1000d 	bgez	a3,800097f0 <core_list_find+0x40>
800097bc:	00000000 	nop
800097c0:	1000000f 	b	80009800 <core_list_find+0x50>
800097c4:	00000000 	nop
	...
800097d0:	8c820004 	lw	v0,4(a0)
800097d4:	00000000 	nop
800097d8:	84460002 	lh	a2,2(v0)
800097dc:	00000000 	nop
800097e0:	10c7001b 	beq	a2,a3,80009850 <core_list_find+0xa0>
800097e4:	00000000 	nop
800097e8:	8c840000 	lw	a0,0(a0)
800097ec:	00000000 	nop
800097f0:	1480fff7 	bnez	a0,800097d0 <core_list_find+0x20>
800097f4:	00000000 	nop
800097f8:	03e00008 	jr	ra
800097fc:	00001025 	move	v0,zero
80009800:	1080fffd 	beqz	a0,800097f8 <core_list_find+0x48>
80009804:	00000000 	nop
80009808:	84a50000 	lh	a1,0(a1)
8000980c:	10000008 	b	80009830 <core_list_find+0x80>
80009810:	00801025 	move	v0,a0
	...
80009820:	8c420000 	lw	v0,0(v0)
80009824:	00000000 	nop
80009828:	10400007 	beqz	v0,80009848 <core_list_find+0x98>
8000982c:	00000000 	nop
80009830:	8c430004 	lw	v1,4(v0)
80009834:	00000000 	nop
80009838:	90640000 	lbu	a0,0(v1)
8000983c:	00000000 	nop
80009840:	1485fff7 	bne	a0,a1,80009820 <core_list_find+0x70>
80009844:	00000000 	nop
80009848:	03e00008 	jr	ra
8000984c:	00000000 	nop
80009850:	03e00008 	jr	ra
80009854:	00801025 	move	v0,a0
	...

80009860 <core_list_reverse>:
core_list_reverse():
80009860:	10800028 	beqz	a0,80009904 <core_list_reverse+0xa4>
80009864:	00801025 	move	v0,a0
80009868:	8c430000 	lw	v1,0(v0)
8000986c:	00006025 	move	t4,zero
80009870:	00402825 	move	a1,v0
80009874:	10600023 	beqz	v1,80009904 <core_list_reverse+0xa4>
80009878:	ac4c0000 	sw	t4,0(v0)
8000987c:	8c640000 	lw	a0,0(v1)
80009880:	00601025 	move	v0,v1
80009884:	1080001f 	beqz	a0,80009904 <core_list_reverse+0xa4>
80009888:	ac650000 	sw	a1,0(v1)
8000988c:	8c860000 	lw	a2,0(a0)
80009890:	00801025 	move	v0,a0
80009894:	10c0001b 	beqz	a2,80009904 <core_list_reverse+0xa4>
80009898:	ac830000 	sw	v1,0(a0)
8000989c:	8cc70000 	lw	a3,0(a2)
800098a0:	00c01025 	move	v0,a2
800098a4:	10e00017 	beqz	a3,80009904 <core_list_reverse+0xa4>
800098a8:	acc40000 	sw	a0,0(a2)
800098ac:	8ce80000 	lw	t0,0(a3)
800098b0:	00e01025 	move	v0,a3
800098b4:	11000013 	beqz	t0,80009904 <core_list_reverse+0xa4>
800098b8:	ace60000 	sw	a2,0(a3)
800098bc:	8d090000 	lw	t1,0(t0)
800098c0:	01001025 	move	v0,t0
800098c4:	1120000f 	beqz	t1,80009904 <core_list_reverse+0xa4>
800098c8:	ad070000 	sw	a3,0(t0)
800098cc:	8d2a0000 	lw	t2,0(t1)
800098d0:	01201025 	move	v0,t1
800098d4:	1140000b 	beqz	t2,80009904 <core_list_reverse+0xa4>
800098d8:	ad280000 	sw	t0,0(t1)
800098dc:	8d4b0000 	lw	t3,0(t2)
800098e0:	01401025 	move	v0,t2
800098e4:	01406025 	move	t4,t2
800098e8:	11600006 	beqz	t3,80009904 <core_list_reverse+0xa4>
800098ec:	ad490000 	sw	t1,0(t2)
800098f0:	01601025 	move	v0,t3
800098f4:	8c430000 	lw	v1,0(v0)
800098f8:	00402825 	move	a1,v0
800098fc:	1460ffdf 	bnez	v1,8000987c <core_list_reverse+0x1c>
80009900:	ac4c0000 	sw	t4,0(v0)
80009904:	03e00008 	jr	ra
80009908:	00000000 	nop
8000990c:	00000000 	nop

80009910 <core_list_mergesort>:
core_list_mergesort():
80009910:	27bdffc0 	addiu	sp,sp,-64
80009914:	afbe0038 	sw	s8,56(sp)
80009918:	afb5002c 	sw	s5,44(sp)
8000991c:	afb40028 	sw	s4,40(sp)
80009920:	afb00018 	sw	s0,24(sp)
80009924:	afbf003c 	sw	ra,60(sp)
80009928:	afb70034 	sw	s7,52(sp)
8000992c:	afb60030 	sw	s6,48(sp)
80009930:	afb30024 	sw	s3,36(sp)
80009934:	afb20020 	sw	s2,32(sp)
80009938:	afb1001c 	sw	s1,28(sp)
8000993c:	00808025 	move	s0,a0
80009940:	00a0a025 	move	s4,a1
80009944:	00c0f025 	move	s8,a2
80009948:	24150001 	li	s5,1
8000994c:	12000085 	beqz	s0,80009b64 <core_list_mergesort+0x254>
80009950:	00008825 	move	s1,zero
80009954:	afa00010 	sw	zero,16(sp)
80009958:	00009825 	move	s3,zero
8000995c:	8fa20010 	lw	v0,16(sp)
80009960:	32a30007 	andi	v1,s5,0x7
80009964:	24440001 	addiu	a0,v0,1
80009968:	afa40010 	sw	a0,16(sp)
8000996c:	02006025 	move	t4,s0
80009970:	1060002c 	beqz	v1,80009a24 <core_list_mergesort+0x114>
80009974:	00009025 	move	s2,zero
80009978:	24050001 	li	a1,1
8000997c:	10650023 	beq	v1,a1,80009a0c <core_list_mergesort+0xfc>
80009980:	24060002 	li	a2,2
80009984:	1066001d 	beq	v1,a2,800099fc <core_list_mergesort+0xec>
80009988:	24070003 	li	a3,3
8000998c:	10670017 	beq	v1,a3,800099ec <core_list_mergesort+0xdc>
80009990:	24080004 	li	t0,4
80009994:	10680011 	beq	v1,t0,800099dc <core_list_mergesort+0xcc>
80009998:	24090005 	li	t1,5
8000999c:	1069000b 	beq	v1,t1,800099cc <core_list_mergesort+0xbc>
800099a0:	240a0006 	li	t2,6
800099a4:	106a0005 	beq	v1,t2,800099bc <core_list_mergesort+0xac>
800099a8:	00000000 	nop
800099ac:	8e0c0000 	lw	t4,0(s0)
800099b0:	00000000 	nop
800099b4:	1180003b 	beqz	t4,80009aa4 <core_list_mergesort+0x194>
800099b8:	24120001 	li	s2,1
800099bc:	8d8c0000 	lw	t4,0(t4)
800099c0:	00000000 	nop
800099c4:	11800037 	beqz	t4,80009aa4 <core_list_mergesort+0x194>
800099c8:	26520001 	addiu	s2,s2,1
800099cc:	8d8c0000 	lw	t4,0(t4)
800099d0:	00000000 	nop
800099d4:	11800033 	beqz	t4,80009aa4 <core_list_mergesort+0x194>
800099d8:	26520001 	addiu	s2,s2,1
800099dc:	8d8c0000 	lw	t4,0(t4)
800099e0:	00000000 	nop
800099e4:	1180002f 	beqz	t4,80009aa4 <core_list_mergesort+0x194>
800099e8:	26520001 	addiu	s2,s2,1
800099ec:	8d8c0000 	lw	t4,0(t4)
800099f0:	00000000 	nop
800099f4:	1180002b 	beqz	t4,80009aa4 <core_list_mergesort+0x194>
800099f8:	26520001 	addiu	s2,s2,1
800099fc:	8d8c0000 	lw	t4,0(t4)
80009a00:	00000000 	nop
80009a04:	11800027 	beqz	t4,80009aa4 <core_list_mergesort+0x194>
80009a08:	26520001 	addiu	s2,s2,1
80009a0c:	8d8c0000 	lw	t4,0(t4)
80009a10:	00000000 	nop
80009a14:	11800023 	beqz	t4,80009aa4 <core_list_mergesort+0x194>
80009a18:	26520001 	addiu	s2,s2,1
80009a1c:	12b20022 	beq	s5,s2,80009aa8 <core_list_mergesort+0x198>
80009a20:	0200b025 	move	s6,s0
80009a24:	8d8c0000 	lw	t4,0(t4)
80009a28:	26520001 	addiu	s2,s2,1
80009a2c:	1180001d 	beqz	t4,80009aa4 <core_list_mergesort+0x194>
80009a30:	02405825 	move	t3,s2
80009a34:	8d8c0000 	lw	t4,0(t4)
80009a38:	00000000 	nop
80009a3c:	11800019 	beqz	t4,80009aa4 <core_list_mergesort+0x194>
80009a40:	26520001 	addiu	s2,s2,1
80009a44:	8d8c0000 	lw	t4,0(t4)
80009a48:	00000000 	nop
80009a4c:	11800015 	beqz	t4,80009aa4 <core_list_mergesort+0x194>
80009a50:	25720002 	addiu	s2,t3,2
80009a54:	8d8c0000 	lw	t4,0(t4)
80009a58:	00000000 	nop
80009a5c:	11800011 	beqz	t4,80009aa4 <core_list_mergesort+0x194>
80009a60:	25720003 	addiu	s2,t3,3
80009a64:	8d8c0000 	lw	t4,0(t4)
80009a68:	00000000 	nop
80009a6c:	1180000d 	beqz	t4,80009aa4 <core_list_mergesort+0x194>
80009a70:	25720004 	addiu	s2,t3,4
80009a74:	8d8c0000 	lw	t4,0(t4)
80009a78:	00000000 	nop
80009a7c:	11800009 	beqz	t4,80009aa4 <core_list_mergesort+0x194>
80009a80:	25720005 	addiu	s2,t3,5
80009a84:	8d8c0000 	lw	t4,0(t4)
80009a88:	00000000 	nop
80009a8c:	11800005 	beqz	t4,80009aa4 <core_list_mergesort+0x194>
80009a90:	25720006 	addiu	s2,t3,6
80009a94:	8d8c0000 	lw	t4,0(t4)
80009a98:	00000000 	nop
80009a9c:	1580ffdf 	bnez	t4,80009a1c <core_list_mergesort+0x10c>
80009aa0:	25720007 	addiu	s2,t3,7
80009aa4:	0200b025 	move	s6,s0
80009aa8:	02a0b825 	move	s7,s5
80009aac:	12400014 	beqz	s2,80009b00 <core_list_mergesort+0x1f0>
80009ab0:	01808025 	move	s0,t4
80009ab4:	12e0001e 	beqz	s7,80009b30 <core_list_mergesort+0x220>
80009ab8:	02c07825 	move	t7,s6
80009abc:	1200001c 	beqz	s0,80009b30 <core_list_mergesort+0x220>
80009ac0:	00000000 	nop
80009ac4:	8e050004 	lw	a1,4(s0)
80009ac8:	8ec40004 	lw	a0,4(s6)
80009acc:	0280f809 	jalr	s4
80009ad0:	03c03025 	move	a2,s8
80009ad4:	18400016 	blez	v0,80009b30 <core_list_mergesort+0x220>
80009ad8:	02c07825 	move	t7,s6
80009adc:	02007825 	move	t7,s0
80009ae0:	8e100000 	lw	s0,0(s0)
80009ae4:	26f7ffff 	addiu	s7,s7,-1
80009ae8:	1220000c 	beqz	s1,80009b1c <core_list_mergesort+0x20c>
80009aec:	00000000 	nop
80009af0:	ae2f0000 	sw	t7,0(s1)
80009af4:	01e08825 	move	s1,t7
80009af8:	1640ffee 	bnez	s2,80009ab4 <core_list_mergesort+0x1a4>
80009afc:	00000000 	nop
80009b00:	12e0000f 	beqz	s7,80009b40 <core_list_mergesort+0x230>
80009b04:	00000000 	nop
80009b08:	1200000f 	beqz	s0,80009b48 <core_list_mergesort+0x238>
80009b0c:	02007825 	move	t7,s0
80009b10:	8e100000 	lw	s0,0(s0)
80009b14:	1620fff6 	bnez	s1,80009af0 <core_list_mergesort+0x1e0>
80009b18:	26f7ffff 	addiu	s7,s7,-1
80009b1c:	01e09825 	move	s3,t7
80009b20:	1000fff5 	b	80009af8 <core_list_mergesort+0x1e8>
80009b24:	01e08825 	move	s1,t7
	...
80009b30:	8ed60000 	lw	s6,0(s6)
80009b34:	1000ffec 	b	80009ae8 <core_list_mergesort+0x1d8>
80009b38:	2652ffff 	addiu	s2,s2,-1
80009b3c:	00000000 	nop
80009b40:	1600ff86 	bnez	s0,8000995c <core_list_mergesort+0x4c>
80009b44:	00000000 	nop
80009b48:	8fad0010 	lw	t5,16(sp)
80009b4c:	240e0001 	li	t6,1
80009b50:	11ae0006 	beq	t5,t6,80009b6c <core_list_mergesort+0x25c>
80009b54:	ae200000 	sw	zero,0(s1)
80009b58:	0015a840 	sll	s5,s5,0x1
80009b5c:	1000ff7b 	b	8000994c <core_list_mergesort+0x3c>
80009b60:	02608025 	move	s0,s3
80009b64:	ac000000 	sw	zero,0(zero)
80009b68:	0000000d 	break
80009b6c:	8fbf003c 	lw	ra,60(sp)
80009b70:	8fbe0038 	lw	s8,56(sp)
80009b74:	8fb70034 	lw	s7,52(sp)
80009b78:	8fb60030 	lw	s6,48(sp)
80009b7c:	8fb5002c 	lw	s5,44(sp)
80009b80:	8fb40028 	lw	s4,40(sp)
80009b84:	8fb20020 	lw	s2,32(sp)
80009b88:	8fb1001c 	lw	s1,28(sp)
80009b8c:	8fb00018 	lw	s0,24(sp)
80009b90:	02601025 	move	v0,s3
80009b94:	8fb30024 	lw	s3,36(sp)
80009b98:	03e00008 	jr	ra
80009b9c:	27bd0040 	addiu	sp,sp,64

80009ba0 <get_epc>:
get_epc():
80009ba0:	40027000 	mfc0	v0,c0_epc
80009ba4:	03e00008 	jr	ra
80009ba8:	00000000 	nop

80009bac <get_cause>:
get_cause():
80009bac:	40026800 	mfc0	v0,c0_cause
80009bb0:	03e00008 	jr	ra
80009bb4:	00000000 	nop

80009bb8 <exception>:
exception():
80009bb8:	3c048001 	lui	a0,0x8001
80009bbc:	27bdffe8 	addiu	sp,sp,-24
80009bc0:	afbf0014 	sw	ra,20(sp)
80009bc4:	0c002700 	jal	80009c00 <printf>
80009bc8:	2484a7d0 	addiu	a0,a0,-22576
80009bcc:	3c048001 	lui	a0,0x8001
80009bd0:	2484a7ec 	addiu	a0,a0,-22548
80009bd4:	40057000 	mfc0	a1,c0_epc
80009bd8:	0c002700 	jal	80009c00 <printf>
80009bdc:	00000000 	nop
80009be0:	8fbf0014 	lw	ra,20(sp)
80009be4:	3c048001 	lui	a0,0x8001
80009be8:	2484a7fc 	addiu	a0,a0,-22532
80009bec:	27bd0018 	addiu	sp,sp,24
80009bf0:	40056800 	mfc0	a1,c0_cause
80009bf4:	08002700 	j	80009c00 <printf>
80009bf8:	00000000 	nop
80009bfc:	00000000 	nop

80009c00 <printf>:
printf():
80009c00:	27bdffd0 	addiu	sp,sp,-48
80009c04:	afb30024 	sw	s3,36(sp)
80009c08:	afbf002c 	sw	ra,44(sp)
80009c0c:	afb40028 	sw	s4,40(sp)
80009c10:	afb20020 	sw	s2,32(sp)
80009c14:	afb1001c 	sw	s1,28(sp)
80009c18:	afb00018 	sw	s0,24(sp)
80009c1c:	80900000 	lb	s0,0(a0)
80009c20:	27b30034 	addiu	s3,sp,52
80009c24:	afa50034 	sw	a1,52(sp)
80009c28:	afa60038 	sw	a2,56(sp)
80009c2c:	afa7003c 	sw	a3,60(sp)
80009c30:	12000024 	beqz	s0,80009cc4 <printf+0xc4>
80009c34:	afb30010 	sw	s3,16(sp)
80009c38:	3c148001 	lui	s4,0x8001
80009c3c:	00809025 	move	s2,a0
80009c40:	00008825 	move	s1,zero
80009c44:	10000009 	b	80009c6c <printf+0x6c>
80009c48:	2694a810 	addiu	s4,s4,-22512
80009c4c:	0c002790 	jal	80009e40 <putchar>
80009c50:	02002025 	move	a0,s0
80009c54:	26310001 	addiu	s1,s1,1
80009c58:	02511021 	addu	v0,s2,s1
80009c5c:	80500000 	lb	s0,0(v0)
80009c60:	00000000 	nop
80009c64:	12000017 	beqz	s0,80009cc4 <printf+0xc4>
80009c68:	00000000 	nop
80009c6c:	24020025 	li	v0,37
80009c70:	12020007 	beq	s0,v0,80009c90 <printf+0x90>
80009c74:	2402000a 	li	v0,10
80009c78:	1602fff4 	bne	s0,v0,80009c4c <printf+0x4c>
80009c7c:	00000000 	nop
80009c80:	0c002790 	jal	80009e40 <putchar>
80009c84:	2404000d 	li	a0,13
80009c88:	1000fff0 	b	80009c4c <printf+0x4c>
80009c8c:	00000000 	nop
80009c90:	02511021 	addu	v0,s2,s1
80009c94:	80440001 	lb	a0,1(v0)
80009c98:	24050001 	li	a1,1
80009c9c:	2482ffdb 	addiu	v0,a0,-37
80009ca0:	304200ff 	andi	v0,v0,0xff
80009ca4:	2c430054 	sltiu	v1,v0,84
80009ca8:	10600028 	beqz	v1,80009d4c <printf+0x14c>
80009cac:	00021080 	sll	v0,v0,0x2
80009cb0:	02821021 	addu	v0,s4,v0
80009cb4:	8c420000 	lw	v0,0(v0)
80009cb8:	00000000 	nop
80009cbc:	00400008 	jr	v0
80009cc0:	00000000 	nop
80009cc4:	8fbf002c 	lw	ra,44(sp)
80009cc8:	8fb40028 	lw	s4,40(sp)
80009ccc:	8fb30024 	lw	s3,36(sp)
80009cd0:	8fb20020 	lw	s2,32(sp)
80009cd4:	8fb1001c 	lw	s1,28(sp)
80009cd8:	8fb00018 	lw	s0,24(sp)
80009cdc:	00001025 	move	v0,zero
80009ce0:	03e00008 	jr	ra
80009ce4:	27bd0030 	addiu	sp,sp,48
80009ce8:	02511021 	addu	v0,s2,s1
80009cec:	80440002 	lb	a0,2(v0)
80009cf0:	26310001 	addiu	s1,s1,1
80009cf4:	2482ffcf 	addiu	v0,a0,-49
80009cf8:	304200ff 	andi	v0,v0,0xff
80009cfc:	2c420009 	sltiu	v0,v0,9
80009d00:	1040ffe6 	beqz	v0,80009c9c <printf+0x9c>
80009d04:	00002825 	move	a1,zero
80009d08:	26310001 	addiu	s1,s1,1
80009d0c:	02511021 	addu	v0,s2,s1
80009d10:	2486ffd0 	addiu	a2,a0,-48
80009d14:	80440001 	lb	a0,1(v0)
80009d18:	00051880 	sll	v1,a1,0x2
80009d1c:	2482ffcf 	addiu	v0,a0,-49
80009d20:	00652821 	addu	a1,v1,a1
80009d24:	304200ff 	andi	v0,v0,0xff
80009d28:	00052840 	sll	a1,a1,0x1
80009d2c:	2c420009 	sltiu	v0,v0,9
80009d30:	1440fff5 	bnez	v0,80009d08 <printf+0x108>
80009d34:	00c52821 	addu	a1,a2,a1
80009d38:	2482ffdb 	addiu	v0,a0,-37
80009d3c:	304200ff 	andi	v0,v0,0xff
80009d40:	2c430054 	sltiu	v1,v0,84
80009d44:	1460ffda 	bnez	v1,80009cb0 <printf+0xb0>
80009d48:	00021080 	sll	v0,v0,0x2
80009d4c:	0c002790 	jal	80009e40 <putchar>
80009d50:	24040025 	li	a0,37
80009d54:	1000ffc0 	b	80009c58 <printf+0x58>
80009d58:	26310001 	addiu	s1,s1,1
80009d5c:	8e640000 	lw	a0,0(s3)
80009d60:	00003825 	move	a3,zero
80009d64:	0c00281c 	jal	8000a070 <printbase>
80009d68:	24060010 	li	a2,16
80009d6c:	26730004 	addiu	s3,s3,4
80009d70:	1000ffb8 	b	80009c54 <printf+0x54>
80009d74:	26310001 	addiu	s1,s1,1
80009d78:	8e640000 	lw	a0,0(s3)
80009d7c:	0c0027a8 	jal	80009ea0 <putstring>
80009d80:	26310001 	addiu	s1,s1,1
80009d84:	1000ffb3 	b	80009c54 <printf+0x54>
80009d88:	26730004 	addiu	s3,s3,4
80009d8c:	8e640000 	lw	a0,0(s3)
80009d90:	0c002790 	jal	80009e40 <putchar>
80009d94:	26310001 	addiu	s1,s1,1
80009d98:	1000ffae 	b	80009c54 <printf+0x54>
80009d9c:	26730004 	addiu	s3,s3,4
80009da0:	8e640000 	lw	a0,0(s3)
80009da4:	24070001 	li	a3,1
80009da8:	0c00281c 	jal	8000a070 <printbase>
80009dac:	2406000a 	li	a2,10
80009db0:	26730004 	addiu	s3,s3,4
80009db4:	1000ffa7 	b	80009c54 <printf+0x54>
80009db8:	26310001 	addiu	s1,s1,1
80009dbc:	8e640000 	lw	a0,0(s3)
80009dc0:	00003825 	move	a3,zero
80009dc4:	0c00281c 	jal	8000a070 <printbase>
80009dc8:	24060002 	li	a2,2
80009dcc:	26730004 	addiu	s3,s3,4
80009dd0:	1000ffa0 	b	80009c54 <printf+0x54>
80009dd4:	26310001 	addiu	s1,s1,1
80009dd8:	8e640000 	lw	a0,0(s3)
80009ddc:	00003825 	move	a3,zero
80009de0:	0c00281c 	jal	8000a070 <printbase>
80009de4:	2406000a 	li	a2,10
80009de8:	26730004 	addiu	s3,s3,4
80009dec:	1000ff99 	b	80009c54 <printf+0x54>
80009df0:	26310001 	addiu	s1,s1,1
80009df4:	8e640000 	lw	a0,0(s3)
80009df8:	00003825 	move	a3,zero
80009dfc:	0c00281c 	jal	8000a070 <printbase>
80009e00:	2406000a 	li	a2,10
80009e04:	26730004 	addiu	s3,s3,4
80009e08:	1000ff92 	b	80009c54 <printf+0x54>
80009e0c:	26310002 	addiu	s1,s1,2
80009e10:	8e640000 	lw	a0,0(s3)
80009e14:	00003825 	move	a3,zero
80009e18:	0c00281c 	jal	8000a070 <printbase>
80009e1c:	24060008 	li	a2,8
80009e20:	26730004 	addiu	s3,s3,4
80009e24:	1000ff8b 	b	80009c54 <printf+0x54>
80009e28:	26310001 	addiu	s1,s1,1
80009e2c:	0c002790 	jal	80009e40 <putchar>
80009e30:	24040025 	li	a0,37
80009e34:	1000ff87 	b	80009c54 <printf+0x54>
80009e38:	26310001 	addiu	s1,s1,1
80009e3c:	00000000 	nop

80009e40 <putchar>:
putchar():
80009e40:	3c03a300 	lui	v1,0xa300
80009e44:	8c620000 	lw	v0,0(v1)
80009e48:	00000000 	nop
80009e4c:	30420001 	andi	v0,v0,0x1
80009e50:	1040fffc 	beqz	v0,80009e44 <putchar+0x4>
80009e54:	00000000 	nop
80009e58:	10800002 	beqz	a0,80009e64 <putchar+0x24>
80009e5c:	00000000 	nop
80009e60:	ac640004 	sw	a0,4(v1)
80009e64:	03e00008 	jr	ra
80009e68:	00001025 	move	v0,zero

80009e6c <tgt_putchar>:
tgt_putchar():
80009e6c:	3c03a300 	lui	v1,0xa300
80009e70:	8c620000 	lw	v0,0(v1)
80009e74:	00000000 	nop
80009e78:	30420001 	andi	v0,v0,0x1
80009e7c:	1040fffc 	beqz	v0,80009e70 <tgt_putchar+0x4>
80009e80:	00000000 	nop
80009e84:	10800002 	beqz	a0,80009e90 <tgt_putchar+0x24>
80009e88:	00000000 	nop
80009e8c:	ac640004 	sw	a0,4(v1)
80009e90:	03e00008 	jr	ra
80009e94:	00000000 	nop
	...

80009ea0 <putstring>:
putstring():
80009ea0:	27bdffe0 	addiu	sp,sp,-32
80009ea4:	afbf001c 	sw	ra,28(sp)
80009ea8:	afb20018 	sw	s2,24(sp)
80009eac:	afb10014 	sw	s1,20(sp)
80009eb0:	afb00010 	sw	s0,16(sp)
80009eb4:	80900000 	lb	s0,0(a0)
80009eb8:	00000000 	nop
80009ebc:	12000013 	beqz	s0,80009f0c <putstring+0x6c>
80009ec0:	00808825 	move	s1,a0
80009ec4:	10000007 	b	80009ee4 <putstring+0x44>
80009ec8:	2412000a 	li	s2,10
80009ecc:	0c002790 	jal	80009e40 <putchar>
80009ed0:	02002025 	move	a0,s0
80009ed4:	82300000 	lb	s0,0(s1)
80009ed8:	00000000 	nop
80009edc:	1200000b 	beqz	s0,80009f0c <putstring+0x6c>
80009ee0:	00000000 	nop
80009ee4:	1612fff9 	bne	s0,s2,80009ecc <putstring+0x2c>
80009ee8:	26310001 	addiu	s1,s1,1
80009eec:	0c002790 	jal	80009e40 <putchar>
80009ef0:	2404000d 	li	a0,13
80009ef4:	0c002790 	jal	80009e40 <putchar>
80009ef8:	02002025 	move	a0,s0
80009efc:	82300000 	lb	s0,0(s1)
80009f00:	00000000 	nop
80009f04:	1600fff7 	bnez	s0,80009ee4 <putstring+0x44>
80009f08:	00000000 	nop
80009f0c:	8fbf001c 	lw	ra,28(sp)
80009f10:	8fb20018 	lw	s2,24(sp)
80009f14:	8fb10014 	lw	s1,20(sp)
80009f18:	8fb00010 	lw	s0,16(sp)
80009f1c:	00001025 	move	v0,zero
80009f20:	03e00008 	jr	ra
80009f24:	27bd0020 	addiu	sp,sp,32

80009f28 <puts>:
puts():
80009f28:	27bdffe8 	addiu	sp,sp,-24
80009f2c:	afbf0014 	sw	ra,20(sp)
80009f30:	0c0027a8 	jal	80009ea0 <putstring>
80009f34:	00000000 	nop
80009f38:	0c002790 	jal	80009e40 <putchar>
80009f3c:	2404000d 	li	a0,13
80009f40:	0c002790 	jal	80009e40 <putchar>
80009f44:	2404000a 	li	a0,10
80009f48:	8fbf0014 	lw	ra,20(sp)
80009f4c:	00001025 	move	v0,zero
80009f50:	03e00008 	jr	ra
80009f54:	27bd0018 	addiu	sp,sp,24
	...

80009f60 <_get_count>:
_get_count():
80009f60:	3c02a400 	lui	v0,0xa400
80009f64:	8c420004 	lw	v0,4(v0)
80009f68:	03e00008 	jr	ra
80009f6c:	00000000 	nop

80009f70 <get_count>:
get_count():
80009f70:	3c02a400 	lui	v0,0xa400
80009f74:	8c420004 	lw	v0,4(v0)
80009f78:	03e00008 	jr	ra
80009f7c:	00000000 	nop

80009f80 <clock_gettime>:
clock_gettime():
80009f80:	3c02a400 	lui	v0,0xa400
80009f84:	8c440004 	lw	a0,4(v0)
80009f88:	240203e8 	li	v0,1000
80009f8c:	14400002 	bnez	v0,80009f98 <clock_gettime+0x18>
80009f90:	0082001b 	divu	zero,a0,v0
80009f94:	0007000d 	break	0x7
80009f98:	00043840 	sll	a3,a0,0x1
80009f9c:	27bdffe8 	addiu	sp,sp,-24
80009fa0:	00a04025 	move	t0,a1
80009fa4:	afbf0014 	sw	ra,20(sp)
80009fa8:	aca00000 	sw	zero,0(a1)
80009fac:	3c048001 	lui	a0,0x8001
80009fb0:	00003025 	move	a2,zero
80009fb4:	2484a960 	addiu	a0,a0,-22176
80009fb8:	00001812 	mflo	v1
80009fbc:	00031840 	sll	v1,v1,0x1
80009fc0:	00000000 	nop
80009fc4:	14400002 	bnez	v0,80009fd0 <clock_gettime+0x50>
80009fc8:	0062001b 	divu	zero,v1,v0
80009fcc:	0007000d 	break	0x7
80009fd0:	00004810 	mfhi	t1
80009fd4:	ad090008 	sw	t1,8(t0)
80009fd8:	00001812 	mflo	v1
	...
80009fe4:	14400002 	bnez	v0,80009ff0 <clock_gettime+0x70>
80009fe8:	00e2001b 	divu	zero,a3,v0
80009fec:	0007000d 	break	0x7
80009ff0:	00002810 	mfhi	a1
80009ff4:	ad050004 	sw	a1,4(t0)
80009ff8:	00000000 	nop
80009ffc:	14400002 	bnez	v0,8000a008 <clock_gettime+0x88>
8000a000:	0062001b 	divu	zero,v1,v0
8000a004:	0007000d 	break	0x7
8000a008:	00001010 	mfhi	v0
8000a00c:	0c002700 	jal	80009c00 <printf>
8000a010:	ad02000c 	sw	v0,12(t0)
8000a014:	8fbf0014 	lw	ra,20(sp)
8000a018:	00001025 	move	v0,zero
8000a01c:	03e00008 	jr	ra
8000a020:	27bd0018 	addiu	sp,sp,24

8000a024 <get_clock>:
get_clock():
8000a024:	3c02a400 	lui	v0,0xa400
8000a028:	8c420004 	lw	v0,4(v0)
8000a02c:	03e00008 	jr	ra
8000a030:	00021040 	sll	v0,v0,0x1

8000a034 <get_us>:
get_us():
8000a034:	3c02a400 	lui	v0,0xa400
8000a038:	8c420000 	lw	v0,0(v0)
8000a03c:	03e00008 	jr	ra
8000a040:	00000000 	nop

8000a044 <get_ns>:
get_ns():
8000a044:	3c02a400 	lui	v0,0xa400
8000a048:	8c430000 	lw	v1,0(v0)
8000a04c:	00000000 	nop
8000a050:	00031140 	sll	v0,v1,0x5
8000a054:	00431023 	subu	v0,v0,v1
8000a058:	00021080 	sll	v0,v0,0x2
8000a05c:	00431021 	addu	v0,v0,v1
8000a060:	03e00008 	jr	ra
8000a064:	000210c0 	sll	v0,v0,0x3
	...

8000a070 <printbase>:
printbase():
8000a070:	27bdffa0 	addiu	sp,sp,-96
8000a074:	afb00054 	sw	s0,84(sp)
8000a078:	afbf005c 	sw	ra,92(sp)
8000a07c:	afb10058 	sw	s1,88(sp)
8000a080:	10e00003 	beqz	a3,8000a090 <printbase+0x20>
8000a084:	00808025 	move	s0,a0
8000a088:	04800032 	bltz	a0,8000a154 <printbase+0xe4>
8000a08c:	2404002d 	li	a0,45
8000a090:	12000038 	beqz	s0,8000a174 <printbase+0x104>
8000a094:	27a20010 	addiu	v0,sp,16
8000a098:	24070001 	li	a3,1
8000a09c:	00e23823 	subu	a3,a3,v0
8000a0a0:	14c00002 	bnez	a2,8000a0ac <printbase+0x3c>
8000a0a4:	0206001b 	divu	zero,s0,a2
8000a0a8:	0007000d 	break	0x7
8000a0ac:	00e28821 	addu	s1,a3,v0
8000a0b0:	0206202b 	sltu	a0,s0,a2
8000a0b4:	24420001 	addiu	v0,v0,1
8000a0b8:	00001810 	mfhi	v1
8000a0bc:	00008012 	mflo	s0
8000a0c0:	1080fff7 	beqz	a0,8000a0a0 <printbase+0x30>
8000a0c4:	a043ffff 	sb	v1,-1(v0)
8000a0c8:	00b1102a 	slt	v0,a1,s1
8000a0cc:	1440001f 	bnez	v0,8000a14c <printbase+0xdc>
8000a0d0:	00000000 	nop
8000a0d4:	1000000b 	b	8000a104 <printbase+0x94>
8000a0d8:	00a08025 	move	s0,a1
8000a0dc:	8064ffff 	lb	a0,-1(v1)
8000a0e0:	00000000 	nop
8000a0e4:	2882000a 	slti	v0,a0,10
8000a0e8:	10400016 	beqz	v0,8000a144 <printbase+0xd4>
8000a0ec:	00000000 	nop
8000a0f0:	24840030 	addiu	a0,a0,48
8000a0f4:	0c002790 	jal	80009e40 <putchar>
8000a0f8:	2610ffff 	addiu	s0,s0,-1
8000a0fc:	1200000b 	beqz	s0,8000a12c <printbase+0xbc>
8000a100:	00000000 	nop
8000a104:	27a20010 	addiu	v0,sp,16
8000a108:	00501821 	addu	v1,v0,s0
8000a10c:	0230102a 	slt	v0,s1,s0
8000a110:	1040fff2 	beqz	v0,8000a0dc <printbase+0x6c>
8000a114:	00000000 	nop
8000a118:	2610ffff 	addiu	s0,s0,-1
8000a11c:	0c002790 	jal	80009e40 <putchar>
8000a120:	24040030 	li	a0,48
8000a124:	1600fff8 	bnez	s0,8000a108 <printbase+0x98>
8000a128:	27a20010 	addiu	v0,sp,16
8000a12c:	8fbf005c 	lw	ra,92(sp)
8000a130:	8fb10058 	lw	s1,88(sp)
8000a134:	8fb00054 	lw	s0,84(sp)
8000a138:	00001025 	move	v0,zero
8000a13c:	03e00008 	jr	ra
8000a140:	27bd0060 	addiu	sp,sp,96
8000a144:	1000ffeb 	b	8000a0f4 <printbase+0x84>
8000a148:	24840057 	addiu	a0,a0,87
8000a14c:	1000ffe1 	b	8000a0d4 <printbase+0x64>
8000a150:	02202825 	move	a1,s1
8000a154:	afa60068 	sw	a2,104(sp)
8000a158:	afa50064 	sw	a1,100(sp)
8000a15c:	0c002790 	jal	80009e40 <putchar>
8000a160:	00108023 	negu	s0,s0
8000a164:	8fa50064 	lw	a1,100(sp)
8000a168:	8fa60068 	lw	a2,104(sp)
8000a16c:	1000ffca 	b	8000a098 <printbase+0x28>
8000a170:	27a20010 	addiu	v0,sp,16
8000a174:	18a0ffed 	blez	a1,8000a12c <printbase+0xbc>
8000a178:	00008825 	move	s1,zero
8000a17c:	1000ffe1 	b	8000a104 <printbase+0x94>
8000a180:	00a08025 	move	s0,a1
	...
8000a190:	656d6954 	0x656d6954
8000a194:	7525203a 	jalx	849480e8 <_stack+0x483d108>
8000a198:	63796320 	0x63796320
8000a19c:	2c73656c 	sltiu	s3,v1,25964
8000a1a0:	20752520 	addi	s5,v1,9504
8000a1a4:	00007375 	0x7375
8000a1a8:	20677261 	addi	a3,v1,29281
8000a1ac:	6c25203a 	0x6c25203a
8000a1b0:	25202c64 	addiu	zero,t1,11364
8000a1b4:	202c646c 	addi	t4,at,25708
8000a1b8:	2c646c25 	sltiu	a0,v1,27685
8000a1bc:	646c2520 	0x646c2520
8000a1c0:	6c25202c 	0x6c25202c
8000a1c4:	25202c64 	addiu	zero,t1,11364
8000a1c8:	202c646c 	addi	t4,at,25708
8000a1cc:	20646c25 	addi	a0,v1,27685
8000a1d0:	0000000a 	0xa
8000a1d4:	74736574 	jalx	81cd95d0 <_stack+0x1bce5f0>
8000a1d8:	61747320 	0x61747320
8000a1dc:	000a7472 	0xa7472
8000a1e0:	706d6f63 	0x706d6f63
8000a1e4:	74617475 	jalx	8185d1d4 <_stack+0x17521f4>
8000a1e8:	206e6f69 	addi	t6,v1,28521
8000a1ec:	656e6f64 	0x656e6f64
8000a1f0:	00000a20 	0xa20
8000a1f4:	70206b36 	0x70206b36
8000a1f8:	6f667265 	0x6f667265
8000a1fc:	6e616d72 	0x6e616d72
8000a200:	72206563 	0x72206563
8000a204:	70206e75 	0x70206e75
8000a208:	6d617261 	0x6d617261
8000a20c:	72657465 	0x72657465
8000a210:	6f662073 	0x6f662073
8000a214:	6f632072 	0x6f632072
8000a218:	616d6572 	0x616d6572
8000a21c:	0a2e6b72 	j	88b9adc8 <_stack+0x8a8fde8>
8000a220:	00000000 	nop
8000a224:	76206b36 	jalx	8881acd8 <_stack+0x870fcf8>
8000a228:	64696c61 	0x64696c61
8000a22c:	6f697461 	0x6f697461
8000a230:	7572206e 	jalx	85c881b8 <_stack+0x5b7d1d8>
8000a234:	6170206e 	0x6170206e
8000a238:	656d6172 	0x656d6172
8000a23c:	73726574 	0x73726574
8000a240:	726f6620 	0x726f6620
8000a244:	726f6320 	0x726f6320
8000a248:	72616d65 	0x72616d65
8000a24c:	000a2e6b 	0xa2e6b
8000a250:	666f7250 	0x666f7250
8000a254:	20656c69 	addi	a1,v1,27753
8000a258:	656e6567 	0x656e6567
8000a25c:	69746172 	0x69746172
8000a260:	72206e6f 	0x72206e6f
8000a264:	70206e75 	0x70206e75
8000a268:	6d617261 	0x6d617261
8000a26c:	72657465 	0x72657465
8000a270:	6f662073 	0x6f662073
8000a274:	6f632072 	0x6f632072
8000a278:	616d6572 	0x616d6572
8000a27c:	0a2e6b72 	j	88b9adc8 <_stack+0x8a8fde8>
8000a280:	00000000 	nop
8000a284:	70204b32 	0x70204b32
8000a288:	6f667265 	0x6f667265
8000a28c:	6e616d72 	0x6e616d72
8000a290:	72206563 	0x72206563
8000a294:	70206e75 	0x70206e75
8000a298:	6d617261 	0x6d617261
8000a29c:	72657465 	0x72657465
8000a2a0:	6f662073 	0x6f662073
8000a2a4:	6f632072 	0x6f632072
8000a2a8:	616d6572 	0x616d6572
8000a2ac:	0a2e6b72 	j	88b9adc8 <_stack+0x8a8fde8>
8000a2b0:	00000000 	nop
8000a2b4:	76204b32 	jalx	88812cc8 <_stack+0x8707ce8>
8000a2b8:	64696c61 	0x64696c61
8000a2bc:	6f697461 	0x6f697461
8000a2c0:	7572206e 	jalx	85c881b8 <_stack+0x5b7d1d8>
8000a2c4:	6170206e 	0x6170206e
8000a2c8:	656d6172 	0x656d6172
8000a2cc:	73726574 	0x73726574
8000a2d0:	726f6620 	0x726f6620
8000a2d4:	726f6320 	0x726f6320
8000a2d8:	72616d65 	0x72616d65
8000a2dc:	000a2e6b 	0xa2e6b
8000a2e0:	5d75255b 	0x5d75255b
8000a2e4:	4f525245 	c3	0x1525245
8000a2e8:	6c202152 	0x6c202152
8000a2ec:	20747369 	addi	s4,v1,29545
8000a2f0:	20637263 	addi	v1,v1,29283
8000a2f4:	30257830 	andi	a1,at,0x7830
8000a2f8:	2d207834 	sltiu	zero,t1,30772
8000a2fc:	6f687320 	0x6f687320
8000a300:	20646c75 	addi	a0,v1,27765
8000a304:	30206562 	andi	zero,at,0x6562
8000a308:	34302578 	ori	s0,at,0x2578
8000a30c:	00000a78 	0xa78
8000a310:	5d75255b 	0x5d75255b
8000a314:	4f525245 	c3	0x1525245
8000a318:	6d202152 	0x6d202152
8000a31c:	69727461 	0x69727461
8000a320:	72632078 	0x72632078
8000a324:	78302063 	0x78302063
8000a328:	78343025 	0x78343025
8000a32c:	73202d20 	0x73202d20
8000a330:	6c756f68 	0x6c756f68
8000a334:	65622064 	0x65622064
8000a338:	25783020 	addiu	t8,t3,12320
8000a33c:	0a783430 	j	89e0d0c0 <_stack+0x9d020e0>
8000a340:	00000000 	nop
8000a344:	5d75255b 	0x5d75255b
8000a348:	4f525245 	c3	0x1525245
8000a34c:	73202152 	0x73202152
8000a350:	65746174 	0x65746174
8000a354:	63726320 	0x63726320
8000a358:	25783020 	addiu	t8,t3,12320
8000a35c:	20783430 	addi	t8,v1,13360
8000a360:	6873202d 	0x6873202d
8000a364:	646c756f 	0x646c756f
8000a368:	20656220 	addi	a1,v1,25120
8000a36c:	30257830 	andi	a1,at,0x7830
8000a370:	000a7834 	0xa7834
8000a374:	65726f43 	0x65726f43
8000a378:	6b72614d 	0x6b72614d
8000a37c:	7a695320 	0x7a695320
8000a380:	20202065 	addi	zero,at,8293
8000a384:	25203a20 	addiu	zero,t1,14880
8000a388:	000a756c 	0xa756c
8000a38c:	61746f54 	0x61746f54
8000a390:	736e206c 	0x736e206c
8000a394:	25203a20 	addiu	zero,t1,14880
8000a398:	000a756c 	0xa756c
8000a39c:	72657449 	0x72657449
8000a3a0:	6f697461 	0x6f697461
8000a3a4:	532f736e 	0x532f736e
8000a3a8:	3a206365 	xori	zero,s1,0x6365
8000a3ac:	756c2520 	jalx	85b09480 <_stack+0x59fe4a0>
8000a3b0:	0000000a 	0xa
8000a3b4:	45524f43 	0x45524f43
8000a3b8:	4b52414d 	c2	0x152414d
8000a3bc:	5a484d2f 	0x5a484d2f
8000a3c0:	28203d20 	slti	zero,at,15648
8000a3c4:	30303031 	andi	s0,at,0x3031
8000a3c8:	2e303030 	sltiu	s0,s1,12336
8000a3cc:	50432f30 	0x50432f30
8000a3d0:	4f435f55 	c3	0x1435f55
8000a3d4:	5f544e55 	0x5f544e55
8000a3d8:	5f524550 	0x5f524550
8000a3dc:	2a295355 	slti	t1,s1,21333
8000a3e0:	4345534e 	c0	0x145534e
8000a3e4:	5245505f 	0x5245505f
8000a3e8:	4553555f 	0x4553555f
8000a3ec:	65722a43 	0x65722a43
8000a3f0:	746c7573 	jalx	81b1d5cc <_stack+0x1a125ec>
8000a3f4:	5d305b73 	0x5d305b73
8000a3f8:	6574692e 	0x6574692e
8000a3fc:	69746172 	0x69746172
8000a400:	2f736e6f 	sltiu	s3,k1,28271
8000a404:	61746f74 	0x61746f74
8000a408:	736e5f6c 	0x736e5f6c
8000a40c:	0000000a 	0xa
8000a410:	65207449 	0x65207449
8000a414:	6c617571 	0x6c617571
8000a418:	6f742073 	0x6f742073
8000a41c:	30303120 	andi	s0,at,0x3120
8000a420:	30312a30 	andi	s1,at,0x2a30
8000a424:	692a3030 	0x692a3030
8000a428:	61726574 	0x61726574
8000a42c:	6e6f6974 	0x6e6f6974
8000a430:	746f742f 	jalx	81bdd0bc <_stack+0x1ad20dc>
8000a434:	6e5f6c61 	0x6e5f6c61
8000a438:	00000a73 	0xa73
8000a43c:	74206e49 	jalx	8081b924 <_stack+0x710944>
8000a440:	20736968 	addi	s3,v1,26984
8000a444:	2c6e7572 	sltiu	t6,v1,30066
8000a448:	65746920 	0x65746920
8000a44c:	65746172 	0x65746172
8000a450:	756c253d 	jalx	85b094f4 <_stack+0x59fe514>
8000a454:	6f74202c 	0x6f74202c
8000a458:	5f6c6174 	0x5f6c6174
8000a45c:	253d736e 	addiu	sp,t1,29550
8000a460:	0a0a756c 	j	8829d5b0 <_stack+0x81925d0>
8000a464:	00000000 	nop
8000a468:	61746f54 	0x61746f54
8000a46c:	6974206c 	0x6974206c
8000a470:	20736b63 	addi	s3,v1,27491
8000a474:	20202020 	addi	zero,at,8224
8000a478:	25203a20 	addiu	zero,t1,14880
8000a47c:	000a756c 	0xa756c
8000a480:	61746f54 	0x61746f54
8000a484:	6974206c 	0x6974206c
8000a488:	2820656d 	slti	zero,at,25965
8000a48c:	73636573 	0x73636573
8000a490:	25203a29 	addiu	zero,t1,14889
8000a494:	00000a64 	0xa64
8000a498:	72657449 	0x72657449
8000a49c:	6f697461 	0x6f697461
8000a4a0:	532f736e 	0x532f736e
8000a4a4:	20206365 	addi	zero,at,25445
8000a4a8:	25203a20 	addiu	zero,t1,14880
8000a4ac:	00000a64 	0xa64
8000a4b0:	72657449 	0x72657449
8000a4b4:	6f697461 	0x6f697461
8000a4b8:	2020736e 	addi	zero,at,29550
8000a4bc:	20202020 	addi	zero,at,8224
8000a4c0:	25203a20 	addiu	zero,t1,14880
8000a4c4:	000a756c 	0xa756c
8000a4c8:	39434347 	xori	v1,t2,0x4347
8000a4cc:	312e322e 	andi	t6,t1,0x322e
8000a4d0:	31303220 	andi	s0,t1,0x3220
8000a4d4:	33383039 	andi	t8,t9,0x3039
8000a4d8:	00000031 	0x31
8000a4dc:	706d6f43 	0x706d6f43
8000a4e0:	72656c69 	0x72656c69
8000a4e4:	72657620 	0x72657620
8000a4e8:	6e6f6973 	0x6e6f6973
8000a4ec:	25203a20 	addiu	zero,t1,14880
8000a4f0:	00000a73 	0xa73
8000a4f4:	706d6f43 	0x706d6f43
8000a4f8:	72656c69 	0x72656c69
8000a4fc:	616c6620 	0x616c6620
8000a500:	20207367 	addi	zero,at,29543
8000a504:	25203a20 	addiu	zero,t1,14880
8000a508:	00000a73 	0xa73
8000a50c:	61656c50 	0x61656c50
8000a510:	70206573 	0x70206573
8000a514:	64207475 	0x64207475
8000a518:	20617461 	addi	at,v1,29793
8000a51c:	6f6d656d 	0x6f6d656d
8000a520:	6c207972 	0x6c207972
8000a524:	7461636f 	jalx	81858dbc <_stack+0x174dddc>
8000a528:	206e6f69 	addi	t6,v1,28521
8000a52c:	65726568 	0x65726568
8000a530:	0909090a 	j	84242428 <_stack+0x4137448>
8000a534:	672e6528 	0x672e6528
8000a538:	6f63202e 	0x6f63202e
8000a53c:	69206564 	0x69206564
8000a540:	6c66206e 	0x6c66206e
8000a544:	2c687361 	sltiu	t0,v1,29537
8000a548:	74616420 	jalx	81859080 <_stack+0x174e0a0>
8000a54c:	6e6f2061 	0x6e6f2061
8000a550:	61656820 	0x61656820
8000a554:	74652070 	jalx	819481c0 <_stack+0x183d1e0>
8000a558:	00002963 	0x2963
8000a55c:	6f6d654d 	0x6f6d654d
8000a560:	6c207972 	0x6c207972
8000a564:	7461636f 	jalx	81858dbc <_stack+0x174dddc>
8000a568:	206e6f69 	addi	t6,v1,28521
8000a56c:	25203a20 	addiu	zero,t1,14880
8000a570:	00000a73 	0xa73
8000a574:	64656573 	0x64656573
8000a578:	20637263 	addi	v1,v1,29283
8000a57c:	20202020 	addi	zero,at,8224
8000a580:	20202020 	addi	zero,at,8224
8000a584:	30203a20 	andi	zero,at,0x3a20
8000a588:	34302578 	ori	s0,at,0x2578
8000a58c:	00000a78 	0xa78
8000a590:	5d64255b 	0x5d64255b
8000a594:	6c637263 	0x6c637263
8000a598:	20747369 	addi	s4,v1,29545
8000a59c:	20202020 	addi	zero,at,8224
8000a5a0:	203a2020 	addi	k0,at,8224
8000a5a4:	30257830 	andi	a1,at,0x7830
8000a5a8:	000a7834 	0xa7834
8000a5ac:	5d64255b 	0x5d64255b
8000a5b0:	6d637263 	0x6d637263
8000a5b4:	69727461 	0x69727461
8000a5b8:	20202078 	addi	zero,at,8312
8000a5bc:	203a2020 	addi	k0,at,8224
8000a5c0:	30257830 	andi	a1,at,0x7830
8000a5c4:	000a7834 	0xa7834
8000a5c8:	5d64255b 	0x5d64255b
8000a5cc:	73637263 	0x73637263
8000a5d0:	65746174 	0x65746174
8000a5d4:	20202020 	addi	zero,at,8224
8000a5d8:	203a2020 	addi	k0,at,8224
8000a5dc:	30257830 	andi	a1,at,0x7830
8000a5e0:	000a7834 	0xa7834
8000a5e4:	5d64255b 	0x5d64255b
8000a5e8:	66637263 	0x66637263
8000a5ec:	6c616e69 	0x6c616e69
8000a5f0:	20202020 	addi	zero,at,8224
8000a5f4:	203a2020 	addi	k0,at,8224
8000a5f8:	30257830 	andi	a1,at,0x7830
8000a5fc:	000a7834 	0xa7834
8000a600:	72726f43 	0x72726f43
8000a604:	20746365 	addi	s4,v1,25445
8000a608:	7265706f 	0x7265706f
8000a60c:	6f697461 	0x6f697461
8000a610:	6176206e 	0x6176206e
8000a614:	6164696c 	0x6164696c
8000a618:	2e646574 	sltiu	a0,s3,25972
8000a61c:	65655320 	0x65655320
8000a620:	61657220 	0x61657220
8000a624:	2e656d64 	sltiu	a1,s3,28004
8000a628:	20747874 	addi	s4,v1,30836
8000a62c:	20726f66 	addi	s2,v1,28518
8000a630:	206e7572 	addi	t6,v1,30066
8000a634:	20646e61 	addi	a0,v1,28257
8000a638:	6f706572 	0x6f706572
8000a63c:	6e697472 	0x6e697472
8000a640:	75722067 	jalx	85c8819c <_stack+0x5b7d1bc>
8000a644:	2e73656c 	sltiu	s3,s3,25964
8000a648:	0000000a 	0xa
8000a64c:	6f727245 	0x6f727245
8000a650:	64207372 	0x64207372
8000a654:	63657465 	0x63657465
8000a658:	0a646574 	j	899195d0 <_stack+0x980e5f0>
8000a65c:	00000000 	nop
8000a660:	6e6e6143 	0x6e6e6143
8000a664:	7620746f 	jalx	8881d1bc <_stack+0x87121dc>
8000a668:	64696c61 	0x64696c61
8000a66c:	20657461 	addi	a1,v1,29793
8000a670:	7265706f 	0x7265706f
8000a674:	6f697461 	0x6f697461
8000a678:	6f66206e 	0x6f66206e
8000a67c:	68742072 	0x68742072
8000a680:	20657365 	addi	a1,v1,29541
8000a684:	64656573 	0x64656573
8000a688:	6c617620 	0x6c617620
8000a68c:	2c736575 	sltiu	s3,v1,25973
8000a690:	656c7020 	0x656c7020
8000a694:	20657361 	addi	a1,v1,29537
8000a698:	706d6f63 	0x706d6f63
8000a69c:	20657261 	addi	a1,v1,29281
8000a6a0:	68746977 	0x68746977
8000a6a4:	73657220 	0x73657220
8000a6a8:	73746c75 	0x73746c75
8000a6ac:	206e6f20 	addi	t6,v1,28448
8000a6b0:	6e6b2061 	0x6e6b2061
8000a6b4:	206e776f 	addi	t6,v1,30575
8000a6b8:	74616c70 	jalx	8185b1c0 <_stack+0x17501e0>
8000a6bc:	6d726f66 	0x6d726f66
8000a6c0:	00000a2e 	0xa2e
8000a6c4:	74617453 	jalx	8185d14c <_stack+0x175216c>
8000a6c8:	00006369 	0x6369
8000a6cc:	70616548 	0x70616548
8000a6d0:	00000000 	nop
8000a6d4:	63617453 	0x63617453
8000a6d8:	0000006b 	0x6b
8000a6dc:	332e3054 	andi	t6,t9,0x3054
8000a6e0:	46312d65 	c1	0x312d65
8000a6e4:	00000000 	nop
8000a6e8:	542e542d 	0x542e542d
8000a6ec:	71542b2b 	0x71542b2b
8000a6f0:	00000000 	nop
8000a6f4:	2e335431 	sltiu	s3,s1,21553
8000a6f8:	7a346534 	0x7a346534
8000a6fc:	00000000 	nop
8000a700:	302e3433 	andi	t6,at,0x3433
8000a704:	5e542d65 	0x5e542d65
8000a708:	00000000 	nop
8000a70c:	30352e35 	andi	s5,at,0x2e35
8000a710:	332b6530 	andi	t3,t9,0x6530
8000a714:	00000000 	nop
8000a718:	32312e2d 	andi	s1,s1,0x2e2d
8000a71c:	322d6533 	andi	t5,s1,0x6533
8000a720:	00000000 	nop
8000a724:	6537382d 	0x6537382d
8000a728:	3233382b 	andi	s3,s1,0x382b
8000a72c:	00000000 	nop
8000a730:	362e302b 	ori	t6,s1,0x302b
8000a734:	32312d65 	andi	s1,s1,0x2d65
8000a738:	00000000 	nop
8000a73c:	352e3533 	ori	t6,t1,0x3533
8000a740:	30303434 	andi	s0,at,0x3434
8000a744:	00000000 	nop
8000a748:	3332312e 	andi	s2,t9,0x312e
8000a74c:	30303534 	andi	s0,at,0x3534
8000a750:	00000000 	nop
8000a754:	3031312d 	andi	s1,at,0x312d
8000a758:	3030372e 	andi	s0,at,0x372e
8000a75c:	00000000 	nop
8000a760:	362e302b 	ori	t6,s1,0x302b
8000a764:	30303434 	andi	s0,at,0x3434
8000a768:	00000000 	nop
8000a76c:	32313035 	andi	s1,s1,0x3035
8000a770:	00000000 	nop
8000a774:	34333231 	ori	s3,at,0x3231
8000a778:	00000000 	nop
8000a77c:	3437382d 	ori	s7,at,0x382d
8000a780:	00000000 	nop
8000a784:	3232312b 	andi	s2,s1,0x312b
	...

8000a790 <errpat>:
8000a790:	8000a6dc 8000a6e8 8000a6f4 8000a700     ................

8000a7a0 <scipat>:
8000a7a0:	8000a70c 8000a718 8000a724 8000a730     ........$...0...

8000a7b0 <floatpat>:
8000a7b0:	8000a73c 8000a748 8000a754 8000a760     <...H...T...`...

8000a7c0 <intpat>:
8000a7c0:	8000a76c 8000a774 8000a77c 8000a784     l...t...|.......
8000a7d0:	72656854 73692065 206e6120 65637865     There is an exce
8000a7e0:	6f697470 0a21216e 00000000 20656854     ption!!.....The 
8000a7f0:	20637065 25207369 00000a78 20656854     epc is %x...The 
8000a800:	73756163 73692065 0a782520 00000000     cause is %x.....
8000a810:	80009e2c 80009d4c 80009d4c 80009d4c     ,...L...L...L...
8000a820:	80009d4c 80009d4c 80009d4c 80009d4c     L...L...L...L...
8000a830:	80009d4c 80009d4c 80009d4c 80009ce8     L...L...L.......
8000a840:	80009cf4 80009cf4 80009cf4 80009cf4     ................
8000a850:	80009cf4 80009cf4 80009cf4 80009cf4     ................
8000a860:	80009cf4 80009d4c 80009d4c 80009d4c     ....L...L...L...
8000a870:	80009d4c 80009d4c 80009d4c 80009d4c     L...L...L...L...
8000a880:	80009d4c 80009d4c 80009d4c 80009d4c     L...L...L...L...
8000a890:	80009d4c 80009d4c 80009d4c 80009d4c     L...L...L...L...
8000a8a0:	80009d4c 80009d4c 80009d4c 80009d4c     L...L...L...L...
8000a8b0:	80009d4c 80009d4c 80009d4c 80009d4c     L...L...L...L...
8000a8c0:	80009d4c 80009d4c 80009d4c 80009d4c     L...L...L...L...
8000a8d0:	80009d4c 80009d4c 80009d4c 80009d4c     L...L...L...L...
8000a8e0:	80009d4c 80009d4c 80009d4c 80009d4c     L...L...L...L...
8000a8f0:	80009d4c 80009d4c 80009d4c 80009d4c     L...L...L...L...
8000a900:	80009d4c 80009dbc 80009d8c 80009da0     L...............
8000a910:	80009d4c 80009d4c 80009d4c 80009d4c     L...L...L...L...
8000a920:	80009d4c 80009d4c 80009d4c 80009df4     L...L...L.......
8000a930:	80009d4c 80009d4c 80009e10 80009d5c     L...L.......\...
8000a940:	80009d4c 80009d4c 80009d78 80009d4c     L...L...x...L...
8000a950:	80009dd8 80009d4c 80009d4c 80009d5c     ....L...L...\...
8000a960:	636f6c63 736e206b 2c64253d 3d636573     clock ns=%d,sec=
8000a970:	000a6425 b0000602 00000000 00000000     %d..............
	...
8000a990:	00010000 03000001 00000000 00000000     ................
	...
