
obj/crc32/main.elf:     file format elf32-tradlittlemips
obj/crc32/main.elf


Disassembly of section .text:

80000000 <_ftext>:
_ftext():
80000000:	3c0a0040 	lui	t2,0x40
80000004:	408a6000 	mtc0	t2,c0_sr
80000008:	40806800 	mtc0	zero,c0_cause
8000000c:	3c1d8010 	lui	sp,0x8010
80000010:	27bd1fe0 	addiu	sp,sp,8160
80000014:	3c1c8001 	lui	gp,0x8001
80000018:	279c9ff0 	addiu	gp,gp,-24592
8000001c:	0c0000e4 	jal	80000390 <shell>
80000020:	00000000 	nop

80000024 <loop>:
loop():
80000024:	08000009 	j	80000024 <loop>

80000028 <exit>:
exit():
80000028:	340900ff 	li	t1,0xff
8000002c:	3c018000 	lui	at,0x8000
80000030:	a0297ffc 	sb	t1,32764(at)
	...
80000380:	0c0002ca 	jal	80000b28 <exception>
80000384:	00000000 	nop
80000388:	0800000a 	j	80000028 <exit>
8000038c:	00000000 	nop

80000390 <shell>:
shell():
80000390:	27bdffd0 	addiu	sp,sp,-48
80000394:	afbf002c 	sw	ra,44(sp)
80000398:	afb30028 	sw	s3,40(sp)
8000039c:	afb20024 	sw	s2,36(sp)
800003a0:	afb10020 	sw	s1,32(sp)
800003a4:	0c000504 	jal	80001410 <get_count>
800003a8:	afb0001c 	sw	s0,28(sp)
800003ac:	0c000535 	jal	800014d4 <get_us>
800003b0:	00409825 	move	s3,v0
800003b4:	0c000244 	jal	80000910 <crc32>
800003b8:	00409025 	move	s2,v0
800003bc:	0c000504 	jal	80001410 <get_count>
800003c0:	00408825 	move	s1,v0
800003c4:	0c000535 	jal	800014d4 <get_us>
800003c8:	00408025 	move	s0,v0
800003cc:	00523023 	subu	a2,v0,s2
800003d0:	02132823 	subu	a1,s0,s3
800003d4:	afa60014 	sw	a2,20(sp)
800003d8:	16200011 	bnez	s1,80000420 <shell+0x90>
800003dc:	afa50010 	sw	a1,16(sp)
800003e0:	3c028000 	lui	v0,0x8000
800003e4:	0c0003a6 	jal	80000e98 <puts>
800003e8:	24441630 	addiu	a0,v0,5680
800003ec:	8fa50010 	lw	a1,16(sp)
800003f0:	8fa60014 	lw	a2,20(sp)
800003f4:	8fbf002c 	lw	ra,44(sp)
800003f8:	8fb30028 	lw	s3,40(sp)
800003fc:	8fb20024 	lw	s2,36(sp)
80000400:	8fb10020 	lw	s1,32(sp)
80000404:	8fb0001c 	lw	s0,28(sp)
80000408:	3c038000 	lui	v1,0x8000
8000040c:	24641658 	addiu	a0,v1,5720
80000410:	080002dc 	j	80000b70 <printf>
80000414:	27bd0030 	addiu	sp,sp,48
	...
80000420:	3c048000 	lui	a0,0x8000
80000424:	0c0003a6 	jal	80000e98 <puts>
80000428:	24841644 	addiu	a0,a0,5700
8000042c:	8fa60014 	lw	a2,20(sp)
80000430:	8fa50010 	lw	a1,16(sp)
80000434:	8fbf002c 	lw	ra,44(sp)
80000438:	8fb30028 	lw	s3,40(sp)
8000043c:	8fb20024 	lw	s2,36(sp)
80000440:	8fb10020 	lw	s1,32(sp)
80000444:	8fb0001c 	lw	s0,28(sp)
80000448:	3c038000 	lui	v1,0x8000
8000044c:	24641658 	addiu	a0,v1,5720
80000450:	080002dc 	j	80000b70 <printf>
80000454:	27bd0030 	addiu	sp,sp,48
	...

80000460 <updateCRC32>:
updateCRC32():
80000460:	00851826 	xor	v1,a0,a1
80000464:	306200ff 	andi	v0,v1,0xff
80000468:	3c068000 	lui	a2,0x8000
8000046c:	00022080 	sll	a0,v0,0x2
80000470:	24c716b0 	addiu	a3,a2,5808
80000474:	00874021 	addu	t0,a0,a3
80000478:	8d090000 	lw	t1,0(t0)
8000047c:	00052a02 	srl	a1,a1,0x8
80000480:	03e00008 	jr	ra
80000484:	00a91026 	xor	v0,a1,t1
	...

80000490 <crc32file>:
crc32file():
80000490:	27bdffc8 	addiu	sp,sp,-56
80000494:	8f848010 	lw	a0,-32752(gp)
80000498:	afbf0034 	sw	ra,52(sp)
8000049c:	afb70030 	sw	s7,48(sp)
800004a0:	afb6002c 	sw	s6,44(sp)
800004a4:	afb50028 	sw	s5,40(sp)
800004a8:	afb40024 	sw	s4,36(sp)
800004ac:	afb30020 	sw	s3,32(sp)
800004b0:	afb2001c 	sw	s2,28(sp)
800004b4:	afb10018 	sw	s1,24(sp)
800004b8:	afb00014 	sw	s0,20(sp)
800004bc:	acc00000 	sw	zero,0(a2)
800004c0:	00c0b825 	move	s7,a2
800004c4:	0c0003b4 	jal	80000ed0 <fopen>
800004c8:	00a0b025 	move	s6,a1
800004cc:	3c048000 	lui	a0,0x8000
800004d0:	00409025 	move	s2,v0
800004d4:	0c0003a6 	jal	80000e98 <puts>
800004d8:	24841670 	addiu	a0,a0,5744
800004dc:	8e440000 	lw	a0,0(s2)
800004e0:	0c000440 	jal	80001100 <strlen>
800004e4:	3c138000 	lui	s3,0x8000
800004e8:	00402825 	move	a1,v0
800004ec:	3c028000 	lui	v0,0x8000
800004f0:	0c0002dc 	jal	80000b70 <printf>
800004f4:	24441678 	addiu	a0,v0,5752
800004f8:	0c00042a 	jal	800010a8 <getc>
800004fc:	02402025 	move	a0,s2
80000500:	26731684 	addiu	s3,s3,5764
80000504:	3c148000 	lui	s4,0x8000
80000508:	2415ffff 	li	s5,-1
8000050c:	2410ffff 	li	s0,-1
80000510:	269416b0 	addiu	s4,s4,5808
80000514:	02602025 	move	a0,s3
80000518:	10550045 	beq	v0,s5,80000630 <crc32file+0x1a0>
8000051c:	00408825 	move	s1,v0
80000520:	8ee50000 	lw	a1,0(s7)
80000524:	00000000 	nop
80000528:	24a50001 	addiu	a1,a1,1
8000052c:	0c0002dc 	jal	80000b70 <printf>
80000530:	aee50000 	sw	a1,0(s7)
80000534:	02111826 	xor	v1,s0,s1
80000538:	306600ff 	andi	a2,v1,0xff
8000053c:	00063880 	sll	a3,a2,0x2
80000540:	00f44021 	addu	t0,a3,s4
80000544:	8d090000 	lw	t1,0(t0)
80000548:	02402025 	move	a0,s2
8000054c:	00108202 	srl	s0,s0,0x8
80000550:	0c00042a 	jal	800010a8 <getc>
80000554:	01308026 	xor	s0,t1,s0
80000558:	00408825 	move	s1,v0
8000055c:	10550034 	beq	v0,s5,80000630 <crc32file+0x1a0>
80000560:	02602025 	move	a0,s3
80000564:	8eea0000 	lw	t2,0(s7)
80000568:	00000000 	nop
8000056c:	25450001 	addiu	a1,t2,1
80000570:	0c0002dc 	jal	80000b70 <printf>
80000574:	aee50000 	sw	a1,0(s7)
80000578:	02115826 	xor	t3,s0,s1
8000057c:	316c00ff 	andi	t4,t3,0xff
80000580:	000c6880 	sll	t5,t4,0x2
80000584:	01b47021 	addu	t6,t5,s4
80000588:	8dcf0000 	lw	t7,0(t6)
8000058c:	02402025 	move	a0,s2
80000590:	0010c202 	srl	t8,s0,0x8
80000594:	0c00042a 	jal	800010a8 <getc>
80000598:	01f88026 	xor	s0,t7,t8
8000059c:	00408825 	move	s1,v0
800005a0:	10550023 	beq	v0,s5,80000630 <crc32file+0x1a0>
800005a4:	02602025 	move	a0,s3
800005a8:	8ef90000 	lw	t9,0(s7)
800005ac:	00000000 	nop
800005b0:	27250001 	addiu	a1,t9,1
800005b4:	0c0002dc 	jal	80000b70 <printf>
800005b8:	aee50000 	sw	a1,0(s7)
800005bc:	02112026 	xor	a0,s0,s1
800005c0:	308200ff 	andi	v0,a0,0xff
800005c4:	00022880 	sll	a1,v0,0x2
800005c8:	00b41821 	addu	v1,a1,s4
800005cc:	8c660000 	lw	a2,0(v1)
800005d0:	02402025 	move	a0,s2
800005d4:	00103a02 	srl	a3,s0,0x8
800005d8:	0c00042a 	jal	800010a8 <getc>
800005dc:	00c78026 	xor	s0,a2,a3
800005e0:	00408825 	move	s1,v0
800005e4:	10550012 	beq	v0,s5,80000630 <crc32file+0x1a0>
800005e8:	02602025 	move	a0,s3
800005ec:	8ee80000 	lw	t0,0(s7)
800005f0:	00000000 	nop
800005f4:	25050001 	addiu	a1,t0,1
800005f8:	0c0002dc 	jal	80000b70 <printf>
800005fc:	aee50000 	sw	a1,0(s7)
80000600:	02114826 	xor	t1,s0,s1
80000604:	312a00ff 	andi	t2,t1,0xff
80000608:	000a5880 	sll	t3,t2,0x2
8000060c:	01746021 	addu	t4,t3,s4
80000610:	8d8d0000 	lw	t5,0(t4)
80000614:	02402025 	move	a0,s2
80000618:	00108202 	srl	s0,s0,0x8
8000061c:	0c00042a 	jal	800010a8 <getc>
80000620:	01b08026 	xor	s0,t5,s0
80000624:	00408825 	move	s1,v0
80000628:	1455ffbd 	bne	v0,s5,80000520 <crc32file+0x90>
8000062c:	02602025 	move	a0,s3
80000630:	3c1f8000 	lui	ra,0x8000
80000634:	27e4168c 	addiu	a0,ra,5772
80000638:	2405ffff 	li	a1,-1
8000063c:	0c0002dc 	jal	80000b70 <printf>
80000640:	3c178000 	lui	s7,0x8000
80000644:	0c0003a6 	jal	80000e98 <puts>
80000648:	26e41690 	addiu	a0,s7,5776
8000064c:	0c000401 	jal	80001004 <fclose>
80000650:	02402025 	move	a0,s2
80000654:	8fbf0034 	lw	ra,52(sp)
80000658:	00109027 	nor	s2,zero,s0
8000065c:	aed20000 	sw	s2,0(s6)
80000660:	8fb70030 	lw	s7,48(sp)
80000664:	8fb6002c 	lw	s6,44(sp)
80000668:	8fb50028 	lw	s5,40(sp)
8000066c:	8fb40024 	lw	s4,36(sp)
80000670:	8fb30020 	lw	s3,32(sp)
80000674:	8fb2001c 	lw	s2,28(sp)
80000678:	8fb10018 	lw	s1,24(sp)
8000067c:	8fb00014 	lw	s0,20(sp)
80000680:	00001025 	move	v0,zero
80000684:	03e00008 	jr	ra
80000688:	27bd0038 	addiu	sp,sp,56
8000068c:	00000000 	nop

80000690 <crc32buf>:
crc32buf():
80000690:	10a0009b 	beqz	a1,80000900 <crc32buf+0x270>
80000694:	3c038000 	lui	v1,0x8000
80000698:	30a70007 	andi	a3,a1,0x7
8000069c:	00853021 	addu	a2,a0,a1
800006a0:	2402ffff 	li	v0,-1
800006a4:	10e00045 	beqz	a3,800007bc <crc32buf+0x12c>
800006a8:	246916b0 	addiu	t1,v1,5808
800006ac:	24050001 	li	a1,1
800006b0:	10e50038 	beq	a3,a1,80000794 <crc32buf+0x104>
800006b4:	24080002 	li	t0,2
800006b8:	10e8002d 	beq	a3,t0,80000770 <crc32buf+0xe0>
800006bc:	240a0003 	li	t2,3
800006c0:	10ea0022 	beq	a3,t2,8000074c <crc32buf+0xbc>
800006c4:	240b0004 	li	t3,4
800006c8:	10eb0017 	beq	a3,t3,80000728 <crc32buf+0x98>
800006cc:	240c0005 	li	t4,5
800006d0:	10ec000c 	beq	a3,t4,80000704 <crc32buf+0x74>
800006d4:	240d0006 	li	t5,6
800006d8:	14ed007d 	bne	a3,t5,800008d0 <crc32buf+0x240>
800006dc:	00000000 	nop
800006e0:	90830000 	lbu	v1,0(a0)
800006e4:	00022a02 	srl	a1,v0,0x8
800006e8:	00624026 	xor	t0,v1,v0
800006ec:	310a00ff 	andi	t2,t0,0xff
800006f0:	000a5880 	sll	t3,t2,0x2
800006f4:	012b6021 	addu	t4,t1,t3
800006f8:	8d8d0000 	lw	t5,0(t4)
800006fc:	24840001 	addiu	a0,a0,1
80000700:	01a51026 	xor	v0,t5,a1
80000704:	908e0000 	lbu	t6,0(a0)
80000708:	00027a02 	srl	t7,v0,0x8
8000070c:	01c21026 	xor	v0,t6,v0
80000710:	305800ff 	andi	t8,v0,0xff
80000714:	0018c880 	sll	t9,t8,0x2
80000718:	01393821 	addu	a3,t1,t9
8000071c:	8ce30000 	lw	v1,0(a3)
80000720:	24840001 	addiu	a0,a0,1
80000724:	006f1026 	xor	v0,v1,t7
80000728:	90850000 	lbu	a1,0(a0)
8000072c:	00024202 	srl	t0,v0,0x8
80000730:	00a25026 	xor	t2,a1,v0
80000734:	314b00ff 	andi	t3,t2,0xff
80000738:	000b6080 	sll	t4,t3,0x2
8000073c:	012c6821 	addu	t5,t1,t4
80000740:	8dae0000 	lw	t6,0(t5)
80000744:	24840001 	addiu	a0,a0,1
80000748:	01c81026 	xor	v0,t6,t0
8000074c:	908f0000 	lbu	t7,0(a0)
80000750:	0002c202 	srl	t8,v0,0x8
80000754:	01e21026 	xor	v0,t7,v0
80000758:	305900ff 	andi	t9,v0,0xff
8000075c:	00193880 	sll	a3,t9,0x2
80000760:	01271821 	addu	v1,t1,a3
80000764:	8c650000 	lw	a1,0(v1)
80000768:	24840001 	addiu	a0,a0,1
8000076c:	00b81026 	xor	v0,a1,t8
80000770:	90880000 	lbu	t0,0(a0)
80000774:	00025202 	srl	t2,v0,0x8
80000778:	01025826 	xor	t3,t0,v0
8000077c:	316c00ff 	andi	t4,t3,0xff
80000780:	000c6880 	sll	t5,t4,0x2
80000784:	012d7021 	addu	t6,t1,t5
80000788:	8dcf0000 	lw	t7,0(t6)
8000078c:	24840001 	addiu	a0,a0,1
80000790:	01ea1026 	xor	v0,t7,t2
80000794:	90980000 	lbu	t8,0(a0)
80000798:	0002ca02 	srl	t9,v0,0x8
8000079c:	03021026 	xor	v0,t8,v0
800007a0:	304700ff 	andi	a3,v0,0xff
800007a4:	00071880 	sll	v1,a3,0x2
800007a8:	01232821 	addu	a1,t1,v1
800007ac:	8ca80000 	lw	t0,0(a1)
800007b0:	24840001 	addiu	a0,a0,1
800007b4:	10860043 	beq	a0,a2,800008c4 <crc32buf+0x234>
800007b8:	01191026 	xor	v0,t0,t9
800007bc:	908a0000 	lbu	t2,0(a0)
800007c0:	908b0001 	lbu	t3,1(a0)
800007c4:	01426026 	xor	t4,t2,v0
800007c8:	318d00ff 	andi	t5,t4,0xff
800007cc:	000d7080 	sll	t6,t5,0x2
800007d0:	012e7821 	addu	t7,t1,t6
800007d4:	8df80000 	lw	t8,0(t7)
800007d8:	0002ca02 	srl	t9,v0,0x8
800007dc:	03193826 	xor	a3,t8,t9
800007e0:	01671826 	xor	v1,t3,a3
800007e4:	306500ff 	andi	a1,v1,0xff
800007e8:	00054080 	sll	t0,a1,0x2
800007ec:	01281021 	addu	v0,t1,t0
800007f0:	8c4a0000 	lw	t2,0(v0)
800007f4:	908b0002 	lbu	t3,2(a0)
800007f8:	00076202 	srl	t4,a3,0x8
800007fc:	014c6826 	xor	t5,t2,t4
80000800:	016d7026 	xor	t6,t3,t5
80000804:	31cf00ff 	andi	t7,t6,0xff
80000808:	000fc080 	sll	t8,t7,0x2
8000080c:	0138c821 	addu	t9,t1,t8
80000810:	8f270000 	lw	a3,0(t9)
80000814:	90830003 	lbu	v1,3(a0)
80000818:	000d2a02 	srl	a1,t5,0x8
8000081c:	00e55026 	xor	t2,a3,a1
80000820:	006a4026 	xor	t0,v1,t2
80000824:	310200ff 	andi	v0,t0,0xff
80000828:	00025880 	sll	t3,v0,0x2
8000082c:	012b6021 	addu	t4,t1,t3
80000830:	8d8d0000 	lw	t5,0(t4)
80000834:	908e0004 	lbu	t6,4(a0)
80000838:	000a7a02 	srl	t7,t2,0x8
8000083c:	01afc026 	xor	t8,t5,t7
80000840:	01d8c826 	xor	t9,t6,t8
80000844:	332700ff 	andi	a3,t9,0xff
80000848:	00071880 	sll	v1,a3,0x2
8000084c:	01232821 	addu	a1,t1,v1
80000850:	8caa0000 	lw	t2,0(a1)
80000854:	90820005 	lbu	v0,5(a0)
80000858:	00184202 	srl	t0,t8,0x8
8000085c:	01485826 	xor	t3,t2,t0
80000860:	004b6026 	xor	t4,v0,t3
80000864:	318d00ff 	andi	t5,t4,0xff
80000868:	000d7080 	sll	t6,t5,0x2
8000086c:	012e7821 	addu	t7,t1,t6
80000870:	8df80000 	lw	t8,0(t7)
80000874:	90990006 	lbu	t9,6(a0)
80000878:	000b3a02 	srl	a3,t3,0x8
8000087c:	03071826 	xor	v1,t8,a3
80000880:	03232826 	xor	a1,t9,v1
80000884:	30aa00ff 	andi	t2,a1,0xff
80000888:	000a1080 	sll	v0,t2,0x2
8000088c:	01224021 	addu	t0,t1,v0
80000890:	8d0b0000 	lw	t3,0(t0)
80000894:	908c0007 	lbu	t4,7(a0)
80000898:	00036a02 	srl	t5,v1,0x8
8000089c:	016d7026 	xor	t6,t3,t5
800008a0:	018e7826 	xor	t7,t4,t6
800008a4:	31f800ff 	andi	t8,t7,0xff
800008a8:	0018c880 	sll	t9,t8,0x2
800008ac:	01393821 	addu	a3,t1,t9
800008b0:	8ce30000 	lw	v1,0(a3)
800008b4:	000e2a02 	srl	a1,t6,0x8
800008b8:	24840008 	addiu	a0,a0,8
800008bc:	1486ffbf 	bne	a0,a2,800007bc <crc32buf+0x12c>
800008c0:	00651026 	xor	v0,v1,a1
800008c4:	03e00008 	jr	ra
800008c8:	00021027 	nor	v0,zero,v0
800008cc:	00000000 	nop
800008d0:	908e0000 	lbu	t6,0(a0)
800008d4:	00021202 	srl	v0,v0,0x8
800008d8:	000e7880 	sll	t7,t6,0x2
800008dc:	39f803fc 	xori	t8,t7,0x3fc
800008e0:	0138c821 	addu	t9,t1,t8
800008e4:	8f270000 	lw	a3,0(t9)
800008e8:	24840001 	addiu	a0,a0,1
800008ec:	1000ff7c 	b	800006e0 <crc32buf+0x50>
800008f0:	00e21026 	xor	v0,a3,v0
	...
80000900:	03e00008 	jr	ra
80000904:	00001025 	move	v0,zero
	...

80000910 <crc32>:
crc32():
80000910:	8f848010 	lw	a0,-32752(gp)
80000914:	27bdffc8 	addiu	sp,sp,-56
80000918:	afbf0034 	sw	ra,52(sp)
8000091c:	afb6002c 	sw	s6,44(sp)
80000920:	afb50028 	sw	s5,40(sp)
80000924:	afb40024 	sw	s4,36(sp)
80000928:	afb30020 	sw	s3,32(sp)
8000092c:	afb2001c 	sw	s2,28(sp)
80000930:	afb10018 	sw	s1,24(sp)
80000934:	afb00014 	sw	s0,20(sp)
80000938:	0c0003b4 	jal	80000ed0 <fopen>
8000093c:	afb70030 	sw	s7,48(sp)
80000940:	3c048000 	lui	a0,0x8000
80000944:	00409825 	move	s3,v0
80000948:	0c0003a6 	jal	80000e98 <puts>
8000094c:	24841670 	addiu	a0,a0,5744
80000950:	8e640000 	lw	a0,0(s3)
80000954:	0c000440 	jal	80001100 <strlen>
80000958:	3c158000 	lui	s5,0x8000
8000095c:	00402825 	move	a1,v0
80000960:	3c028000 	lui	v0,0x8000
80000964:	0c0002dc 	jal	80000b70 <printf>
80000968:	24441678 	addiu	a0,v0,5752
8000096c:	0c00042a 	jal	800010a8 <getc>
80000970:	02602025 	move	a0,s3
80000974:	26b51684 	addiu	s5,s5,5764
80000978:	3c148000 	lui	s4,0x8000
8000097c:	2416ffff 	li	s6,-1
80000980:	00008825 	move	s1,zero
80000984:	2410ffff 	li	s0,-1
80000988:	269416b0 	addiu	s4,s4,5808
8000098c:	02a02025 	move	a0,s5
80000990:	1056003e 	beq	v0,s6,80000a8c <crc32+0x17c>
80000994:	00409025 	move	s2,v0
80000998:	26310001 	addiu	s1,s1,1
8000099c:	0c0002dc 	jal	80000b70 <printf>
800009a0:	02202825 	move	a1,s1
800009a4:	02121826 	xor	v1,s0,s2
800009a8:	306500ff 	andi	a1,v1,0xff
800009ac:	00053080 	sll	a2,a1,0x2
800009b0:	00d43821 	addu	a3,a2,s4
800009b4:	8ce80000 	lw	t0,0(a3)
800009b8:	02602025 	move	a0,s3
800009bc:	00108202 	srl	s0,s0,0x8
800009c0:	0c00042a 	jal	800010a8 <getc>
800009c4:	01108026 	xor	s0,t0,s0
800009c8:	0220b825 	move	s7,s1
800009cc:	02a02025 	move	a0,s5
800009d0:	1056002e 	beq	v0,s6,80000a8c <crc32+0x17c>
800009d4:	00409025 	move	s2,v0
800009d8:	26310001 	addiu	s1,s1,1
800009dc:	0c0002dc 	jal	80000b70 <printf>
800009e0:	02202825 	move	a1,s1
800009e4:	02124826 	xor	t1,s0,s2
800009e8:	312a00ff 	andi	t2,t1,0xff
800009ec:	000a5880 	sll	t3,t2,0x2
800009f0:	01746021 	addu	t4,t3,s4
800009f4:	8d8d0000 	lw	t5,0(t4)
800009f8:	02602025 	move	a0,s3
800009fc:	00107202 	srl	t6,s0,0x8
80000a00:	0c00042a 	jal	800010a8 <getc>
80000a04:	01ae8026 	xor	s0,t5,t6
80000a08:	00409025 	move	s2,v0
80000a0c:	1056001f 	beq	v0,s6,80000a8c <crc32+0x17c>
80000a10:	02a02025 	move	a0,s5
80000a14:	26f10002 	addiu	s1,s7,2
80000a18:	0c0002dc 	jal	80000b70 <printf>
80000a1c:	02202825 	move	a1,s1
80000a20:	02127826 	xor	t7,s0,s2
80000a24:	31f800ff 	andi	t8,t7,0xff
80000a28:	0018c880 	sll	t9,t8,0x2
80000a2c:	03342021 	addu	a0,t9,s4
80000a30:	8c820000 	lw	v0,0(a0)
80000a34:	00101a02 	srl	v1,s0,0x8
80000a38:	02602025 	move	a0,s3
80000a3c:	0c00042a 	jal	800010a8 <getc>
80000a40:	00438026 	xor	s0,v0,v1
80000a44:	00409025 	move	s2,v0
80000a48:	10560010 	beq	v0,s6,80000a8c <crc32+0x17c>
80000a4c:	02a02025 	move	a0,s5
80000a50:	26f10003 	addiu	s1,s7,3
80000a54:	0c0002dc 	jal	80000b70 <printf>
80000a58:	02202825 	move	a1,s1
80000a5c:	02122826 	xor	a1,s0,s2
80000a60:	30a600ff 	andi	a2,a1,0xff
80000a64:	00063880 	sll	a3,a2,0x2
80000a68:	00f44021 	addu	t0,a3,s4
80000a6c:	8d090000 	lw	t1,0(t0)
80000a70:	02602025 	move	a0,s3
80000a74:	00108202 	srl	s0,s0,0x8
80000a78:	0c00042a 	jal	800010a8 <getc>
80000a7c:	01308026 	xor	s0,t1,s0
80000a80:	00409025 	move	s2,v0
80000a84:	1456ffc4 	bne	v0,s6,80000998 <crc32+0x88>
80000a88:	02a02025 	move	a0,s5
80000a8c:	3c1f8000 	lui	ra,0x8000
80000a90:	27e4168c 	addiu	a0,ra,5772
80000a94:	2405ffff 	li	a1,-1
80000a98:	0c0002dc 	jal	80000b70 <printf>
80000a9c:	3c168000 	lui	s6,0x8000
80000aa0:	0c0003a6 	jal	80000e98 <puts>
80000aa4:	26c41690 	addiu	a0,s6,5776
80000aa8:	0c000401 	jal	80001004 <fclose>
80000aac:	02602025 	move	a0,s3
80000ab0:	00109827 	nor	s3,zero,s0
80000ab4:	02203025 	move	a2,s1
80000ab8:	3c118000 	lui	s1,0x8000
80000abc:	02602825 	move	a1,s3
80000ac0:	26241694 	addiu	a0,s1,5780
80000ac4:	0c0002dc 	jal	80000b70 <printf>
80000ac8:	3c1566bd 	lui	s5,0x66bd
80000acc:	26b47c8b 	addiu	s4,s5,31883
80000ad0:	8fbf0034 	lw	ra,52(sp)
80000ad4:	0274b821 	addu	s7,s3,s4
80000ad8:	8fb6002c 	lw	s6,44(sp)
80000adc:	8fb50028 	lw	s5,40(sp)
80000ae0:	8fb40024 	lw	s4,36(sp)
80000ae4:	8fb30020 	lw	s3,32(sp)
80000ae8:	8fb2001c 	lw	s2,28(sp)
80000aec:	8fb10018 	lw	s1,24(sp)
80000af0:	8fb00014 	lw	s0,20(sp)
80000af4:	0017102b 	sltu	v0,zero,s7
80000af8:	8fb70030 	lw	s7,48(sp)
80000afc:	03e00008 	jr	ra
80000b00:	27bd0038 	addiu	sp,sp,56
	...

80000b10 <get_epc>:
get_epc():
80000b10:	40027000 	mfc0	v0,c0_epc
80000b14:	03e00008 	jr	ra
80000b18:	00000000 	nop

80000b1c <get_cause>:
get_cause():
80000b1c:	40026800 	mfc0	v0,c0_cause
80000b20:	03e00008 	jr	ra
80000b24:	00000000 	nop

80000b28 <exception>:
exception():
80000b28:	3c048000 	lui	a0,0x8000
80000b2c:	27bdffe8 	addiu	sp,sp,-24
80000b30:	afbf0014 	sw	ra,20(sp)
80000b34:	0c0002dc 	jal	80000b70 <printf>
80000b38:	24841bf4 	addiu	a0,a0,7156
80000b3c:	3c048000 	lui	a0,0x8000
80000b40:	24841c10 	addiu	a0,a0,7184
80000b44:	40057000 	mfc0	a1,c0_epc
80000b48:	0c0002dc 	jal	80000b70 <printf>
80000b4c:	00000000 	nop
80000b50:	8fbf0014 	lw	ra,20(sp)
80000b54:	3c048000 	lui	a0,0x8000
80000b58:	24841c20 	addiu	a0,a0,7200
80000b5c:	27bd0018 	addiu	sp,sp,24
80000b60:	40056800 	mfc0	a1,c0_cause
80000b64:	080002dc 	j	80000b70 <printf>
80000b68:	00000000 	nop
80000b6c:	00000000 	nop

80000b70 <printf>:
printf():
80000b70:	27bdffd0 	addiu	sp,sp,-48
80000b74:	afb30024 	sw	s3,36(sp)
80000b78:	afbf002c 	sw	ra,44(sp)
80000b7c:	afb40028 	sw	s4,40(sp)
80000b80:	afb20020 	sw	s2,32(sp)
80000b84:	afb1001c 	sw	s1,28(sp)
80000b88:	afb00018 	sw	s0,24(sp)
80000b8c:	80900000 	lb	s0,0(a0)
80000b90:	27b30034 	addiu	s3,sp,52
80000b94:	afa50034 	sw	a1,52(sp)
80000b98:	afa60038 	sw	a2,56(sp)
80000b9c:	afa7003c 	sw	a3,60(sp)
80000ba0:	12000024 	beqz	s0,80000c34 <printf+0xc4>
80000ba4:	afb30010 	sw	s3,16(sp)
80000ba8:	3c148000 	lui	s4,0x8000
80000bac:	00809025 	move	s2,a0
80000bb0:	00008825 	move	s1,zero
80000bb4:	10000009 	b	80000bdc <printf+0x6c>
80000bb8:	26941c40 	addiu	s4,s4,7232
80000bbc:	0c00036c 	jal	80000db0 <putchar>
80000bc0:	02002025 	move	a0,s0
80000bc4:	26310001 	addiu	s1,s1,1
80000bc8:	02511021 	addu	v0,s2,s1
80000bcc:	80500000 	lb	s0,0(v0)
80000bd0:	00000000 	nop
80000bd4:	12000017 	beqz	s0,80000c34 <printf+0xc4>
80000bd8:	00000000 	nop
80000bdc:	24020025 	li	v0,37
80000be0:	12020007 	beq	s0,v0,80000c00 <printf+0x90>
80000be4:	2402000a 	li	v0,10
80000be8:	1602fff4 	bne	s0,v0,80000bbc <printf+0x4c>
80000bec:	00000000 	nop
80000bf0:	0c00036c 	jal	80000db0 <putchar>
80000bf4:	2404000d 	li	a0,13
80000bf8:	1000fff0 	b	80000bbc <printf+0x4c>
80000bfc:	00000000 	nop
80000c00:	02511021 	addu	v0,s2,s1
80000c04:	80440001 	lb	a0,1(v0)
80000c08:	24050001 	li	a1,1
80000c0c:	2482ffdb 	addiu	v0,a0,-37
80000c10:	304200ff 	andi	v0,v0,0xff
80000c14:	2c430054 	sltiu	v1,v0,84
80000c18:	10600028 	beqz	v1,80000cbc <printf+0x14c>
80000c1c:	00021080 	sll	v0,v0,0x2
80000c20:	02821021 	addu	v0,s4,v0
80000c24:	8c420000 	lw	v0,0(v0)
80000c28:	00000000 	nop
80000c2c:	00400008 	jr	v0
80000c30:	00000000 	nop
80000c34:	8fbf002c 	lw	ra,44(sp)
80000c38:	8fb40028 	lw	s4,40(sp)
80000c3c:	8fb30024 	lw	s3,36(sp)
80000c40:	8fb20020 	lw	s2,32(sp)
80000c44:	8fb1001c 	lw	s1,28(sp)
80000c48:	8fb00018 	lw	s0,24(sp)
80000c4c:	00001025 	move	v0,zero
80000c50:	03e00008 	jr	ra
80000c54:	27bd0030 	addiu	sp,sp,48
80000c58:	02511021 	addu	v0,s2,s1
80000c5c:	80440002 	lb	a0,2(v0)
80000c60:	26310001 	addiu	s1,s1,1
80000c64:	2482ffcf 	addiu	v0,a0,-49
80000c68:	304200ff 	andi	v0,v0,0xff
80000c6c:	2c420009 	sltiu	v0,v0,9
80000c70:	1040ffe6 	beqz	v0,80000c0c <printf+0x9c>
80000c74:	00002825 	move	a1,zero
80000c78:	26310001 	addiu	s1,s1,1
80000c7c:	02511021 	addu	v0,s2,s1
80000c80:	2486ffd0 	addiu	a2,a0,-48
80000c84:	80440001 	lb	a0,1(v0)
80000c88:	00051880 	sll	v1,a1,0x2
80000c8c:	2482ffcf 	addiu	v0,a0,-49
80000c90:	00652821 	addu	a1,v1,a1
80000c94:	304200ff 	andi	v0,v0,0xff
80000c98:	00052840 	sll	a1,a1,0x1
80000c9c:	2c420009 	sltiu	v0,v0,9
80000ca0:	1440fff5 	bnez	v0,80000c78 <printf+0x108>
80000ca4:	00c52821 	addu	a1,a2,a1
80000ca8:	2482ffdb 	addiu	v0,a0,-37
80000cac:	304200ff 	andi	v0,v0,0xff
80000cb0:	2c430054 	sltiu	v1,v0,84
80000cb4:	1460ffda 	bnez	v1,80000c20 <printf+0xb0>
80000cb8:	00021080 	sll	v0,v0,0x2
80000cbc:	0c00036c 	jal	80000db0 <putchar>
80000cc0:	24040025 	li	a0,37
80000cc4:	1000ffc0 	b	80000bc8 <printf+0x58>
80000cc8:	26310001 	addiu	s1,s1,1
80000ccc:	8e640000 	lw	a0,0(s3)
80000cd0:	00003825 	move	a3,zero
80000cd4:	0c000544 	jal	80001510 <printbase>
80000cd8:	24060010 	li	a2,16
80000cdc:	26730004 	addiu	s3,s3,4
80000ce0:	1000ffb8 	b	80000bc4 <printf+0x54>
80000ce4:	26310001 	addiu	s1,s1,1
80000ce8:	8e640000 	lw	a0,0(s3)
80000cec:	0c000384 	jal	80000e10 <putstring>
80000cf0:	26310001 	addiu	s1,s1,1
80000cf4:	1000ffb3 	b	80000bc4 <printf+0x54>
80000cf8:	26730004 	addiu	s3,s3,4
80000cfc:	8e640000 	lw	a0,0(s3)
80000d00:	0c00036c 	jal	80000db0 <putchar>
80000d04:	26310001 	addiu	s1,s1,1
80000d08:	1000ffae 	b	80000bc4 <printf+0x54>
80000d0c:	26730004 	addiu	s3,s3,4
80000d10:	8e640000 	lw	a0,0(s3)
80000d14:	24070001 	li	a3,1
80000d18:	0c000544 	jal	80001510 <printbase>
80000d1c:	2406000a 	li	a2,10
80000d20:	26730004 	addiu	s3,s3,4
80000d24:	1000ffa7 	b	80000bc4 <printf+0x54>
80000d28:	26310001 	addiu	s1,s1,1
80000d2c:	8e640000 	lw	a0,0(s3)
80000d30:	00003825 	move	a3,zero
80000d34:	0c000544 	jal	80001510 <printbase>
80000d38:	24060002 	li	a2,2
80000d3c:	26730004 	addiu	s3,s3,4
80000d40:	1000ffa0 	b	80000bc4 <printf+0x54>
80000d44:	26310001 	addiu	s1,s1,1
80000d48:	8e640000 	lw	a0,0(s3)
80000d4c:	00003825 	move	a3,zero
80000d50:	0c000544 	jal	80001510 <printbase>
80000d54:	2406000a 	li	a2,10
80000d58:	26730004 	addiu	s3,s3,4
80000d5c:	1000ff99 	b	80000bc4 <printf+0x54>
80000d60:	26310001 	addiu	s1,s1,1
80000d64:	8e640000 	lw	a0,0(s3)
80000d68:	00003825 	move	a3,zero
80000d6c:	0c000544 	jal	80001510 <printbase>
80000d70:	2406000a 	li	a2,10
80000d74:	26730004 	addiu	s3,s3,4
80000d78:	1000ff92 	b	80000bc4 <printf+0x54>
80000d7c:	26310002 	addiu	s1,s1,2
80000d80:	8e640000 	lw	a0,0(s3)
80000d84:	00003825 	move	a3,zero
80000d88:	0c000544 	jal	80001510 <printbase>
80000d8c:	24060008 	li	a2,8
80000d90:	26730004 	addiu	s3,s3,4
80000d94:	1000ff8b 	b	80000bc4 <printf+0x54>
80000d98:	26310001 	addiu	s1,s1,1
80000d9c:	0c00036c 	jal	80000db0 <putchar>
80000da0:	24040025 	li	a0,37
80000da4:	1000ff87 	b	80000bc4 <printf+0x54>
80000da8:	26310001 	addiu	s1,s1,1
80000dac:	00000000 	nop

80000db0 <putchar>:
putchar():
80000db0:	3c03a300 	lui	v1,0xa300
80000db4:	8c620000 	lw	v0,0(v1)
80000db8:	00000000 	nop
80000dbc:	30420001 	andi	v0,v0,0x1
80000dc0:	1040fffc 	beqz	v0,80000db4 <putchar+0x4>
80000dc4:	00000000 	nop
80000dc8:	10800002 	beqz	a0,80000dd4 <putchar+0x24>
80000dcc:	00000000 	nop
80000dd0:	ac640004 	sw	a0,4(v1)
80000dd4:	03e00008 	jr	ra
80000dd8:	00001025 	move	v0,zero

80000ddc <tgt_putchar>:
tgt_putchar():
80000ddc:	3c03a300 	lui	v1,0xa300
80000de0:	8c620000 	lw	v0,0(v1)
80000de4:	00000000 	nop
80000de8:	30420001 	andi	v0,v0,0x1
80000dec:	1040fffc 	beqz	v0,80000de0 <tgt_putchar+0x4>
80000df0:	00000000 	nop
80000df4:	10800002 	beqz	a0,80000e00 <tgt_putchar+0x24>
80000df8:	00000000 	nop
80000dfc:	ac640004 	sw	a0,4(v1)
80000e00:	03e00008 	jr	ra
80000e04:	00000000 	nop
	...

80000e10 <putstring>:
putstring():
80000e10:	27bdffe0 	addiu	sp,sp,-32
80000e14:	afbf001c 	sw	ra,28(sp)
80000e18:	afb20018 	sw	s2,24(sp)
80000e1c:	afb10014 	sw	s1,20(sp)
80000e20:	afb00010 	sw	s0,16(sp)
80000e24:	80900000 	lb	s0,0(a0)
80000e28:	00000000 	nop
80000e2c:	12000013 	beqz	s0,80000e7c <putstring+0x6c>
80000e30:	00808825 	move	s1,a0
80000e34:	10000007 	b	80000e54 <putstring+0x44>
80000e38:	2412000a 	li	s2,10
80000e3c:	0c00036c 	jal	80000db0 <putchar>
80000e40:	02002025 	move	a0,s0
80000e44:	82300000 	lb	s0,0(s1)
80000e48:	00000000 	nop
80000e4c:	1200000b 	beqz	s0,80000e7c <putstring+0x6c>
80000e50:	00000000 	nop
80000e54:	1612fff9 	bne	s0,s2,80000e3c <putstring+0x2c>
80000e58:	26310001 	addiu	s1,s1,1
80000e5c:	0c00036c 	jal	80000db0 <putchar>
80000e60:	2404000d 	li	a0,13
80000e64:	0c00036c 	jal	80000db0 <putchar>
80000e68:	02002025 	move	a0,s0
80000e6c:	82300000 	lb	s0,0(s1)
80000e70:	00000000 	nop
80000e74:	1600fff7 	bnez	s0,80000e54 <putstring+0x44>
80000e78:	00000000 	nop
80000e7c:	8fbf001c 	lw	ra,28(sp)
80000e80:	8fb20018 	lw	s2,24(sp)
80000e84:	8fb10014 	lw	s1,20(sp)
80000e88:	8fb00010 	lw	s0,16(sp)
80000e8c:	00001025 	move	v0,zero
80000e90:	03e00008 	jr	ra
80000e94:	27bd0020 	addiu	sp,sp,32

80000e98 <puts>:
puts():
80000e98:	27bdffe8 	addiu	sp,sp,-24
80000e9c:	afbf0014 	sw	ra,20(sp)
80000ea0:	0c000384 	jal	80000e10 <putstring>
80000ea4:	00000000 	nop
80000ea8:	0c00036c 	jal	80000db0 <putchar>
80000eac:	2404000d 	li	a0,13
80000eb0:	0c00036c 	jal	80000db0 <putchar>
80000eb4:	2404000a 	li	a0,10
80000eb8:	8fbf0014 	lw	ra,20(sp)
80000ebc:	00001025 	move	v0,zero
80000ec0:	03e00008 	jr	ra
80000ec4:	27bd0018 	addiu	sp,sp,24
	...

80000ed0 <fopen>:
fopen():
80000ed0:	3c028000 	lui	v0,0x8000
80000ed4:	24422010 	addiu	v0,v0,8208
80000ed8:	00402825 	move	a1,v0
80000edc:	00001825 	move	v1,zero
80000ee0:	2407000a 	li	a3,10
80000ee4:	8ca60000 	lw	a2,0(a1)
80000ee8:	00000000 	nop
80000eec:	10c0000b 	beqz	a2,80000f1c <fopen+0x4c>
80000ef0:	24a50008 	addiu	a1,a1,8
80000ef4:	24630001 	addiu	v1,v1,1
80000ef8:	1467fffa 	bne	v1,a3,80000ee4 <fopen+0x14>
80000efc:	00000000 	nop
80000f00:	000318c0 	sll	v1,v1,0x3
80000f04:	00431821 	addu	v1,v0,v1
80000f08:	24050050 	li	a1,80
80000f0c:	ac640000 	sw	a0,0(v1)
80000f10:	ac600004 	sw	zero,4(v1)
80000f14:	03e00008 	jr	ra
80000f18:	00451021 	addu	v0,v0,a1
80000f1c:	000318c0 	sll	v1,v1,0x3
80000f20:	00602825 	move	a1,v1
80000f24:	00431821 	addu	v1,v0,v1
80000f28:	ac640000 	sw	a0,0(v1)
80000f2c:	ac600004 	sw	zero,4(v1)
80000f30:	03e00008 	jr	ra
80000f34:	00451021 	addu	v0,v0,a1

80000f38 <fread>:
fread():
80000f38:	27bdffd8 	addiu	sp,sp,-40
80000f3c:	afb3001c 	sw	s3,28(sp)
80000f40:	8cf30000 	lw	s3,0(a3)
80000f44:	afb20018 	sw	s2,24(sp)
80000f48:	afb00010 	sw	s0,16(sp)
80000f4c:	00809025 	move	s2,a0
80000f50:	00e08025 	move	s0,a3
80000f54:	02602025 	move	a0,s3
80000f58:	afb40020 	sw	s4,32(sp)
80000f5c:	afb10014 	sw	s1,20(sp)
80000f60:	afbf0024 	sw	ra,36(sp)
80000f64:	00a08825 	move	s1,a1
80000f68:	0c000440 	jal	80001100 <strlen>
80000f6c:	00c0a025 	move	s4,a2
80000f70:	8e030004 	lw	v1,4(s0)
80000f74:	00000000 	nop
80000f78:	10620019 	beq	v1,v0,80000fe0 <fread+0xa8>
80000f7c:	02340018 	mult	s1,s4
80000f80:	00403825 	move	a3,v0
80000f84:	00003012 	mflo	a2
80000f88:	1000000a 	b	80000fb4 <fread+0x7c>
80000f8c:	00001025 	move	v0,zero
80000f90:	ae050004 	sw	a1,4(s0)
80000f94:	80650000 	lb	a1,0(v1)
80000f98:	24420001 	addiu	v0,v0,1
80000f9c:	02421821 	addu	v1,s2,v0
80000fa0:	a065ffff 	sb	a1,-1(v1)
80000fa4:	8e030004 	lw	v1,4(s0)
80000fa8:	00000000 	nop
80000fac:	10670004 	beq	v1,a3,80000fc0 <fread+0x88>
80000fb0:	00000000 	nop
80000fb4:	24650001 	addiu	a1,v1,1
80000fb8:	14c2fff5 	bne	a2,v0,80000f90 <fread+0x58>
80000fbc:	02631821 	addu	v1,s3,v1
80000fc0:	8fbf0024 	lw	ra,36(sp)
80000fc4:	8fb40020 	lw	s4,32(sp)
80000fc8:	8fb3001c 	lw	s3,28(sp)
80000fcc:	8fb20018 	lw	s2,24(sp)
80000fd0:	8fb10014 	lw	s1,20(sp)
80000fd4:	8fb00010 	lw	s0,16(sp)
80000fd8:	03e00008 	jr	ra
80000fdc:	27bd0028 	addiu	sp,sp,40
80000fe0:	8fbf0024 	lw	ra,36(sp)
80000fe4:	8fb40020 	lw	s4,32(sp)
80000fe8:	8fb3001c 	lw	s3,28(sp)
80000fec:	8fb20018 	lw	s2,24(sp)
80000ff0:	8fb10014 	lw	s1,20(sp)
80000ff4:	8fb00010 	lw	s0,16(sp)
80000ff8:	00001025 	move	v0,zero
80000ffc:	03e00008 	jr	ra
80001000:	27bd0028 	addiu	sp,sp,40

80001004 <fclose>:
fclose():
80001004:	ac800000 	sw	zero,0(a0)
80001008:	03e00008 	jr	ra
8000100c:	ac800004 	sw	zero,4(a0)

80001010 <fgets>:
fgets():
80001010:	27bdffe0 	addiu	sp,sp,-32
80001014:	afb20018 	sw	s2,24(sp)
80001018:	8cd20000 	lw	s2,0(a2)
8000101c:	afb10014 	sw	s1,20(sp)
80001020:	afb00010 	sw	s0,16(sp)
80001024:	00c08825 	move	s1,a2
80001028:	00808025 	move	s0,a0
8000102c:	afbf001c 	sw	ra,28(sp)
80001030:	0c000440 	jal	80001100 <strlen>
80001034:	02402025 	move	a0,s2
80001038:	8e230004 	lw	v1,4(s1)
8000103c:	00000000 	nop
80001040:	10620012 	beq	v1,v0,8000108c <fgets+0x7c>
80001044:	02002025 	move	a0,s0
80001048:	10000008 	b	8000106c <fgets+0x5c>
8000104c:	2407000a 	li	a3,10
80001050:	80a30000 	lb	v1,0(a1)
80001054:	24840001 	addiu	a0,a0,1
80001058:	a083ffff 	sb	v1,-1(a0)
8000105c:	8e230004 	lw	v1,4(s1)
80001060:	00000000 	nop
80001064:	10620009 	beq	v1,v0,8000108c <fgets+0x7c>
80001068:	00000000 	nop
8000106c:	02432821 	addu	a1,s2,v1
80001070:	80a60000 	lb	a2,0(a1)
80001074:	24630001 	addiu	v1,v1,1
80001078:	14c7fff5 	bne	a2,a3,80001050 <fgets+0x40>
8000107c:	ae230004 	sw	v1,4(s1)
80001080:	80a20000 	lb	v0,0(a1)
80001084:	00000000 	nop
80001088:	a0820000 	sb	v0,0(a0)
8000108c:	8fbf001c 	lw	ra,28(sp)
80001090:	8fb20018 	lw	s2,24(sp)
80001094:	8fb10014 	lw	s1,20(sp)
80001098:	8fb00010 	lw	s0,16(sp)
8000109c:	00001025 	move	v0,zero
800010a0:	03e00008 	jr	ra
800010a4:	27bd0020 	addiu	sp,sp,32

800010a8 <getc>:
getc():
800010a8:	27bdffe0 	addiu	sp,sp,-32
800010ac:	afb10018 	sw	s1,24(sp)
800010b0:	8c910000 	lw	s1,0(a0)
800010b4:	afb00014 	sw	s0,20(sp)
800010b8:	00808025 	move	s0,a0
800010bc:	afbf001c 	sw	ra,28(sp)
800010c0:	0c000440 	jal	80001100 <strlen>
800010c4:	02202025 	move	a0,s1
800010c8:	8e040004 	lw	a0,4(s0)
800010cc:	00000000 	nop
800010d0:	10820009 	beq	a0,v0,800010f8 <getc+0x50>
800010d4:	02248821 	addu	s1,s1,a0
800010d8:	24820001 	addiu	v0,a0,1
800010dc:	ae020004 	sw	v0,4(s0)
800010e0:	92220000 	lbu	v0,0(s1)
800010e4:	8fbf001c 	lw	ra,28(sp)
800010e8:	8fb10018 	lw	s1,24(sp)
800010ec:	8fb00014 	lw	s0,20(sp)
800010f0:	03e00008 	jr	ra
800010f4:	27bd0020 	addiu	sp,sp,32
800010f8:	1000fffa 	b	800010e4 <getc+0x3c>
800010fc:	2402ffff 	li	v0,-1

80001100 <strlen>:
strlen():
80001100:	80820000 	lb	v0,0(a0)
80001104:	00000000 	nop
80001108:	1040000a 	beqz	v0,80001134 <strlen+0x34>
8000110c:	00000000 	nop
80001110:	00001025 	move	v0,zero
80001114:	24420001 	addiu	v0,v0,1
80001118:	00821821 	addu	v1,a0,v0
8000111c:	80630000 	lb	v1,0(v1)
80001120:	00000000 	nop
80001124:	1460fffb 	bnez	v1,80001114 <strlen+0x14>
80001128:	00000000 	nop
8000112c:	03e00008 	jr	ra
80001130:	00000000 	nop
80001134:	03e00008 	jr	ra
80001138:	00001025 	move	v0,zero

8000113c <strnlen>:
strnlen():
8000113c:	14a00005 	bnez	a1,80001154 <strnlen+0x18>
80001140:	00001025 	move	v0,zero
80001144:	1000000a 	b	80001170 <strnlen+0x34>
80001148:	00000000 	nop
8000114c:	10a20008 	beq	a1,v0,80001170 <strnlen+0x34>
80001150:	00000000 	nop
80001154:	00821821 	addu	v1,a0,v0
80001158:	80630000 	lb	v1,0(v1)
8000115c:	00000000 	nop
80001160:	1460fffa 	bnez	v1,8000114c <strnlen+0x10>
80001164:	24420001 	addiu	v0,v0,1
80001168:	03e00008 	jr	ra
8000116c:	2442ffff 	addiu	v0,v0,-1
80001170:	03e00008 	jr	ra
80001174:	00000000 	nop

80001178 <strcpy>:
strcpy():
80001178:	00801025 	move	v0,a0
8000117c:	00801825 	move	v1,a0
80001180:	80a60000 	lb	a2,0(a1)
80001184:	24630001 	addiu	v1,v1,1
80001188:	24a50001 	addiu	a1,a1,1
8000118c:	14c0fffc 	bnez	a2,80001180 <strcpy+0x8>
80001190:	a066ffff 	sb	a2,-1(v1)
80001194:	03e00008 	jr	ra
80001198:	00000000 	nop

8000119c <strncpy>:
strncpy():
8000119c:	10c0000a 	beqz	a2,800011c8 <strncpy+0x2c>
800011a0:	00801025 	move	v0,a0
800011a4:	00863821 	addu	a3,a0,a2
800011a8:	00801825 	move	v1,a0
800011ac:	80a60000 	lb	a2,0(a1)
800011b0:	24630001 	addiu	v1,v1,1
800011b4:	10c00002 	beqz	a2,800011c0 <strncpy+0x24>
800011b8:	a066ffff 	sb	a2,-1(v1)
800011bc:	24a50001 	addiu	a1,a1,1
800011c0:	1467fffa 	bne	v1,a3,800011ac <strncpy+0x10>
800011c4:	00000000 	nop
800011c8:	03e00008 	jr	ra
800011cc:	00000000 	nop

800011d0 <strcmp>:
strcmp():
800011d0:	80820000 	lb	v0,0(a0)
800011d4:	80a30000 	lb	v1,0(a1)
800011d8:	14400008 	bnez	v0,800011fc <strcmp+0x2c>
800011dc:	24840001 	addiu	a0,a0,1
800011e0:	2484ffff 	addiu	a0,a0,-1
800011e4:	10000009 	b	8000120c <strcmp+0x3c>
800011e8:	306300ff 	andi	v1,v1,0xff
800011ec:	80820000 	lb	v0,0(a0)
800011f0:	80a30000 	lb	v1,0(a1)
800011f4:	10400007 	beqz	v0,80001214 <strcmp+0x44>
800011f8:	24840001 	addiu	a0,a0,1
800011fc:	1043fffb 	beq	v0,v1,800011ec <strcmp+0x1c>
80001200:	24a50001 	addiu	a1,a1,1
80001204:	304200ff 	andi	v0,v0,0xff
80001208:	306300ff 	andi	v1,v1,0xff
8000120c:	03e00008 	jr	ra
80001210:	00431023 	subu	v0,v0,v1
80001214:	306300ff 	andi	v1,v1,0xff
80001218:	00001025 	move	v0,zero
8000121c:	03e00008 	jr	ra
80001220:	00431023 	subu	v0,v0,v1

80001224 <strncmp>:
strncmp():
80001224:	10c00010 	beqz	a2,80001268 <strncmp+0x44>
80001228:	00a63021 	addu	a2,a1,a2
8000122c:	10000005 	b	80001244 <strncmp+0x20>
80001230:	00000000 	nop
80001234:	14430008 	bne	v0,v1,80001258 <strncmp+0x34>
80001238:	00000000 	nop
8000123c:	10a6000a 	beq	a1,a2,80001268 <strncmp+0x44>
80001240:	24840001 	addiu	a0,a0,1
80001244:	80820000 	lb	v0,0(a0)
80001248:	24a50001 	addiu	a1,a1,1
8000124c:	80a3ffff 	lb	v1,-1(a1)
80001250:	1440fff8 	bnez	v0,80001234 <strncmp+0x10>
80001254:	00000000 	nop
80001258:	306300ff 	andi	v1,v1,0xff
8000125c:	304200ff 	andi	v0,v0,0xff
80001260:	03e00008 	jr	ra
80001264:	00431023 	subu	v0,v0,v1
80001268:	03e00008 	jr	ra
8000126c:	00001025 	move	v0,zero

80001270 <strchr>:
strchr():
80001270:	80820000 	lb	v0,0(a0)
80001274:	00000000 	nop
80001278:	14400007 	bnez	v0,80001298 <strchr+0x28>
8000127c:	00000000 	nop
80001280:	03e00008 	jr	ra
80001284:	00001025 	move	v0,zero
80001288:	80820001 	lb	v0,1(a0)
8000128c:	00000000 	nop
80001290:	10400003 	beqz	v0,800012a0 <strchr+0x30>
80001294:	24840001 	addiu	a0,a0,1
80001298:	14a2fffb 	bne	a1,v0,80001288 <strchr+0x18>
8000129c:	00801025 	move	v0,a0
800012a0:	03e00008 	jr	ra
800012a4:	00000000 	nop
800012a8:	03e00008 	jr	ra
800012ac:	00000000 	nop

800012b0 <strfind>:
strfind():
800012b0:	80830000 	lb	v1,0(a0)
800012b4:	00000000 	nop
800012b8:	14600007 	bnez	v1,800012d8 <strfind+0x28>
800012bc:	00801025 	move	v0,a0
800012c0:	10000007 	b	800012e0 <strfind+0x30>
800012c4:	00000000 	nop
800012c8:	80430001 	lb	v1,1(v0)
800012cc:	00000000 	nop
800012d0:	10600003 	beqz	v1,800012e0 <strfind+0x30>
800012d4:	24420001 	addiu	v0,v0,1
800012d8:	14a3fffb 	bne	a1,v1,800012c8 <strfind+0x18>
800012dc:	00000000 	nop
800012e0:	03e00008 	jr	ra
800012e4:	00000000 	nop

800012e8 <memset>:
memset():
800012e8:	10c00006 	beqz	a2,80001304 <memset+0x1c>
800012ec:	00801025 	move	v0,a0
800012f0:	00863021 	addu	a2,a0,a2
800012f4:	00801825 	move	v1,a0
800012f8:	24630001 	addiu	v1,v1,1
800012fc:	1466fffe 	bne	v1,a2,800012f8 <memset+0x10>
80001300:	a065ffff 	sb	a1,-1(v1)
80001304:	03e00008 	jr	ra
80001308:	00000000 	nop

8000130c <memcpy>:
memcpy():
8000130c:	10c00008 	beqz	a2,80001330 <memcpy+0x24>
80001310:	00801025 	move	v0,a0
80001314:	00a63821 	addu	a3,a1,a2
80001318:	00801825 	move	v1,a0
8000131c:	80a60000 	lb	a2,0(a1)
80001320:	24a50001 	addiu	a1,a1,1
80001324:	24630001 	addiu	v1,v1,1
80001328:	14a7fffc 	bne	a1,a3,8000131c <memcpy+0x10>
8000132c:	a066ffff 	sb	a2,-1(v1)
80001330:	03e00008 	jr	ra
80001334:	00000000 	nop

80001338 <memmove>:
memmove():
80001338:	00a4182b 	sltu	v1,a1,a0
8000133c:	10600005 	beqz	v1,80001354 <memmove+0x1c>
80001340:	00801025 	move	v0,a0
80001344:	00a61821 	addu	v1,a1,a2
80001348:	0083202b 	sltu	a0,a0,v1
8000134c:	1480000b 	bnez	a0,8000137c <memmove+0x44>
80001350:	00000000 	nop
80001354:	10c00007 	beqz	a2,80001374 <memmove+0x3c>
80001358:	00a63821 	addu	a3,a1,a2
8000135c:	00401825 	move	v1,v0
80001360:	80a60000 	lb	a2,0(a1)
80001364:	24a50001 	addiu	a1,a1,1
80001368:	24630001 	addiu	v1,v1,1
8000136c:	14a7fffc 	bne	a1,a3,80001360 <memmove+0x28>
80001370:	a066ffff 	sb	a2,-1(v1)
80001374:	03e00008 	jr	ra
80001378:	00000000 	nop
8000137c:	10c0fffd 	beqz	a2,80001374 <memmove+0x3c>
80001380:	00462021 	addu	a0,v0,a2
80001384:	8066ffff 	lb	a2,-1(v1)
80001388:	2463ffff 	addiu	v1,v1,-1
8000138c:	2484ffff 	addiu	a0,a0,-1
80001390:	14a3fffc 	bne	a1,v1,80001384 <memmove+0x4c>
80001394:	a0860000 	sb	a2,0(a0)
80001398:	03e00008 	jr	ra
8000139c:	00000000 	nop

800013a0 <memcmp>:
memcmp():
800013a0:	10c0000e 	beqz	a2,800013dc <memcmp+0x3c>
800013a4:	00a63021 	addu	a2,a1,a2
800013a8:	10000003 	b	800013b8 <memcmp+0x18>
800013ac:	00000000 	nop
800013b0:	10a6000a 	beq	a1,a2,800013dc <memcmp+0x3c>
800013b4:	24840001 	addiu	a0,a0,1
800013b8:	80a30000 	lb	v1,0(a1)
800013bc:	80820000 	lb	v0,0(a0)
800013c0:	00000000 	nop
800013c4:	1043fffa 	beq	v0,v1,800013b0 <memcmp+0x10>
800013c8:	24a50001 	addiu	a1,a1,1
800013cc:	306300ff 	andi	v1,v1,0xff
800013d0:	304200ff 	andi	v0,v0,0xff
800013d4:	03e00008 	jr	ra
800013d8:	00431023 	subu	v0,v0,v1
800013dc:	03e00008 	jr	ra
800013e0:	00001025 	move	v0,zero

800013e4 <bzero>:
bzero():
800013e4:	10a00004 	beqz	a1,800013f8 <bzero+0x14>
800013e8:	00852821 	addu	a1,a0,a1
800013ec:	24840001 	addiu	a0,a0,1
800013f0:	1485fffe 	bne	a0,a1,800013ec <bzero+0x8>
800013f4:	a080ffff 	sb	zero,-1(a0)
800013f8:	03e00008 	jr	ra
800013fc:	00000000 	nop

80001400 <_get_count>:
_get_count():
80001400:	3c02a400 	lui	v0,0xa400
80001404:	8c420004 	lw	v0,4(v0)
80001408:	03e00008 	jr	ra
8000140c:	00000000 	nop

80001410 <get_count>:
get_count():
80001410:	3c02a400 	lui	v0,0xa400
80001414:	8c420004 	lw	v0,4(v0)
80001418:	03e00008 	jr	ra
8000141c:	00000000 	nop

80001420 <clock_gettime>:
clock_gettime():
80001420:	3c02a400 	lui	v0,0xa400
80001424:	8c440004 	lw	a0,4(v0)
80001428:	240203e8 	li	v0,1000
8000142c:	14400002 	bnez	v0,80001438 <clock_gettime+0x18>
80001430:	0082001b 	divu	zero,a0,v0
80001434:	0007000d 	break	0x7
80001438:	00043840 	sll	a3,a0,0x1
8000143c:	27bdffe8 	addiu	sp,sp,-24
80001440:	00a04025 	move	t0,a1
80001444:	afbf0014 	sw	ra,20(sp)
80001448:	aca00000 	sw	zero,0(a1)
8000144c:	3c048000 	lui	a0,0x8000
80001450:	00003025 	move	a2,zero
80001454:	24841d90 	addiu	a0,a0,7568
80001458:	00001812 	mflo	v1
8000145c:	00031840 	sll	v1,v1,0x1
80001460:	00000000 	nop
80001464:	14400002 	bnez	v0,80001470 <clock_gettime+0x50>
80001468:	0062001b 	divu	zero,v1,v0
8000146c:	0007000d 	break	0x7
80001470:	00004810 	mfhi	t1
80001474:	ad090008 	sw	t1,8(t0)
80001478:	00001812 	mflo	v1
	...
80001484:	14400002 	bnez	v0,80001490 <clock_gettime+0x70>
80001488:	00e2001b 	divu	zero,a3,v0
8000148c:	0007000d 	break	0x7
80001490:	00002810 	mfhi	a1
80001494:	ad050004 	sw	a1,4(t0)
80001498:	00000000 	nop
8000149c:	14400002 	bnez	v0,800014a8 <clock_gettime+0x88>
800014a0:	0062001b 	divu	zero,v1,v0
800014a4:	0007000d 	break	0x7
800014a8:	00001010 	mfhi	v0
800014ac:	0c0002dc 	jal	80000b70 <printf>
800014b0:	ad02000c 	sw	v0,12(t0)
800014b4:	8fbf0014 	lw	ra,20(sp)
800014b8:	00001025 	move	v0,zero
800014bc:	03e00008 	jr	ra
800014c0:	27bd0018 	addiu	sp,sp,24

800014c4 <get_clock>:
get_clock():
800014c4:	3c02a400 	lui	v0,0xa400
800014c8:	8c420004 	lw	v0,4(v0)
800014cc:	03e00008 	jr	ra
800014d0:	00021040 	sll	v0,v0,0x1

800014d4 <get_us>:
get_us():
800014d4:	3c02a400 	lui	v0,0xa400
800014d8:	8c420000 	lw	v0,0(v0)
800014dc:	03e00008 	jr	ra
800014e0:	00000000 	nop

800014e4 <get_ns>:
get_ns():
800014e4:	3c02a400 	lui	v0,0xa400
800014e8:	8c430000 	lw	v1,0(v0)
800014ec:	00000000 	nop
800014f0:	00031140 	sll	v0,v1,0x5
800014f4:	00431023 	subu	v0,v0,v1
800014f8:	00021080 	sll	v0,v0,0x2
800014fc:	00431021 	addu	v0,v0,v1
80001500:	03e00008 	jr	ra
80001504:	000210c0 	sll	v0,v0,0x3
	...

80001510 <printbase>:
printbase():
80001510:	27bdffa0 	addiu	sp,sp,-96
80001514:	afb00054 	sw	s0,84(sp)
80001518:	afbf005c 	sw	ra,92(sp)
8000151c:	afb10058 	sw	s1,88(sp)
80001520:	10e00003 	beqz	a3,80001530 <printbase+0x20>
80001524:	00808025 	move	s0,a0
80001528:	04800032 	bltz	a0,800015f4 <printbase+0xe4>
8000152c:	2404002d 	li	a0,45
80001530:	12000038 	beqz	s0,80001614 <printbase+0x104>
80001534:	27a20010 	addiu	v0,sp,16
80001538:	24070001 	li	a3,1
8000153c:	00e23823 	subu	a3,a3,v0
80001540:	14c00002 	bnez	a2,8000154c <printbase+0x3c>
80001544:	0206001b 	divu	zero,s0,a2
80001548:	0007000d 	break	0x7
8000154c:	00e28821 	addu	s1,a3,v0
80001550:	0206202b 	sltu	a0,s0,a2
80001554:	24420001 	addiu	v0,v0,1
80001558:	00001810 	mfhi	v1
8000155c:	00008012 	mflo	s0
80001560:	1080fff7 	beqz	a0,80001540 <printbase+0x30>
80001564:	a043ffff 	sb	v1,-1(v0)
80001568:	00b1102a 	slt	v0,a1,s1
8000156c:	1440001f 	bnez	v0,800015ec <printbase+0xdc>
80001570:	00000000 	nop
80001574:	1000000b 	b	800015a4 <printbase+0x94>
80001578:	00a08025 	move	s0,a1
8000157c:	8064ffff 	lb	a0,-1(v1)
80001580:	00000000 	nop
80001584:	2882000a 	slti	v0,a0,10
80001588:	10400016 	beqz	v0,800015e4 <printbase+0xd4>
8000158c:	00000000 	nop
80001590:	24840030 	addiu	a0,a0,48
80001594:	0c00036c 	jal	80000db0 <putchar>
80001598:	2610ffff 	addiu	s0,s0,-1
8000159c:	1200000b 	beqz	s0,800015cc <printbase+0xbc>
800015a0:	00000000 	nop
800015a4:	27a20010 	addiu	v0,sp,16
800015a8:	00501821 	addu	v1,v0,s0
800015ac:	0230102a 	slt	v0,s1,s0
800015b0:	1040fff2 	beqz	v0,8000157c <printbase+0x6c>
800015b4:	00000000 	nop
800015b8:	2610ffff 	addiu	s0,s0,-1
800015bc:	0c00036c 	jal	80000db0 <putchar>
800015c0:	24040030 	li	a0,48
800015c4:	1600fff8 	bnez	s0,800015a8 <printbase+0x98>
800015c8:	27a20010 	addiu	v0,sp,16
800015cc:	8fbf005c 	lw	ra,92(sp)
800015d0:	8fb10058 	lw	s1,88(sp)
800015d4:	8fb00054 	lw	s0,84(sp)
800015d8:	00001025 	move	v0,zero
800015dc:	03e00008 	jr	ra
800015e0:	27bd0060 	addiu	sp,sp,96
800015e4:	1000ffeb 	b	80001594 <printbase+0x84>
800015e8:	24840057 	addiu	a0,a0,87
800015ec:	1000ffe1 	b	80001574 <printbase+0x64>
800015f0:	02202825 	move	a1,s1
800015f4:	afa60068 	sw	a2,104(sp)
800015f8:	afa50064 	sw	a1,100(sp)
800015fc:	0c00036c 	jal	80000db0 <putchar>
80001600:	00108023 	negu	s0,s0
80001604:	8fa50064 	lw	a1,100(sp)
80001608:	8fa60068 	lw	a2,104(sp)
8000160c:	1000ffca 	b	80001538 <printbase+0x28>
80001610:	27a20010 	addiu	v0,sp,16
80001614:	18a0ffed 	blez	a1,800015cc <printbase+0xbc>
80001618:	00008825 	move	s1,zero
8000161c:	1000ffe1 	b	800015a4 <printbase+0x94>
80001620:	00a08025 	move	s0,a1
	...
80001630:	20656854 	addi	a1,v1,26708
80001634:	75736572 	jalx	85cd95c8 <_stack+0x5bd75e8>
80001638:	6920746c 	0x6920746c
8000163c:	69722073 	0x69722073
80001640:	00746867 	0x746867
80001644:	20656854 	addi	a1,v1,26708
80001648:	75736572 	jalx	85cd95c8 <_stack+0x5bd75e8>
8000164c:	6920746c 	0x6920746c
80001650:	72772073 	0x72772073
80001654:	00676e6f 	0x676e6f
80001658:	656d6954 	0x656d6954
8000165c:	7525203a 	jalx	849480e8 <_stack+0x4846108>
80001660:	63796320 	0x63796320
80001664:	2c73656c 	sltiu	s3,v1,25964
80001668:	20752520 	addi	s5,v1,9504
8000166c:	00007375 	0x7375
80001670:	72617473 	0x72617473
80001674:	00000074 	0x74
80001678:	3a6e656c 	xori	t6,s3,0x656c
8000167c:	0a752520 	j	89d49480 <_stack+0x9c474a0>
80001680:	00000000 	nop
80001684:	0a646c25 	j	8991b094 <_stack+0x98190b4>
80001688:	00000000 	nop
8000168c:	000a7825 	or	t7,zero,t2
80001690:	00646e65 	0x646e65
80001694:	6c383025 	0x6c383025
80001698:	25202c58 	addiu	zero,t1,11352
8000169c:	646c3830 	0x646c3830
800016a0:	0000000a 	0xa
	...

800016b0 <crc_32_tab>:
800016b0:	00000000 77073096 ee0e612c 990951ba     .....0.w,a...Q..
800016c0:	076dc419 706af48f e963a535 9e6495a3     ..m...jp5.c...d.
800016d0:	0edb8832 79dcb8a4 e0d5e91e 97d2d988     2......y........
800016e0:	09b64c2b 7eb17cbd e7b82d07 90bf1d91     +L...|.~.-......
800016f0:	1db71064 6ab020f2 f3b97148 84be41de     d.... .jHq...A..
80001700:	1adad47d 6ddde4eb f4d4b551 83d385c7     }......mQ.......
80001710:	136c9856 646ba8c0 fd62f97a 8a65c9ec     V.l...kdz.b...e.
80001720:	14015c4f 63066cd9 fa0f3d63 8d080df5     O\...l.cc=......
80001730:	3b6e20c8 4c69105e d56041e4 a2677172     . n;^.iL.A`.rqg.
80001740:	3c03e4d1 4b04d447 d20d85fd a50ab56b     ...<G..K....k...
80001750:	35b5a8fa 42b2986c dbbbc9d6 acbcf940     ...5l..B....@...
80001760:	32d86ce3 45df5c75 dcd60dcf abd13d59     .l.2u\.E....Y=..
80001770:	26d930ac 51de003a c8d75180 bfd06116     .0.&:..Q.Q...a..
80001780:	21b4f4b5 56b3c423 cfba9599 b8bda50f     ...!#..V........
80001790:	2802b89e 5f058808 c60cd9b2 b10be924     ...(..._....$...
800017a0:	2f6f7c87 58684c11 c1611dab b6662d3d     .|o/.LhX..a.=-f.
800017b0:	76dc4190 01db7106 98d220bc efd5102a     .A.v.q... ..*...
800017c0:	71b18589 06b6b51f 9fbfe4a5 e8b8d433     ...q........3...
800017d0:	7807c9a2 0f00f934 9609a88e e10e9818     ...x4...........
800017e0:	7f6a0dbb 086d3d2d 91646c97 e6635c01     ..j.-=m..ld..\c.
800017f0:	6b6b51f4 1c6c6162 856530d8 f262004e     .Qkkbal..0e.N.b.
80001800:	6c0695ed 1b01a57b 8208f4c1 f50fc457     ...l{.......W...
80001810:	65b0d9c6 12b7e950 8bbeb8ea fcb9887c     ...eP.......|...
80001820:	62dd1ddf 15da2d49 8cd37cf3 fbd44c65     ...bI-...|..eL..
80001830:	4db26158 3ab551ce a3bc0074 d4bb30e2     Xa.M.Q.:t....0..
80001840:	4adfa541 3dd895d7 a4d1c46d d3d6f4fb     A..J...=m.......
80001850:	4369e96a 346ed9fc ad678846 da60b8d0     j.iC..n4F.g...`.
80001860:	44042d73 33031de5 aa0a4c5f dd0d7cc9     s-.D...3_L...|..
80001870:	5005713c 270241aa be0b1010 c90c2086     <q.P.A.'..... ..
80001880:	5768b525 206f85b3 b966d409 ce61e49f     %.hW..o ..f...a.
80001890:	5edef90e 29d9c998 b0d09822 c7d7a8b4     ...^...)".......
800018a0:	59b33d17 2eb40d81 b7bd5c3b c0ba6cad     .=.Y....;\...l..
800018b0:	edb88320 9abfb3b6 03b6e20c 74b1d29a      ..............t
800018c0:	ead54739 9dd277af 04db2615 73dc1683     9G...w...&.....s
800018d0:	e3630b12 94643b84 0d6d6a3e 7a6a5aa8     ..c..;d.>jm..Zjz
800018e0:	e40ecf0b 9309ff9d 0a00ae27 7d079eb1     ........'......}
800018f0:	f00f9344 8708a3d2 1e01f268 6906c2fe     D.......h......i
80001900:	f762575d 806567cb 196c3671 6e6b06e7     ]Wb..ge.q6l...kn
80001910:	fed41b76 89d32be0 10da7a5a 67dd4acc     v....+..Zz...J.g
80001920:	f9b9df6f 8ebeeff9 17b7be43 60b08ed5     o.......C......`
80001930:	d6d6a3e8 a1d1937e 38d8c2c4 4fdff252     ....~......8R..O
80001940:	d1bb67f1 a6bc5767 3fb506dd 48b2364b     .g..gW.....?K6.H
80001950:	d80d2bda af0a1b4c 36034af6 41047a60     .+..L....J.6`z.A
80001960:	df60efc3 a867df55 316e8eef 4669be79     ..`.U.g...n1y.iF
80001970:	cb61b38c bc66831a 256fd2a0 5268e236     ..a...f...o%6.hR
80001980:	cc0c7795 bb0b4703 220216b9 5505262f     .w...G....."/&.U
80001990:	c5ba3bbe b2bd0b28 2bb45a92 5cb36a04     .;..(....Z.+.j.\
800019a0:	c2d7ffa7 b5d0cf31 2cd99e8b 5bdeae1d     ....1......,...[
800019b0:	9b64c2b0 ec63f226 756aa39c 026d930a     ..d.&.c...ju..m.
800019c0:	9c0906a9 eb0e363f 72076785 05005713     ....?6...g.r.W..
800019d0:	95bf4a82 e2b87a14 7bb12bae 0cb61b38     .J...z...+.{8...
800019e0:	92d28e9b e5d5be0d 7cdcefb7 0bdbdf21     ...........|!...
800019f0:	86d3d2d4 f1d4e242 68ddb3f8 1fda836e     ....B......hn...
80001a00:	81be16cd f6b9265b 6fb077e1 18b74777     ....[&...w.owG..
80001a10:	88085ae6 ff0f6a70 66063bca 11010b5c     .Z..pj...;.f\...
80001a20:	8f659eff f862ae69 616bffd3 166ccf45     ..e.i.b...kaE.l.
80001a30:	a00ae278 d70dd2ee 4e048354 3903b3c2     x.......T..N...9
80001a40:	a7672661 d06016f7 4969474d 3e6e77db     a&g...`.MGiI.wn>
80001a50:	aed16a4a d9d65adc 40df0b66 37d83bf0     Jj...Z..f..@.;.7
80001a60:	a9bcae53 debb9ec5 47b2cf7f 30b5ffe9     S..........G...0
80001a70:	bdbdf21c cabac28a 53b39330 24b4a3a6     ........0..S...$
80001a80:	bad03605 cdd70693 54de5729 23d967bf     .6......)W.T.g.#
80001a90:	b3667a2e c4614ab8 5d681b02 2a6f2b94     .zf..Ja...h].+o*
80001aa0:	b40bbe37 c30c8ea1 5a05df1b 2d02ef8d     7..........Z...-
80001ab0:	faeff99c fa8dfa45 f9d8faa5 f98afab8     ....E...........
80001ac0:	f933faae f8c4fa8b f899fa28 f850f9b6     ..3.....(.....P.
80001ad0:	f823f95a f7f6f8e5 f7d8f87a f7b9f838     Z.#.....z...8...
80001ae0:	f7b1f7f8 f7a7f7e0 f7edf809 f801f84d     ............M...
80001af0:	f879f8c6 f8c4f957 f935f9da f9b4fa89     ..y.W.....5.....
80001b00:	fa28fb3c fa9efbce fb3ffc94 fbd6fd62     <.(.......?.b...
80001b10:	fc69fe06 fd07fed9 fd9effb4 fdf1015a     ..i.........Z...
80001b20:	fe6d0114 fed701be ff1b0225 ff55028f     ..m.....%.....U.
80001b30:	ffd402e5 ffc30315 0116035e 01240398     ........^.....$.
80001b40:	012a03b0 fffe03f4 fffd044f ffc10494     ..*.....O.......
80001b50:	ff9d04fb ff690593 ff3f062b ff0406c1     ......i.+.?.....
80001b60:	fefa0791 feb7088b fe8d0956 fe480a05     ........V.....H.
80001b70:	fe270adf fe040b9c fde30c0f fde40c84     ..'.............
80001b80:	fe120cf0 fe260d2e fe980d69 febb0d9a     ......&.i.......
80001b90:	ff450d9e ff880d81 fff60d45 016b0ce9     ..E.....E.....k.
80001ba0:	01ee0c6d 017a0bcb 02180b35 028a0ab7     m.....z.5.......
80001bb0:	033e0a3c 039c09de 0448098c 04b1092f     <.>.......H./...
80001bc0:	05260902 058708f9 05e008e4 05db0905     ..&.............
80001bd0:	066b096c 062009ef 06760a9a 06710b47     l.k... ...v.G.q.
80001be0:	06680bdb 062e0c89 06250d32 05f00da1     ..h.....2.%.....
80001bf0:	00000000 72656854 73692065 206e6120     ....There is an 
80001c00:	65637865 6f697470 0a21216e 00000000     exception!!.....
80001c10:	20656854 20637065 25207369 00000a78     The epc is %x...
80001c20:	20656854 73756163 73692065 0a782520     The cause is %x.
	...
80001c40:	80000d9c 80000cbc 80000cbc 80000cbc     ................
80001c50:	80000cbc 80000cbc 80000cbc 80000cbc     ................
80001c60:	80000cbc 80000cbc 80000cbc 80000c58     ............X...
80001c70:	80000c64 80000c64 80000c64 80000c64     d...d...d...d...
80001c80:	80000c64 80000c64 80000c64 80000c64     d...d...d...d...
80001c90:	80000c64 80000cbc 80000cbc 80000cbc     d...............
80001ca0:	80000cbc 80000cbc 80000cbc 80000cbc     ................
80001cb0:	80000cbc 80000cbc 80000cbc 80000cbc     ................
80001cc0:	80000cbc 80000cbc 80000cbc 80000cbc     ................
80001cd0:	80000cbc 80000cbc 80000cbc 80000cbc     ................
80001ce0:	80000cbc 80000cbc 80000cbc 80000cbc     ................
80001cf0:	80000cbc 80000cbc 80000cbc 80000cbc     ................
80001d00:	80000cbc 80000cbc 80000cbc 80000cbc     ................
80001d10:	80000cbc 80000cbc 80000cbc 80000cbc     ................
80001d20:	80000cbc 80000cbc 80000cbc 80000cbc     ................
80001d30:	80000cbc 80000d2c 80000cfc 80000d10     ....,...........
80001d40:	80000cbc 80000cbc 80000cbc 80000cbc     ................
80001d50:	80000cbc 80000cbc 80000cbc 80000d64     ............d...
80001d60:	80000cbc 80000cbc 80000d80 80000ccc     ................
80001d70:	80000cbc 80000cbc 80000ce8 80000cbc     ................
80001d80:	80000d48 80000cbc 80000cbc 80000ccc     H...............
80001d90:	636f6c63 736e206b 2c64253d 3d636573     clock ns=%d,sec=
80001da0:	000a6425 b0000602 00000000 00000000     %d..............
	...
80001dc0:	00010000 03000001 00000000 00000000     ................
	...
