
obj/quick_sort/main.elf:     file format elf32-tradlittlemips
obj/quick_sort/main.elf


Disassembly of section .text:

80000000 <_ftext>:
_ftext():
80000000:	3c0a0040 	lui	t2,0x40
80000004:	408a6000 	mtc0	t2,c0_sr
80000008:	40806800 	mtc0	zero,c0_cause
8000000c:	3c1d8010 	lui	sp,0x8010
80000010:	27bd1fe0 	addiu	sp,sp,8160
80000014:	3c1c8001 	lui	gp,0x8001
80000018:	279cbf30 	addiu	gp,gp,-16592
8000001c:	0c0000e4 	jal	80000390 <shell>
80000020:	00000000 	nop

80000024 <loop>:
loop():
80000024:	08000009 	j	80000024 <loop>

80000028 <exit>:
exit():
80000028:	340900ff 	li	t1,0xff
8000002c:	3c018000 	lui	at,0x8000
80000030:	a0297ffc 	sb	t1,32764(at)
	...
80000380:	0c0004f2 	jal	800013c8 <exception>
80000384:	00000000 	nop
80000388:	0800000a 	j	80000028 <exit>
8000038c:	00000000 	nop

80000390 <shell>:
shell():
80000390:	27bdffd0 	addiu	sp,sp,-48
80000394:	afbf002c 	sw	ra,44(sp)
80000398:	afb30028 	sw	s3,40(sp)
8000039c:	afb20024 	sw	s2,36(sp)
800003a0:	afb10020 	sw	s1,32(sp)
800003a4:	0c0005e0 	jal	80001780 <get_count>
800003a8:	afb0001c 	sw	s0,28(sp)
800003ac:	0c000611 	jal	80001844 <get_us>
800003b0:	00409025 	move	s2,v0
800003b4:	3c048000 	lui	a0,0x8000
800003b8:	240503e8 	li	a1,1000
800003bc:	24842fa0 	addiu	a0,a0,12192
800003c0:	0c000370 	jal	80000dc0 <quick_sort>
800003c4:	00408825 	move	s1,v0
800003c8:	0c0005e0 	jal	80001780 <get_count>
800003cc:	00408025 	move	s0,v0
800003d0:	0c000611 	jal	80001844 <get_us>
800003d4:	00409825 	move	s3,v0
800003d8:	3c078000 	lui	a3,0x8000
800003dc:	24e82000 	addiu	t0,a3,8192
800003e0:	01001825 	move	v1,t0
800003e4:	02722823 	subu	a1,s3,s2
800003e8:	00513023 	subu	a2,v0,s1
800003ec:	250f0fa0 	addiu	t7,t0,4000
800003f0:	0208c823 	subu	t9,s0,t0
800003f4:	03234821 	addu	t1,t9,v1
800003f8:	8c7f0000 	lw	ra,0(v1)
800003fc:	8d320000 	lw	s2,0(t1)
80000400:	01205025 	move	t2,t1
80000404:	01206025 	move	t4,t1
80000408:	01207025 	move	t6,t1
8000040c:	165f0030 	bne	s2,ra,800004d0 <shell+0x140>
80000410:	0120c025 	move	t8,t1
80000414:	8c640004 	lw	a0,4(v1)
80000418:	8d310004 	lw	s1,4(t1)
8000041c:	00000000 	nop
80000420:	1624002b 	bne	s1,a0,800004d0 <shell+0x140>
80000424:	00000000 	nop
80000428:	8c700008 	lw	s0,8(v1)
8000042c:	8d330008 	lw	s3,8(t1)
80000430:	00000000 	nop
80000434:	16700026 	bne	s3,s0,800004d0 <shell+0x140>
80000438:	00000000 	nop
8000043c:	8c67000c 	lw	a3,12(v1)
80000440:	8d28000c 	lw	t0,12(t1)
80000444:	00000000 	nop
80000448:	15070021 	bne	t0,a3,800004d0 <shell+0x140>
8000044c:	00000000 	nop
80000450:	8c690010 	lw	t1,16(v1)
80000454:	8d4a0010 	lw	t2,16(t2)
80000458:	00000000 	nop
8000045c:	1549001c 	bne	t2,t1,800004d0 <shell+0x140>
80000460:	00000000 	nop
80000464:	8c6b0014 	lw	t3,20(v1)
80000468:	8d8c0014 	lw	t4,20(t4)
8000046c:	00000000 	nop
80000470:	158b0017 	bne	t4,t3,800004d0 <shell+0x140>
80000474:	00000000 	nop
80000478:	8c6d0018 	lw	t5,24(v1)
8000047c:	8dce0018 	lw	t6,24(t6)
80000480:	00000000 	nop
80000484:	15cd0012 	bne	t6,t5,800004d0 <shell+0x140>
80000488:	00000000 	nop
8000048c:	8c62001c 	lw	v0,28(v1)
80000490:	8f18001c 	lw	t8,28(t8)
80000494:	00000000 	nop
80000498:	1702000d 	bne	t8,v0,800004d0 <shell+0x140>
8000049c:	24630020 	addiu	v1,v1,32
800004a0:	146fffd5 	bne	v1,t7,800003f8 <shell+0x68>
800004a4:	03234821 	addu	t1,t9,v1
800004a8:	8fbf002c 	lw	ra,44(sp)
800004ac:	8fb30028 	lw	s3,40(sp)
800004b0:	8fb20024 	lw	s2,36(sp)
800004b4:	8fb10020 	lw	s1,32(sp)
800004b8:	8fb0001c 	lw	s0,28(sp)
800004bc:	3c0f8000 	lui	t7,0x8000
800004c0:	25e419b4 	addiu	a0,t7,6580
800004c4:	08000504 	j	80001410 <printf>
800004c8:	27bd0030 	addiu	sp,sp,48
800004cc:	00000000 	nop
800004d0:	afa50010 	sw	a1,16(sp)
800004d4:	3c058000 	lui	a1,0x8000
800004d8:	24a419a0 	addiu	a0,a1,6560
800004dc:	0c0005ce 	jal	80001738 <puts>
800004e0:	afa60014 	sw	a2,20(sp)
800004e4:	8fa50010 	lw	a1,16(sp)
800004e8:	8fa60014 	lw	a2,20(sp)
800004ec:	8fbf002c 	lw	ra,44(sp)
800004f0:	8fb30028 	lw	s3,40(sp)
800004f4:	8fb20024 	lw	s2,36(sp)
800004f8:	8fb10020 	lw	s1,32(sp)
800004fc:	8fb0001c 	lw	s0,28(sp)
80000500:	3c0f8000 	lui	t7,0x8000
80000504:	25e419b4 	addiu	a0,t7,6580
80000508:	08000504 	j	80001410 <printf>
8000050c:	27bd0030 	addiu	sp,sp,48

80000510 <partition>:
partition():
80000510:	00053880 	sll	a3,a1,0x2
80000514:	00873821 	addu	a3,a0,a3
80000518:	00a6182a 	slt	v1,a1,a2
8000051c:	8cea0000 	lw	t2,0(a3)
80000520:	1060007b 	beqz	v1,80000710 <partition+0x200>
80000524:	00a01025 	move	v0,a1
80000528:	00062880 	sll	a1,a2,0x2
8000052c:	00854021 	addu	t0,a0,a1
80000530:	8d030000 	lw	v1,0(t0)
80000534:	24c9ffff 	addiu	t1,a2,-1
80000538:	00025827 	nor	t3,zero,v0
8000053c:	00096080 	sll	t4,t1,0x2
80000540:	01666821 	addu	t5,t3,a2
80000544:	0143702a 	slt	t6,t2,v1
80000548:	008c7821 	addu	t7,a0,t4
8000054c:	11c00074 	beqz	t6,80000720 <partition+0x210>
80000550:	31b80007 	andi	t8,t5,0x7
80000554:	0049c82a 	slt	t9,v0,t1
80000558:	25e5fffc 	addiu	a1,t7,-4
8000055c:	01203025 	move	a2,t1
80000560:	8ca30004 	lw	v1,4(a1)
80000564:	13200066 	beqz	t9,80000700 <partition+0x1f0>
80000568:	01e05825 	move	t3,t7
8000056c:	13000039 	beqz	t8,80000654 <partition+0x144>
80000570:	24070001 	li	a3,1
80000574:	1307002e 	beq	t8,a3,80000630 <partition+0x120>
80000578:	24080002 	li	t0,2
8000057c:	13080026 	beq	t8,t0,80000618 <partition+0x108>
80000580:	24090003 	li	t1,3
80000584:	1309001e 	beq	t8,t1,80000600 <partition+0xf0>
80000588:	240b0004 	li	t3,4
8000058c:	130b0016 	beq	t8,t3,800005e8 <partition+0xd8>
80000590:	240c0005 	li	t4,5
80000594:	130c000e 	beq	t8,t4,800005d0 <partition+0xc0>
80000598:	240d0006 	li	t5,6
8000059c:	130d0006 	beq	t8,t5,800005b8 <partition+0xa8>
800005a0:	0143702a 	slt	t6,t2,v1
800005a4:	11c00062 	beqz	t6,80000730 <partition+0x220>
800005a8:	00025880 	sll	t3,v0,0x2
800005ac:	8ca30000 	lw	v1,0(a1)
800005b0:	24c6ffff 	addiu	a2,a2,-1
800005b4:	24a5fffc 	addiu	a1,a1,-4
800005b8:	0143782a 	slt	t7,t2,v1
800005bc:	11e0005c 	beqz	t7,80000730 <partition+0x220>
800005c0:	00025880 	sll	t3,v0,0x2
800005c4:	8ca30000 	lw	v1,0(a1)
800005c8:	24c6ffff 	addiu	a2,a2,-1
800005cc:	24a5fffc 	addiu	a1,a1,-4
800005d0:	0143c02a 	slt	t8,t2,v1
800005d4:	13000056 	beqz	t8,80000730 <partition+0x220>
800005d8:	00025880 	sll	t3,v0,0x2
800005dc:	8ca30000 	lw	v1,0(a1)
800005e0:	24c6ffff 	addiu	a2,a2,-1
800005e4:	24a5fffc 	addiu	a1,a1,-4
800005e8:	0143c82a 	slt	t9,t2,v1
800005ec:	13200050 	beqz	t9,80000730 <partition+0x220>
800005f0:	00025880 	sll	t3,v0,0x2
800005f4:	8ca30000 	lw	v1,0(a1)
800005f8:	24c6ffff 	addiu	a2,a2,-1
800005fc:	24a5fffc 	addiu	a1,a1,-4
80000600:	0143382a 	slt	a3,t2,v1
80000604:	10e0004a 	beqz	a3,80000730 <partition+0x220>
80000608:	00025880 	sll	t3,v0,0x2
8000060c:	8ca30000 	lw	v1,0(a1)
80000610:	24c6ffff 	addiu	a2,a2,-1
80000614:	24a5fffc 	addiu	a1,a1,-4
80000618:	0143402a 	slt	t0,t2,v1
8000061c:	11000044 	beqz	t0,80000730 <partition+0x220>
80000620:	00025880 	sll	t3,v0,0x2
80000624:	8ca30000 	lw	v1,0(a1)
80000628:	24c6ffff 	addiu	a2,a2,-1
8000062c:	24a5fffc 	addiu	a1,a1,-4
80000630:	0143482a 	slt	t1,t2,v1
80000634:	1120003a 	beqz	t1,80000720 <partition+0x210>
80000638:	00a05825 	move	t3,a1
8000063c:	24c6ffff 	addiu	a2,a2,-1
80000640:	0046602a 	slt	t4,v0,a2
80000644:	24a5fffc 	addiu	a1,a1,-4
80000648:	8ca30004 	lw	v1,4(a1)
8000064c:	1180002c 	beqz	t4,80000700 <partition+0x1f0>
80000650:	00000000 	nop
80000654:	0143682a 	slt	t5,t2,v1
80000658:	11a00031 	beqz	t5,80000720 <partition+0x210>
8000065c:	24abffe4 	addiu	t3,a1,-28
80000660:	8ca30000 	lw	v1,0(a1)
80000664:	24c6ffff 	addiu	a2,a2,-1
80000668:	0143702a 	slt	t6,t2,v1
8000066c:	11c0002c 	beqz	t6,80000720 <partition+0x210>
80000670:	00c07825 	move	t7,a2
80000674:	8ca3fffc 	lw	v1,-4(a1)
80000678:	00000000 	nop
8000067c:	0143c02a 	slt	t8,t2,v1
80000680:	13000027 	beqz	t8,80000720 <partition+0x210>
80000684:	24c6ffff 	addiu	a2,a2,-1
80000688:	8ca3fff8 	lw	v1,-8(a1)
8000068c:	00000000 	nop
80000690:	0143c82a 	slt	t9,t2,v1
80000694:	13200022 	beqz	t9,80000720 <partition+0x210>
80000698:	25e6fffe 	addiu	a2,t7,-2
8000069c:	8ca3fff4 	lw	v1,-12(a1)
800006a0:	00000000 	nop
800006a4:	0143382a 	slt	a3,t2,v1
800006a8:	10e0001d 	beqz	a3,80000720 <partition+0x210>
800006ac:	25e6fffd 	addiu	a2,t7,-3
800006b0:	8ca3fff0 	lw	v1,-16(a1)
800006b4:	00000000 	nop
800006b8:	0143402a 	slt	t0,t2,v1
800006bc:	11000018 	beqz	t0,80000720 <partition+0x210>
800006c0:	25e6fffc 	addiu	a2,t7,-4
800006c4:	8ca3ffec 	lw	v1,-20(a1)
800006c8:	25e6fffb 	addiu	a2,t7,-5
800006cc:	0143482a 	slt	t1,t2,v1
800006d0:	11200013 	beqz	t1,80000720 <partition+0x210>
800006d4:	24a5ffe0 	addiu	a1,a1,-32
800006d8:	8d630004 	lw	v1,4(t3)
800006dc:	00000000 	nop
800006e0:	0143602a 	slt	t4,t2,v1
800006e4:	1180000e 	beqz	t4,80000720 <partition+0x210>
800006e8:	25e6fffa 	addiu	a2,t7,-6
800006ec:	25e6fff9 	addiu	a2,t7,-7
800006f0:	0046c02a 	slt	t8,v0,a2
800006f4:	8ca30004 	lw	v1,4(a1)
800006f8:	1700ffd7 	bnez	t8,80000658 <partition+0x148>
800006fc:	0143682a 	slt	t5,t2,v1
80000700:	00023080 	sll	a2,v0,0x2
80000704:	00863821 	addu	a3,a0,a2
80000708:	ace30000 	sw	v1,0(a3)
8000070c:	ad630000 	sw	v1,0(t3)
80000710:	03e00008 	jr	ra
80000714:	acea0000 	sw	t2,0(a3)
	...
80000720:	00025880 	sll	t3,v0,0x2
	...
80000730:	008b3821 	addu	a3,a0,t3
80000734:	00066880 	sll	t5,a2,0x2
80000738:	0046702a 	slt	t6,v0,a2
8000073c:	008d5821 	addu	t3,a0,t5
80000740:	11c0fff2 	beqz	t6,8000070c <partition+0x1fc>
80000744:	ace30000 	sw	v1,0(a3)
80000748:	00c27823 	subu	t7,a2,v0
8000074c:	31f80007 	andi	t8,t7,0x7
80000750:	1300003f 	beqz	t8,80000850 <partition+0x340>
80000754:	00e02825 	move	a1,a3
80000758:	24190001 	li	t9,1
8000075c:	13190032 	beq	t8,t9,80000828 <partition+0x318>
80000760:	24080002 	li	t0,2
80000764:	13080029 	beq	t8,t0,8000080c <partition+0x2fc>
80000768:	24090003 	li	t1,3
8000076c:	13090020 	beq	t8,t1,800007f0 <partition+0x2e0>
80000770:	240c0004 	li	t4,4
80000774:	130c0017 	beq	t8,t4,800007d4 <partition+0x2c4>
80000778:	240d0005 	li	t5,5
8000077c:	130d000e 	beq	t8,t5,800007b8 <partition+0x2a8>
80000780:	240e0006 	li	t6,6
80000784:	130e0005 	beq	t8,t6,8000079c <partition+0x28c>
80000788:	0143782a 	slt	t7,t2,v1
8000078c:	15e00064 	bnez	t7,80000920 <partition+0x410>
80000790:	0046782a 	slt	t7,v0,a2
80000794:	24420001 	addiu	v0,v0,1
80000798:	24e50004 	addiu	a1,a3,4
8000079c:	8ca30000 	lw	v1,0(a1)
800007a0:	00000000 	nop
800007a4:	0143c02a 	slt	t8,t2,v1
800007a8:	1700005c 	bnez	t8,8000091c <partition+0x40c>
800007ac:	00a03825 	move	a3,a1
800007b0:	24420001 	addiu	v0,v0,1
800007b4:	24a50004 	addiu	a1,a1,4
800007b8:	8ca30000 	lw	v1,0(a1)
800007bc:	00000000 	nop
800007c0:	0143c82a 	slt	t9,t2,v1
800007c4:	17200055 	bnez	t9,8000091c <partition+0x40c>
800007c8:	00a03825 	move	a3,a1
800007cc:	24420001 	addiu	v0,v0,1
800007d0:	24a50004 	addiu	a1,a1,4
800007d4:	8ca30000 	lw	v1,0(a1)
800007d8:	00000000 	nop
800007dc:	0143402a 	slt	t0,t2,v1
800007e0:	1500004e 	bnez	t0,8000091c <partition+0x40c>
800007e4:	00a03825 	move	a3,a1
800007e8:	24420001 	addiu	v0,v0,1
800007ec:	24a50004 	addiu	a1,a1,4
800007f0:	8ca30000 	lw	v1,0(a1)
800007f4:	00000000 	nop
800007f8:	0143482a 	slt	t1,t2,v1
800007fc:	15200047 	bnez	t1,8000091c <partition+0x40c>
80000800:	00a03825 	move	a3,a1
80000804:	24420001 	addiu	v0,v0,1
80000808:	24a50004 	addiu	a1,a1,4
8000080c:	8ca30000 	lw	v1,0(a1)
80000810:	00000000 	nop
80000814:	0143602a 	slt	t4,t2,v1
80000818:	15800040 	bnez	t4,8000091c <partition+0x40c>
8000081c:	00a03825 	move	a3,a1
80000820:	24420001 	addiu	v0,v0,1
80000824:	24a50004 	addiu	a1,a1,4
80000828:	8ca30000 	lw	v1,0(a1)
8000082c:	00000000 	nop
80000830:	0143682a 	slt	t5,t2,v1
80000834:	15a00039 	bnez	t5,8000091c <partition+0x40c>
80000838:	00a03825 	move	a3,a1
8000083c:	24a50004 	addiu	a1,a1,4
80000840:	24420001 	addiu	v0,v0,1
80000844:	8ca30000 	lw	v1,0(a1)
80000848:	1046ffb0 	beq	v0,a2,8000070c <partition+0x1fc>
8000084c:	00a03825 	move	a3,a1
80000850:	8ca30000 	lw	v1,0(a1)
80000854:	00000000 	nop
80000858:	0143702a 	slt	t6,t2,v1
8000085c:	15c0002f 	bnez	t6,8000091c <partition+0x40c>
80000860:	00a03825 	move	a3,a1
80000864:	8ca30004 	lw	v1,4(a1)
80000868:	24420001 	addiu	v0,v0,1
8000086c:	0143782a 	slt	t7,t2,v1
80000870:	0040c025 	move	t8,v0
80000874:	15e00029 	bnez	t7,8000091c <partition+0x40c>
80000878:	24a70004 	addiu	a3,a1,4
8000087c:	8ca30008 	lw	v1,8(a1)
80000880:	24a70008 	addiu	a3,a1,8
80000884:	0143c82a 	slt	t9,t2,v1
80000888:	17200024 	bnez	t9,8000091c <partition+0x40c>
8000088c:	24420001 	addiu	v0,v0,1
80000890:	8ca3000c 	lw	v1,12(a1)
80000894:	24a7000c 	addiu	a3,a1,12
80000898:	0143402a 	slt	t0,t2,v1
8000089c:	1500001f 	bnez	t0,8000091c <partition+0x40c>
800008a0:	27020002 	addiu	v0,t8,2
800008a4:	8ca30010 	lw	v1,16(a1)
800008a8:	24a70010 	addiu	a3,a1,16
800008ac:	0143482a 	slt	t1,t2,v1
800008b0:	1520001a 	bnez	t1,8000091c <partition+0x40c>
800008b4:	27020003 	addiu	v0,t8,3
800008b8:	8ca30014 	lw	v1,20(a1)
800008bc:	24a70014 	addiu	a3,a1,20
800008c0:	0143602a 	slt	t4,t2,v1
800008c4:	15800015 	bnez	t4,8000091c <partition+0x40c>
800008c8:	27020004 	addiu	v0,t8,4
800008cc:	8ca30018 	lw	v1,24(a1)
800008d0:	24a70018 	addiu	a3,a1,24
800008d4:	0143682a 	slt	t5,t2,v1
800008d8:	15a00010 	bnez	t5,8000091c <partition+0x40c>
800008dc:	27020005 	addiu	v0,t8,5
800008e0:	8ca3001c 	lw	v1,28(a1)
800008e4:	24a7001c 	addiu	a3,a1,28
800008e8:	0143702a 	slt	t6,t2,v1
800008ec:	24a50020 	addiu	a1,a1,32
800008f0:	15c0000a 	bnez	t6,8000091c <partition+0x40c>
800008f4:	27020006 	addiu	v0,t8,6
800008f8:	27020007 	addiu	v0,t8,7
800008fc:	8ca30000 	lw	v1,0(a1)
80000900:	1046ff82 	beq	v0,a2,8000070c <partition+0x1fc>
80000904:	00a03825 	move	a3,a1
80000908:	8ca30000 	lw	v1,0(a1)
8000090c:	00000000 	nop
80000910:	0143702a 	slt	t6,t2,v1
80000914:	11c0ffd3 	beqz	t6,80000864 <partition+0x354>
80000918:	00000000 	nop
8000091c:	0046782a 	slt	t7,v0,a2
80000920:	15e0ff04 	bnez	t7,80000534 <partition+0x24>
80000924:	ad630000 	sw	v1,0(t3)
80000928:	1000ff79 	b	80000710 <partition+0x200>
8000092c:	00000000 	nop

80000930 <_quick_sort>:
_quick_sort():
80000930:	00a6102a 	slt	v0,a1,a2
80000934:	1040011c 	beqz	v0,80000da8 <_quick_sort+0x478>
80000938:	00051880 	sll	v1,a1,0x2
8000093c:	27bdffd8 	addiu	sp,sp,-40
80000940:	afb10018 	sw	s1,24(sp)
80000944:	00068880 	sll	s1,a2,0x2
80000948:	afb30020 	sw	s3,32(sp)
8000094c:	afb2001c 	sw	s2,28(sp)
80000950:	afbf0024 	sw	ra,36(sp)
80000954:	afb00014 	sw	s0,20(sp)
80000958:	00c09025 	move	s2,a2
8000095c:	00809825 	move	s3,a0
80000960:	00918821 	addu	s1,a0,s1
80000964:	02632021 	addu	a0,s3,v1
80000968:	8c890000 	lw	t1,0(a0)
8000096c:	8e220000 	lw	v0,0(s1)
80000970:	02404025 	move	t0,s2
80000974:	00a03025 	move	a2,a1
80000978:	0122182a 	slt	v1,t1,v0
8000097c:	00065027 	nor	t2,zero,a2
80000980:	250bffff 	addiu	t3,t0,-1
80000984:	01486021 	addu	t4,t2,t0
80000988:	000b3880 	sll	a3,t3,0x2
8000098c:	318d0007 	andi	t5,t4,0x7
80000990:	11a0003a 	beqz	t5,80000a7c <_quick_sort+0x14c>
80000994:	02673821 	addu	a3,s3,a3
80000998:	10600067 	beqz	v1,80000b38 <_quick_sort+0x208>
8000099c:	00e07025 	move	t6,a3
800009a0:	00cb782a 	slt	t7,a2,t3
800009a4:	24e7fffc 	addiu	a3,a3,-4
800009a8:	8ce20004 	lw	v0,4(a3)
800009ac:	11e000f8 	beqz	t7,80000d90 <_quick_sort+0x460>
800009b0:	01604025 	move	t0,t3
800009b4:	24100001 	li	s0,1
800009b8:	11b00030 	beq	t5,s0,80000a7c <_quick_sort+0x14c>
800009bc:	0122182a 	slt	v1,t1,v0
800009c0:	24180002 	li	t8,2
800009c4:	11b80027 	beq	t5,t8,80000a64 <_quick_sort+0x134>
800009c8:	24190003 	li	t9,3
800009cc:	11b9001f 	beq	t5,t9,80000a4c <_quick_sort+0x11c>
800009d0:	241f0004 	li	ra,4
800009d4:	11bf0017 	beq	t5,ra,80000a34 <_quick_sort+0x104>
800009d8:	24040005 	li	a0,5
800009dc:	11a4000f 	beq	t5,a0,80000a1c <_quick_sort+0xec>
800009e0:	240a0006 	li	t2,6
800009e4:	11aa0007 	beq	t5,t2,80000a04 <_quick_sort+0xd4>
800009e8:	00000000 	nop
800009ec:	10600053 	beqz	v1,80000b3c <_quick_sort+0x20c>
800009f0:	0006f880 	sll	ra,a2,0x2
800009f4:	8ce20000 	lw	v0,0(a3)
800009f8:	2568ffff 	addiu	t0,t3,-1
800009fc:	24e7fffc 	addiu	a3,a3,-4
80000a00:	0122182a 	slt	v1,t1,v0
80000a04:	1060004d 	beqz	v1,80000b3c <_quick_sort+0x20c>
80000a08:	0006f880 	sll	ra,a2,0x2
80000a0c:	8ce20000 	lw	v0,0(a3)
80000a10:	2508ffff 	addiu	t0,t0,-1
80000a14:	24e7fffc 	addiu	a3,a3,-4
80000a18:	0122182a 	slt	v1,t1,v0
80000a1c:	10600047 	beqz	v1,80000b3c <_quick_sort+0x20c>
80000a20:	0006f880 	sll	ra,a2,0x2
80000a24:	8ce20000 	lw	v0,0(a3)
80000a28:	2508ffff 	addiu	t0,t0,-1
80000a2c:	24e7fffc 	addiu	a3,a3,-4
80000a30:	0122182a 	slt	v1,t1,v0
80000a34:	10600041 	beqz	v1,80000b3c <_quick_sort+0x20c>
80000a38:	0006f880 	sll	ra,a2,0x2
80000a3c:	8ce20000 	lw	v0,0(a3)
80000a40:	2508ffff 	addiu	t0,t0,-1
80000a44:	24e7fffc 	addiu	a3,a3,-4
80000a48:	0122182a 	slt	v1,t1,v0
80000a4c:	1060003b 	beqz	v1,80000b3c <_quick_sort+0x20c>
80000a50:	0006f880 	sll	ra,a2,0x2
80000a54:	8ce20000 	lw	v0,0(a3)
80000a58:	2508ffff 	addiu	t0,t0,-1
80000a5c:	24e7fffc 	addiu	a3,a3,-4
80000a60:	0122182a 	slt	v1,t1,v0
80000a64:	10600035 	beqz	v1,80000b3c <_quick_sort+0x20c>
80000a68:	0006f880 	sll	ra,a2,0x2
80000a6c:	8ce20000 	lw	v0,0(a3)
80000a70:	2508ffff 	addiu	t0,t0,-1
80000a74:	24e7fffc 	addiu	a3,a3,-4
80000a78:	0122182a 	slt	v1,t1,v0
80000a7c:	1060002f 	beqz	v1,80000b3c <_quick_sort+0x20c>
80000a80:	0006f880 	sll	ra,a2,0x2
80000a84:	2508ffff 	addiu	t0,t0,-1
80000a88:	8ce20000 	lw	v0,0(a3)
80000a8c:	00c8582a 	slt	t3,a2,t0
80000a90:	01001825 	move	v1,t0
80000a94:	00e07025 	move	t6,a3
80000a98:	116000bd 	beqz	t3,80000d90 <_quick_sort+0x460>
80000a9c:	0122602a 	slt	t4,t1,v0
80000aa0:	11800026 	beqz	t4,80000b3c <_quick_sort+0x20c>
80000aa4:	0006f880 	sll	ra,a2,0x2
80000aa8:	8ce2fffc 	lw	v0,-4(a3)
80000aac:	00000000 	nop
80000ab0:	0122682a 	slt	t5,t1,v0
80000ab4:	11a00021 	beqz	t5,80000b3c <_quick_sort+0x20c>
80000ab8:	2508ffff 	addiu	t0,t0,-1
80000abc:	8ce2fff8 	lw	v0,-8(a3)
80000ac0:	00000000 	nop
80000ac4:	0122702a 	slt	t6,t1,v0
80000ac8:	11c0001c 	beqz	t6,80000b3c <_quick_sort+0x20c>
80000acc:	2468fffe 	addiu	t0,v1,-2
80000ad0:	8ce2fff4 	lw	v0,-12(a3)
80000ad4:	00000000 	nop
80000ad8:	0122782a 	slt	t7,t1,v0
80000adc:	11e00017 	beqz	t7,80000b3c <_quick_sort+0x20c>
80000ae0:	2468fffd 	addiu	t0,v1,-3
80000ae4:	8ce2fff0 	lw	v0,-16(a3)
80000ae8:	00000000 	nop
80000aec:	0122802a 	slt	s0,t1,v0
80000af0:	12000012 	beqz	s0,80000b3c <_quick_sort+0x20c>
80000af4:	2468fffc 	addiu	t0,v1,-4
80000af8:	8ce2ffec 	lw	v0,-20(a3)
80000afc:	00000000 	nop
80000b00:	0122c02a 	slt	t8,t1,v0
80000b04:	1300000d 	beqz	t8,80000b3c <_quick_sort+0x20c>
80000b08:	2468fffb 	addiu	t0,v1,-5
80000b0c:	8ce2ffe8 	lw	v0,-24(a3)
80000b10:	2468fffa 	addiu	t0,v1,-6
80000b14:	0122c82a 	slt	t9,t1,v0
80000b18:	13200008 	beqz	t9,80000b3c <_quick_sort+0x20c>
80000b1c:	24e7ffe0 	addiu	a3,a3,-32
80000b20:	8ce20004 	lw	v0,4(a3)
80000b24:	2468fff9 	addiu	t0,v1,-7
80000b28:	0122182a 	slt	v1,t1,v0
80000b2c:	1460ffd6 	bnez	v1,80000a88 <_quick_sort+0x158>
80000b30:	2508ffff 	addiu	t0,t0,-1
80000b34:	25080001 	addiu	t0,t0,1
80000b38:	0006f880 	sll	ra,a2,0x2
80000b3c:	00085080 	sll	t2,t0,0x2
80000b40:	027f2021 	addu	a0,s3,ra
80000b44:	00c8582a 	slt	t3,a2,t0
80000b48:	00c08025 	move	s0,a2
80000b4c:	026a7021 	addu	t6,s3,t2
80000b50:	11600097 	beqz	t3,80000db0 <_quick_sort+0x480>
80000b54:	ac820000 	sw	v0,0(a0)
80000b58:	01061823 	subu	v1,t0,a2
80000b5c:	306c0007 	andi	t4,v1,0x7
80000b60:	1180003c 	beqz	t4,80000c54 <_quick_sort+0x324>
80000b64:	00803825 	move	a3,a0
80000b68:	240d0001 	li	t5,1
80000b6c:	118d0031 	beq	t4,t5,80000c34 <_quick_sort+0x304>
80000b70:	240f0002 	li	t7,2
80000b74:	118f0028 	beq	t4,t7,80000c18 <_quick_sort+0x2e8>
80000b78:	24180003 	li	t8,3
80000b7c:	1198001f 	beq	t4,t8,80000bfc <_quick_sort+0x2cc>
80000b80:	24190004 	li	t9,4
80000b84:	11990016 	beq	t4,t9,80000be0 <_quick_sort+0x2b0>
80000b88:	241f0005 	li	ra,5
80000b8c:	119f000d 	beq	t4,ra,80000bc4 <_quick_sort+0x294>
80000b90:	240a0006 	li	t2,6
80000b94:	118a0004 	beq	t4,t2,80000ba8 <_quick_sort+0x278>
80000b98:	0122182a 	slt	v1,t1,v0
80000b9c:	24d00001 	addiu	s0,a2,1
80000ba0:	14600073 	bnez	v1,80000d70 <_quick_sort+0x440>
80000ba4:	24870004 	addiu	a3,a0,4
80000ba8:	8ce20000 	lw	v0,0(a3)
80000bac:	00e02025 	move	a0,a3
80000bb0:	0122182a 	slt	v1,t1,v0
80000bb4:	02003025 	move	a2,s0
80000bb8:	24e70004 	addiu	a3,a3,4
80000bbc:	1460006c 	bnez	v1,80000d70 <_quick_sort+0x440>
80000bc0:	26100001 	addiu	s0,s0,1
80000bc4:	8ce20000 	lw	v0,0(a3)
80000bc8:	00e02025 	move	a0,a3
80000bcc:	0122182a 	slt	v1,t1,v0
80000bd0:	02003025 	move	a2,s0
80000bd4:	24e70004 	addiu	a3,a3,4
80000bd8:	14600065 	bnez	v1,80000d70 <_quick_sort+0x440>
80000bdc:	26100001 	addiu	s0,s0,1
80000be0:	8ce20000 	lw	v0,0(a3)
80000be4:	00e02025 	move	a0,a3
80000be8:	0122182a 	slt	v1,t1,v0
80000bec:	02003025 	move	a2,s0
80000bf0:	24e70004 	addiu	a3,a3,4
80000bf4:	1460005e 	bnez	v1,80000d70 <_quick_sort+0x440>
80000bf8:	26100001 	addiu	s0,s0,1
80000bfc:	8ce20000 	lw	v0,0(a3)
80000c00:	00e02025 	move	a0,a3
80000c04:	0122182a 	slt	v1,t1,v0
80000c08:	02003025 	move	a2,s0
80000c0c:	24e70004 	addiu	a3,a3,4
80000c10:	14600057 	bnez	v1,80000d70 <_quick_sort+0x440>
80000c14:	26100001 	addiu	s0,s0,1
80000c18:	8ce20000 	lw	v0,0(a3)
80000c1c:	00e02025 	move	a0,a3
80000c20:	0122182a 	slt	v1,t1,v0
80000c24:	02003025 	move	a2,s0
80000c28:	24e70004 	addiu	a3,a3,4
80000c2c:	14600050 	bnez	v1,80000d70 <_quick_sort+0x440>
80000c30:	26100001 	addiu	s0,s0,1
80000c34:	8ce20000 	lw	v0,0(a3)
80000c38:	02003025 	move	a2,s0
80000c3c:	0122182a 	slt	v1,t1,v0
80000c40:	00e02025 	move	a0,a3
80000c44:	1460004a 	bnez	v1,80000d70 <_quick_sort+0x440>
80000c48:	26100001 	addiu	s0,s0,1
80000c4c:	11100033 	beq	t0,s0,80000d1c <_quick_sort+0x3ec>
80000c50:	24e70004 	addiu	a3,a3,4
80000c54:	8ce20000 	lw	v0,0(a3)
80000c58:	00e02025 	move	a0,a3
80000c5c:	0122182a 	slt	v1,t1,v0
80000c60:	02003025 	move	a2,s0
80000c64:	14600042 	bnez	v1,80000d70 <_quick_sort+0x440>
80000c68:	260b0001 	addiu	t3,s0,1
80000c6c:	8ce20004 	lw	v0,4(a3)
80000c70:	24e40004 	addiu	a0,a3,4
80000c74:	0122182a 	slt	v1,t1,v0
80000c78:	260c0002 	addiu	t4,s0,2
80000c7c:	1460003c 	bnez	v1,80000d70 <_quick_sort+0x440>
80000c80:	01603025 	move	a2,t3
80000c84:	8ce20008 	lw	v0,8(a3)
80000c88:	24e40008 	addiu	a0,a3,8
80000c8c:	0122182a 	slt	v1,t1,v0
80000c90:	260d0003 	addiu	t5,s0,3
80000c94:	14600036 	bnez	v1,80000d70 <_quick_sort+0x440>
80000c98:	01803025 	move	a2,t4
80000c9c:	8ce2000c 	lw	v0,12(a3)
80000ca0:	24e4000c 	addiu	a0,a3,12
80000ca4:	0122182a 	slt	v1,t1,v0
80000ca8:	260f0004 	addiu	t7,s0,4
80000cac:	14600030 	bnez	v1,80000d70 <_quick_sort+0x440>
80000cb0:	01a03025 	move	a2,t5
80000cb4:	8ce20010 	lw	v0,16(a3)
80000cb8:	24e40010 	addiu	a0,a3,16
80000cbc:	0122182a 	slt	v1,t1,v0
80000cc0:	26180005 	addiu	t8,s0,5
80000cc4:	1460002a 	bnez	v1,80000d70 <_quick_sort+0x440>
80000cc8:	01e03025 	move	a2,t7
80000ccc:	8ce20014 	lw	v0,20(a3)
80000cd0:	24e40014 	addiu	a0,a3,20
80000cd4:	0122182a 	slt	v1,t1,v0
80000cd8:	26190006 	addiu	t9,s0,6
80000cdc:	14600024 	bnez	v1,80000d70 <_quick_sort+0x440>
80000ce0:	03003025 	move	a2,t8
80000ce4:	8ce20018 	lw	v0,24(a3)
80000ce8:	24e40018 	addiu	a0,a3,24
80000cec:	0122182a 	slt	v1,t1,v0
80000cf0:	261f0007 	addiu	ra,s0,7
80000cf4:	1460001e 	bnez	v1,80000d70 <_quick_sort+0x440>
80000cf8:	03203025 	move	a2,t9
80000cfc:	8ce2001c 	lw	v0,28(a3)
80000d00:	24e4001c 	addiu	a0,a3,28
80000d04:	0122182a 	slt	v1,t1,v0
80000d08:	26100008 	addiu	s0,s0,8
80000d0c:	14600018 	bnez	v1,80000d70 <_quick_sort+0x440>
80000d10:	03e03025 	move	a2,ra
80000d14:	1510ffcf 	bne	t0,s0,80000c54 <_quick_sort+0x324>
80000d18:	24e70020 	addiu	a3,a3,32
80000d1c:	00101080 	sll	v0,s0,0x2
80000d20:	02622021 	addu	a0,s3,v0
80000d24:	8c820000 	lw	v0,0(a0)
80000d28:	00000000 	nop
80000d2c:	adc20000 	sw	v0,0(t6)
80000d30:	ac890000 	sw	t1,0(a0)
80000d34:	0c00024c 	jal	80000930 <_quick_sort>
80000d38:	02602025 	move	a0,s3
80000d3c:	26050001 	addiu	a1,s0,1
80000d40:	00b2302a 	slt	a2,a1,s2
80000d44:	14c0ff07 	bnez	a2,80000964 <_quick_sort+0x34>
80000d48:	00051880 	sll	v1,a1,0x2
80000d4c:	8fbf0024 	lw	ra,36(sp)
80000d50:	8fb30020 	lw	s3,32(sp)
80000d54:	8fb2001c 	lw	s2,28(sp)
80000d58:	8fb10018 	lw	s1,24(sp)
80000d5c:	8fb00014 	lw	s0,20(sp)
80000d60:	03e00008 	jr	ra
80000d64:	27bd0028 	addiu	sp,sp,40
	...
80000d70:	00c8382a 	slt	a3,a2,t0
80000d74:	14e0ff01 	bnez	a3,8000097c <_quick_sort+0x4c>
80000d78:	adc20000 	sw	v0,0(t6)
80000d7c:	00c08025 	move	s0,a2
80000d80:	1000ffeb 	b	80000d30 <_quick_sort+0x400>
80000d84:	24c6ffff 	addiu	a2,a2,-1
	...
80000d90:	00064080 	sll	t0,a2,0x2
80000d94:	02682021 	addu	a0,s3,t0
80000d98:	00c08025 	move	s0,a2
80000d9c:	ac820000 	sw	v0,0(a0)
80000da0:	1000ffe2 	b	80000d2c <_quick_sort+0x3fc>
80000da4:	24c6ffff 	addiu	a2,a2,-1
80000da8:	03e00008 	jr	ra
80000dac:	00000000 	nop
80000db0:	1000ffde 	b	80000d2c <_quick_sort+0x3fc>
80000db4:	24c6ffff 	addiu	a2,a2,-1
	...

80000dc0 <quick_sort>:
quick_sort():
80000dc0:	27bdffd8 	addiu	sp,sp,-40
80000dc4:	afbf0024 	sw	ra,36(sp)
80000dc8:	afb40020 	sw	s4,32(sp)
80000dcc:	afb3001c 	sw	s3,28(sp)
80000dd0:	afb20018 	sw	s2,24(sp)
80000dd4:	afb10014 	sw	s1,20(sp)
80000dd8:	18a0016d 	blez	a1,80001390 <quick_sort+0x5d0>
80000ddc:	afb00010 	sw	s0,16(sp)
80000de0:	00053080 	sll	a2,a1,0x2
80000de4:	24c3fffc 	addiu	v1,a2,-4
80000de8:	00031082 	srl	v0,v1,0x2
80000dec:	24470001 	addiu	a3,v0,1
80000df0:	3c128000 	lui	s2,0x8000
80000df4:	26533f40 	addiu	s3,s2,16192
80000df8:	30e80007 	andi	t0,a3,0x7
80000dfc:	02601025 	move	v0,s3
80000e00:	11000027 	beqz	t0,80000ea0 <quick_sort+0xe0>
80000e04:	00864821 	addu	t1,a0,a2
80000e08:	240a0001 	li	t2,1
80000e0c:	110a001f 	beq	t0,t2,80000e8c <quick_sort+0xcc>
80000e10:	240b0002 	li	t3,2
80000e14:	110b0019 	beq	t0,t3,80000e7c <quick_sort+0xbc>
80000e18:	240c0003 	li	t4,3
80000e1c:	110c0013 	beq	t0,t4,80000e6c <quick_sort+0xac>
80000e20:	240d0004 	li	t5,4
80000e24:	110d000d 	beq	t0,t5,80000e5c <quick_sort+0x9c>
80000e28:	240e0005 	li	t6,5
80000e2c:	110e0007 	beq	t0,t6,80000e4c <quick_sort+0x8c>
80000e30:	240f0006 	li	t7,6
80000e34:	150f014e 	bne	t0,t7,80001370 <quick_sort+0x5b0>
80000e38:	00000000 	nop
80000e3c:	8c910000 	lw	s1,0(a0)
80000e40:	24420004 	addiu	v0,v0,4
80000e44:	ac51fffc 	sw	s1,-4(v0)
80000e48:	24840004 	addiu	a0,a0,4
80000e4c:	8c940000 	lw	s4,0(a0)
80000e50:	24420004 	addiu	v0,v0,4
80000e54:	ac54fffc 	sw	s4,-4(v0)
80000e58:	24840004 	addiu	a0,a0,4
80000e5c:	8c980000 	lw	t8,0(a0)
80000e60:	24420004 	addiu	v0,v0,4
80000e64:	ac58fffc 	sw	t8,-4(v0)
80000e68:	24840004 	addiu	a0,a0,4
80000e6c:	8c990000 	lw	t9,0(a0)
80000e70:	24420004 	addiu	v0,v0,4
80000e74:	ac59fffc 	sw	t9,-4(v0)
80000e78:	24840004 	addiu	a0,a0,4
80000e7c:	8c9f0000 	lw	ra,0(a0)
80000e80:	24420004 	addiu	v0,v0,4
80000e84:	ac5ffffc 	sw	ra,-4(v0)
80000e88:	24840004 	addiu	a0,a0,4
80000e8c:	8c860000 	lw	a2,0(a0)
80000e90:	24840004 	addiu	a0,a0,4
80000e94:	ac460000 	sw	a2,0(v0)
80000e98:	10890019 	beq	a0,t1,80000f00 <quick_sort+0x140>
80000e9c:	24420004 	addiu	v0,v0,4
80000ea0:	8c830000 	lw	v1,0(a0)
80000ea4:	24840020 	addiu	a0,a0,32
80000ea8:	ac430000 	sw	v1,0(v0)
80000eac:	8c87ffe4 	lw	a3,-28(a0)
80000eb0:	24420020 	addiu	v0,v0,32
80000eb4:	ac47ffe4 	sw	a3,-28(v0)
80000eb8:	8c88ffe8 	lw	t0,-24(a0)
80000ebc:	00000000 	nop
80000ec0:	ac48ffe8 	sw	t0,-24(v0)
80000ec4:	8c8affec 	lw	t2,-20(a0)
80000ec8:	00000000 	nop
80000ecc:	ac4affec 	sw	t2,-20(v0)
80000ed0:	8c8bfff0 	lw	t3,-16(a0)
80000ed4:	00000000 	nop
80000ed8:	ac4bfff0 	sw	t3,-16(v0)
80000edc:	8c8cfff4 	lw	t4,-12(a0)
80000ee0:	00000000 	nop
80000ee4:	ac4cfff4 	sw	t4,-12(v0)
80000ee8:	8c8dfff8 	lw	t5,-8(a0)
80000eec:	00000000 	nop
80000ef0:	ac4dfff8 	sw	t5,-8(v0)
80000ef4:	8c8efffc 	lw	t6,-4(a0)
80000ef8:	1489ffe9 	bne	a0,t1,80000ea0 <quick_sort+0xe0>
80000efc:	ac4efffc 	sw	t6,-4(v0)
80000f00:	24b4ffff 	addiu	s4,a1,-1
80000f04:	1a8000fe 	blez	s4,80001300 <quick_sort+0x540>
80000f08:	26523f40 	addiu	s2,s2,16192
80000f0c:	00142080 	sll	a0,s4,0x2
80000f10:	02648821 	addu	s1,s3,a0
80000f14:	00002825 	move	a1,zero
80000f18:	00054880 	sll	t1,a1,0x2
80000f1c:	02697821 	addu	t7,s3,t1
80000f20:	8dea0000 	lw	t2,0(t7)
80000f24:	8e230000 	lw	v1,0(s1)
80000f28:	02804825 	move	t1,s4
80000f2c:	00a03025 	move	a2,a1
80000f30:	0143402a 	slt	t0,t2,v1
80000f34:	00068027 	nor	s0,zero,a2
80000f38:	2538ffff 	addiu	t8,t1,-1
80000f3c:	0209c821 	addu	t9,s0,t1
80000f40:	0018f880 	sll	ra,t8,0x2
80000f44:	332b0007 	andi	t3,t9,0x7
80000f48:	1160003a 	beqz	t3,80001034 <quick_sort+0x274>
80000f4c:	027f3821 	addu	a3,s3,ra
80000f50:	11000066 	beqz	t0,800010ec <quick_sort+0x32c>
80000f54:	00e06025 	move	t4,a3
80000f58:	00d8102a 	slt	v0,a2,t8
80000f5c:	24e7fffc 	addiu	a3,a3,-4
80000f60:	8ce30004 	lw	v1,4(a3)
80000f64:	104000fa 	beqz	v0,80001350 <quick_sort+0x590>
80000f68:	03004825 	move	t1,t8
80000f6c:	240d0001 	li	t5,1
80000f70:	116d0030 	beq	t3,t5,80001034 <quick_sort+0x274>
80000f74:	0143402a 	slt	t0,t2,v1
80000f78:	240e0002 	li	t6,2
80000f7c:	116e0027 	beq	t3,t6,8000101c <quick_sort+0x25c>
80000f80:	24040003 	li	a0,3
80000f84:	1164001f 	beq	t3,a0,80001004 <quick_sort+0x244>
80000f88:	240f0004 	li	t7,4
80000f8c:	116f0017 	beq	t3,t7,80000fec <quick_sort+0x22c>
80000f90:	24100005 	li	s0,5
80000f94:	1170000f 	beq	t3,s0,80000fd4 <quick_sort+0x214>
80000f98:	24180006 	li	t8,6
80000f9c:	11780007 	beq	t3,t8,80000fbc <quick_sort+0x1fc>
80000fa0:	00000000 	nop
80000fa4:	11000052 	beqz	t0,800010f0 <quick_sort+0x330>
80000fa8:	00067880 	sll	t7,a2,0x2
80000fac:	8ce30000 	lw	v1,0(a3)
80000fb0:	2529ffff 	addiu	t1,t1,-1
80000fb4:	24e7fffc 	addiu	a3,a3,-4
80000fb8:	0143402a 	slt	t0,t2,v1
80000fbc:	1100004c 	beqz	t0,800010f0 <quick_sort+0x330>
80000fc0:	00067880 	sll	t7,a2,0x2
80000fc4:	8ce30000 	lw	v1,0(a3)
80000fc8:	2529ffff 	addiu	t1,t1,-1
80000fcc:	24e7fffc 	addiu	a3,a3,-4
80000fd0:	0143402a 	slt	t0,t2,v1
80000fd4:	11000046 	beqz	t0,800010f0 <quick_sort+0x330>
80000fd8:	00067880 	sll	t7,a2,0x2
80000fdc:	8ce30000 	lw	v1,0(a3)
80000fe0:	2529ffff 	addiu	t1,t1,-1
80000fe4:	24e7fffc 	addiu	a3,a3,-4
80000fe8:	0143402a 	slt	t0,t2,v1
80000fec:	11000040 	beqz	t0,800010f0 <quick_sort+0x330>
80000ff0:	00067880 	sll	t7,a2,0x2
80000ff4:	8ce30000 	lw	v1,0(a3)
80000ff8:	2529ffff 	addiu	t1,t1,-1
80000ffc:	24e7fffc 	addiu	a3,a3,-4
80001000:	0143402a 	slt	t0,t2,v1
80001004:	1100003a 	beqz	t0,800010f0 <quick_sort+0x330>
80001008:	00067880 	sll	t7,a2,0x2
8000100c:	8ce30000 	lw	v1,0(a3)
80001010:	2529ffff 	addiu	t1,t1,-1
80001014:	24e7fffc 	addiu	a3,a3,-4
80001018:	0143402a 	slt	t0,t2,v1
8000101c:	11000034 	beqz	t0,800010f0 <quick_sort+0x330>
80001020:	00067880 	sll	t7,a2,0x2
80001024:	8ce30000 	lw	v1,0(a3)
80001028:	2529ffff 	addiu	t1,t1,-1
8000102c:	24e7fffc 	addiu	a3,a3,-4
80001030:	0143402a 	slt	t0,t2,v1
80001034:	1100002e 	beqz	t0,800010f0 <quick_sort+0x330>
80001038:	00067880 	sll	t7,a2,0x2
8000103c:	2529ffff 	addiu	t1,t1,-1
80001040:	8ce30000 	lw	v1,0(a3)
80001044:	00c9402a 	slt	t0,a2,t1
80001048:	0120c825 	move	t9,t1
8000104c:	00e06025 	move	t4,a3
80001050:	110000bf 	beqz	t0,80001350 <quick_sort+0x590>
80001054:	0143f82a 	slt	ra,t2,v1
80001058:	13e00025 	beqz	ra,800010f0 <quick_sort+0x330>
8000105c:	00067880 	sll	t7,a2,0x2
80001060:	8ce3fffc 	lw	v1,-4(a3)
80001064:	00000000 	nop
80001068:	0143582a 	slt	t3,t2,v1
8000106c:	11600020 	beqz	t3,800010f0 <quick_sort+0x330>
80001070:	2529ffff 	addiu	t1,t1,-1
80001074:	8ce3fff8 	lw	v1,-8(a3)
80001078:	00000000 	nop
8000107c:	0143602a 	slt	t4,t2,v1
80001080:	1180001b 	beqz	t4,800010f0 <quick_sort+0x330>
80001084:	2729fffe 	addiu	t1,t9,-2
80001088:	8ce3fff4 	lw	v1,-12(a3)
8000108c:	00000000 	nop
80001090:	0143102a 	slt	v0,t2,v1
80001094:	10400016 	beqz	v0,800010f0 <quick_sort+0x330>
80001098:	2729fffd 	addiu	t1,t9,-3
8000109c:	8ce3fff0 	lw	v1,-16(a3)
800010a0:	00000000 	nop
800010a4:	0143682a 	slt	t5,t2,v1
800010a8:	11a00011 	beqz	t5,800010f0 <quick_sort+0x330>
800010ac:	2729fffc 	addiu	t1,t9,-4
800010b0:	8ce3ffec 	lw	v1,-20(a3)
800010b4:	00000000 	nop
800010b8:	0143702a 	slt	t6,t2,v1
800010bc:	11c0000c 	beqz	t6,800010f0 <quick_sort+0x330>
800010c0:	2729fffb 	addiu	t1,t9,-5
800010c4:	8ce3ffe8 	lw	v1,-24(a3)
800010c8:	2729fffa 	addiu	t1,t9,-6
800010cc:	0143202a 	slt	a0,t2,v1
800010d0:	10800007 	beqz	a0,800010f0 <quick_sort+0x330>
800010d4:	24e7ffe0 	addiu	a3,a3,-32
800010d8:	8ce30004 	lw	v1,4(a3)
800010dc:	00000000 	nop
800010e0:	0143402a 	slt	t0,t2,v1
800010e4:	1500ffd5 	bnez	t0,8000103c <quick_sort+0x27c>
800010e8:	2729fff9 	addiu	t1,t9,-7
800010ec:	00067880 	sll	t7,a2,0x2
800010f0:	0009c080 	sll	t8,t1,0x2
800010f4:	026f5821 	addu	t3,s3,t7
800010f8:	00c9402a 	slt	t0,a2,t1
800010fc:	00c08025 	move	s0,a2
80001100:	02786021 	addu	t4,s3,t8
80001104:	110000a5 	beqz	t0,8000139c <quick_sort+0x5dc>
80001108:	ad630000 	sw	v1,0(t3)
8000110c:	0126c823 	subu	t9,t1,a2
80001110:	333f0007 	andi	ra,t9,0x7
80001114:	13e0003c 	beqz	ra,80001208 <quick_sort+0x448>
80001118:	01603825 	move	a3,t3
8000111c:	24020001 	li	v0,1
80001120:	13e20031 	beq	ra,v0,800011e8 <quick_sort+0x428>
80001124:	240d0002 	li	t5,2
80001128:	13ed0028 	beq	ra,t5,800011cc <quick_sort+0x40c>
8000112c:	240e0003 	li	t6,3
80001130:	13ee001f 	beq	ra,t6,800011b0 <quick_sort+0x3f0>
80001134:	24040004 	li	a0,4
80001138:	13e40016 	beq	ra,a0,80001194 <quick_sort+0x3d4>
8000113c:	240f0005 	li	t7,5
80001140:	13ef000d 	beq	ra,t7,80001178 <quick_sort+0x3b8>
80001144:	24180006 	li	t8,6
80001148:	13f80004 	beq	ra,t8,8000115c <quick_sort+0x39c>
8000114c:	0143402a 	slt	t0,t2,v1
80001150:	24d00001 	addiu	s0,a2,1
80001154:	15000076 	bnez	t0,80001330 <quick_sort+0x570>
80001158:	25670004 	addiu	a3,t3,4
8000115c:	8ce30000 	lw	v1,0(a3)
80001160:	00e05825 	move	t3,a3
80001164:	0143402a 	slt	t0,t2,v1
80001168:	02003025 	move	a2,s0
8000116c:	24e70004 	addiu	a3,a3,4
80001170:	1500006f 	bnez	t0,80001330 <quick_sort+0x570>
80001174:	26100001 	addiu	s0,s0,1
80001178:	8ce30000 	lw	v1,0(a3)
8000117c:	00e05825 	move	t3,a3
80001180:	0143402a 	slt	t0,t2,v1
80001184:	02003025 	move	a2,s0
80001188:	24e70004 	addiu	a3,a3,4
8000118c:	15000068 	bnez	t0,80001330 <quick_sort+0x570>
80001190:	26100001 	addiu	s0,s0,1
80001194:	8ce30000 	lw	v1,0(a3)
80001198:	00e05825 	move	t3,a3
8000119c:	0143402a 	slt	t0,t2,v1
800011a0:	02003025 	move	a2,s0
800011a4:	24e70004 	addiu	a3,a3,4
800011a8:	15000061 	bnez	t0,80001330 <quick_sort+0x570>
800011ac:	26100001 	addiu	s0,s0,1
800011b0:	8ce30000 	lw	v1,0(a3)
800011b4:	00e05825 	move	t3,a3
800011b8:	0143402a 	slt	t0,t2,v1
800011bc:	02003025 	move	a2,s0
800011c0:	24e70004 	addiu	a3,a3,4
800011c4:	1500005a 	bnez	t0,80001330 <quick_sort+0x570>
800011c8:	26100001 	addiu	s0,s0,1
800011cc:	8ce30000 	lw	v1,0(a3)
800011d0:	00e05825 	move	t3,a3
800011d4:	0143402a 	slt	t0,t2,v1
800011d8:	02003025 	move	a2,s0
800011dc:	24e70004 	addiu	a3,a3,4
800011e0:	15000053 	bnez	t0,80001330 <quick_sort+0x570>
800011e4:	26100001 	addiu	s0,s0,1
800011e8:	8ce30000 	lw	v1,0(a3)
800011ec:	02003025 	move	a2,s0
800011f0:	0143402a 	slt	t0,t2,v1
800011f4:	00e05825 	move	t3,a3
800011f8:	1500004d 	bnez	t0,80001330 <quick_sort+0x570>
800011fc:	26100001 	addiu	s0,s0,1
80001200:	11300033 	beq	t1,s0,800012d0 <quick_sort+0x510>
80001204:	24e70004 	addiu	a3,a3,4
80001208:	8ce30000 	lw	v1,0(a3)
8000120c:	00e05825 	move	t3,a3
80001210:	0143402a 	slt	t0,t2,v1
80001214:	02003025 	move	a2,s0
80001218:	15000045 	bnez	t0,80001330 <quick_sort+0x570>
8000121c:	26190001 	addiu	t9,s0,1
80001220:	8ce30004 	lw	v1,4(a3)
80001224:	24eb0004 	addiu	t3,a3,4
80001228:	0143402a 	slt	t0,t2,v1
8000122c:	261f0002 	addiu	ra,s0,2
80001230:	1500003f 	bnez	t0,80001330 <quick_sort+0x570>
80001234:	03203025 	move	a2,t9
80001238:	8ce30008 	lw	v1,8(a3)
8000123c:	24eb0008 	addiu	t3,a3,8
80001240:	0143402a 	slt	t0,t2,v1
80001244:	26020003 	addiu	v0,s0,3
80001248:	15000039 	bnez	t0,80001330 <quick_sort+0x570>
8000124c:	03e03025 	move	a2,ra
80001250:	8ce3000c 	lw	v1,12(a3)
80001254:	24eb000c 	addiu	t3,a3,12
80001258:	0143402a 	slt	t0,t2,v1
8000125c:	260d0004 	addiu	t5,s0,4
80001260:	15000033 	bnez	t0,80001330 <quick_sort+0x570>
80001264:	00403025 	move	a2,v0
80001268:	8ce30010 	lw	v1,16(a3)
8000126c:	24eb0010 	addiu	t3,a3,16
80001270:	0143402a 	slt	t0,t2,v1
80001274:	260e0005 	addiu	t6,s0,5
80001278:	1500002d 	bnez	t0,80001330 <quick_sort+0x570>
8000127c:	01a03025 	move	a2,t5
80001280:	8ce30014 	lw	v1,20(a3)
80001284:	24eb0014 	addiu	t3,a3,20
80001288:	0143402a 	slt	t0,t2,v1
8000128c:	26040006 	addiu	a0,s0,6
80001290:	15000027 	bnez	t0,80001330 <quick_sort+0x570>
80001294:	01c03025 	move	a2,t6
80001298:	8ce30018 	lw	v1,24(a3)
8000129c:	24eb0018 	addiu	t3,a3,24
800012a0:	0143402a 	slt	t0,t2,v1
800012a4:	260f0007 	addiu	t7,s0,7
800012a8:	15000021 	bnez	t0,80001330 <quick_sort+0x570>
800012ac:	00803025 	move	a2,a0
800012b0:	8ce3001c 	lw	v1,28(a3)
800012b4:	24eb001c 	addiu	t3,a3,28
800012b8:	0143402a 	slt	t0,t2,v1
800012bc:	26100008 	addiu	s0,s0,8
800012c0:	1500001b 	bnez	t0,80001330 <quick_sort+0x570>
800012c4:	01e03025 	move	a2,t7
800012c8:	1530ffcf 	bne	t1,s0,80001208 <quick_sort+0x448>
800012cc:	24e70020 	addiu	a3,a3,32
800012d0:	00101880 	sll	v1,s0,0x2
800012d4:	02635821 	addu	t3,s3,v1
800012d8:	8d630000 	lw	v1,0(t3)
800012dc:	00000000 	nop
800012e0:	ad830000 	sw	v1,0(t4)
800012e4:	ad6a0000 	sw	t2,0(t3)
800012e8:	0c00024c 	jal	80000930 <_quick_sort>
800012ec:	02402025 	move	a0,s2
800012f0:	26050001 	addiu	a1,s0,1
800012f4:	00b4302a 	slt	a2,a1,s4
800012f8:	14c0ff07 	bnez	a2,80000f18 <quick_sort+0x158>
800012fc:	00000000 	nop
80001300:	8fbf0024 	lw	ra,36(sp)
80001304:	8fb40020 	lw	s4,32(sp)
80001308:	8fb20018 	lw	s2,24(sp)
8000130c:	8fb10014 	lw	s1,20(sp)
80001310:	8fb00010 	lw	s0,16(sp)
80001314:	02601025 	move	v0,s3
80001318:	8fb3001c 	lw	s3,28(sp)
8000131c:	03e00008 	jr	ra
80001320:	27bd0028 	addiu	sp,sp,40
	...
80001330:	00c9382a 	slt	a3,a2,t1
80001334:	14e0feff 	bnez	a3,80000f34 <quick_sort+0x174>
80001338:	ad830000 	sw	v1,0(t4)
8000133c:	00c08025 	move	s0,a2
80001340:	1000ffe8 	b	800012e4 <quick_sort+0x524>
80001344:	24c6ffff 	addiu	a2,a2,-1
	...
80001350:	00063880 	sll	a3,a2,0x2
80001354:	02675821 	addu	t3,s3,a3
80001358:	00c08025 	move	s0,a2
8000135c:	ad630000 	sw	v1,0(t3)
80001360:	1000ffdf 	b	800012e0 <quick_sort+0x520>
80001364:	24c6ffff 	addiu	a2,a2,-1
	...
80001370:	8c900000 	lw	s0,0(a0)
80001374:	26620004 	addiu	v0,s3,4
80001378:	ae700000 	sw	s0,0(s3)
8000137c:	1000feaf 	b	80000e3c <quick_sort+0x7c>
80001380:	24840004 	addiu	a0,a0,4
	...
80001390:	3c128000 	lui	s2,0x8000
80001394:	1000feda 	b	80000f00 <quick_sort+0x140>
80001398:	26533f40 	addiu	s3,s2,16192
8000139c:	1000ffd0 	b	800012e0 <quick_sort+0x520>
800013a0:	24c6ffff 	addiu	a2,a2,-1
	...

800013b0 <get_epc>:
get_epc():
800013b0:	40027000 	mfc0	v0,c0_epc
800013b4:	03e00008 	jr	ra
800013b8:	00000000 	nop

800013bc <get_cause>:
get_cause():
800013bc:	40026800 	mfc0	v0,c0_cause
800013c0:	03e00008 	jr	ra
800013c4:	00000000 	nop

800013c8 <exception>:
exception():
800013c8:	3c048000 	lui	a0,0x8000
800013cc:	27bdffe8 	addiu	sp,sp,-24
800013d0:	afbf0014 	sw	ra,20(sp)
800013d4:	0c000504 	jal	80001410 <printf>
800013d8:	248419cc 	addiu	a0,a0,6604
800013dc:	3c048000 	lui	a0,0x8000
800013e0:	248419e8 	addiu	a0,a0,6632
800013e4:	40057000 	mfc0	a1,c0_epc
800013e8:	0c000504 	jal	80001410 <printf>
800013ec:	00000000 	nop
800013f0:	8fbf0014 	lw	ra,20(sp)
800013f4:	3c048000 	lui	a0,0x8000
800013f8:	248419f8 	addiu	a0,a0,6648
800013fc:	27bd0018 	addiu	sp,sp,24
80001400:	40056800 	mfc0	a1,c0_cause
80001404:	08000504 	j	80001410 <printf>
80001408:	00000000 	nop
8000140c:	00000000 	nop

80001410 <printf>:
printf():
80001410:	27bdffd0 	addiu	sp,sp,-48
80001414:	afb30024 	sw	s3,36(sp)
80001418:	afbf002c 	sw	ra,44(sp)
8000141c:	afb40028 	sw	s4,40(sp)
80001420:	afb20020 	sw	s2,32(sp)
80001424:	afb1001c 	sw	s1,28(sp)
80001428:	afb00018 	sw	s0,24(sp)
8000142c:	80900000 	lb	s0,0(a0)
80001430:	27b30034 	addiu	s3,sp,52
80001434:	afa50034 	sw	a1,52(sp)
80001438:	afa60038 	sw	a2,56(sp)
8000143c:	afa7003c 	sw	a3,60(sp)
80001440:	12000024 	beqz	s0,800014d4 <printf+0xc4>
80001444:	afb30010 	sw	s3,16(sp)
80001448:	3c148000 	lui	s4,0x8000
8000144c:	00809025 	move	s2,a0
80001450:	00008825 	move	s1,zero
80001454:	10000009 	b	8000147c <printf+0x6c>
80001458:	26941a10 	addiu	s4,s4,6672
8000145c:	0c000594 	jal	80001650 <putchar>
80001460:	02002025 	move	a0,s0
80001464:	26310001 	addiu	s1,s1,1
80001468:	02511021 	addu	v0,s2,s1
8000146c:	80500000 	lb	s0,0(v0)
80001470:	00000000 	nop
80001474:	12000017 	beqz	s0,800014d4 <printf+0xc4>
80001478:	00000000 	nop
8000147c:	24020025 	li	v0,37
80001480:	12020007 	beq	s0,v0,800014a0 <printf+0x90>
80001484:	2402000a 	li	v0,10
80001488:	1602fff4 	bne	s0,v0,8000145c <printf+0x4c>
8000148c:	00000000 	nop
80001490:	0c000594 	jal	80001650 <putchar>
80001494:	2404000d 	li	a0,13
80001498:	1000fff0 	b	8000145c <printf+0x4c>
8000149c:	00000000 	nop
800014a0:	02511021 	addu	v0,s2,s1
800014a4:	80440001 	lb	a0,1(v0)
800014a8:	24050001 	li	a1,1
800014ac:	2482ffdb 	addiu	v0,a0,-37
800014b0:	304200ff 	andi	v0,v0,0xff
800014b4:	2c430054 	sltiu	v1,v0,84
800014b8:	10600028 	beqz	v1,8000155c <printf+0x14c>
800014bc:	00021080 	sll	v0,v0,0x2
800014c0:	02821021 	addu	v0,s4,v0
800014c4:	8c420000 	lw	v0,0(v0)
800014c8:	00000000 	nop
800014cc:	00400008 	jr	v0
800014d0:	00000000 	nop
800014d4:	8fbf002c 	lw	ra,44(sp)
800014d8:	8fb40028 	lw	s4,40(sp)
800014dc:	8fb30024 	lw	s3,36(sp)
800014e0:	8fb20020 	lw	s2,32(sp)
800014e4:	8fb1001c 	lw	s1,28(sp)
800014e8:	8fb00018 	lw	s0,24(sp)
800014ec:	00001025 	move	v0,zero
800014f0:	03e00008 	jr	ra
800014f4:	27bd0030 	addiu	sp,sp,48
800014f8:	02511021 	addu	v0,s2,s1
800014fc:	80440002 	lb	a0,2(v0)
80001500:	26310001 	addiu	s1,s1,1
80001504:	2482ffcf 	addiu	v0,a0,-49
80001508:	304200ff 	andi	v0,v0,0xff
8000150c:	2c420009 	sltiu	v0,v0,9
80001510:	1040ffe6 	beqz	v0,800014ac <printf+0x9c>
80001514:	00002825 	move	a1,zero
80001518:	26310001 	addiu	s1,s1,1
8000151c:	02511021 	addu	v0,s2,s1
80001520:	2486ffd0 	addiu	a2,a0,-48
80001524:	80440001 	lb	a0,1(v0)
80001528:	00051880 	sll	v1,a1,0x2
8000152c:	2482ffcf 	addiu	v0,a0,-49
80001530:	00652821 	addu	a1,v1,a1
80001534:	304200ff 	andi	v0,v0,0xff
80001538:	00052840 	sll	a1,a1,0x1
8000153c:	2c420009 	sltiu	v0,v0,9
80001540:	1440fff5 	bnez	v0,80001518 <printf+0x108>
80001544:	00c52821 	addu	a1,a2,a1
80001548:	2482ffdb 	addiu	v0,a0,-37
8000154c:	304200ff 	andi	v0,v0,0xff
80001550:	2c430054 	sltiu	v1,v0,84
80001554:	1460ffda 	bnez	v1,800014c0 <printf+0xb0>
80001558:	00021080 	sll	v0,v0,0x2
8000155c:	0c000594 	jal	80001650 <putchar>
80001560:	24040025 	li	a0,37
80001564:	1000ffc0 	b	80001468 <printf+0x58>
80001568:	26310001 	addiu	s1,s1,1
8000156c:	8e640000 	lw	a0,0(s3)
80001570:	00003825 	move	a3,zero
80001574:	0c000620 	jal	80001880 <printbase>
80001578:	24060010 	li	a2,16
8000157c:	26730004 	addiu	s3,s3,4
80001580:	1000ffb8 	b	80001464 <printf+0x54>
80001584:	26310001 	addiu	s1,s1,1
80001588:	8e640000 	lw	a0,0(s3)
8000158c:	0c0005ac 	jal	800016b0 <putstring>
80001590:	26310001 	addiu	s1,s1,1
80001594:	1000ffb3 	b	80001464 <printf+0x54>
80001598:	26730004 	addiu	s3,s3,4
8000159c:	8e640000 	lw	a0,0(s3)
800015a0:	0c000594 	jal	80001650 <putchar>
800015a4:	26310001 	addiu	s1,s1,1
800015a8:	1000ffae 	b	80001464 <printf+0x54>
800015ac:	26730004 	addiu	s3,s3,4
800015b0:	8e640000 	lw	a0,0(s3)
800015b4:	24070001 	li	a3,1
800015b8:	0c000620 	jal	80001880 <printbase>
800015bc:	2406000a 	li	a2,10
800015c0:	26730004 	addiu	s3,s3,4
800015c4:	1000ffa7 	b	80001464 <printf+0x54>
800015c8:	26310001 	addiu	s1,s1,1
800015cc:	8e640000 	lw	a0,0(s3)
800015d0:	00003825 	move	a3,zero
800015d4:	0c000620 	jal	80001880 <printbase>
800015d8:	24060002 	li	a2,2
800015dc:	26730004 	addiu	s3,s3,4
800015e0:	1000ffa0 	b	80001464 <printf+0x54>
800015e4:	26310001 	addiu	s1,s1,1
800015e8:	8e640000 	lw	a0,0(s3)
800015ec:	00003825 	move	a3,zero
800015f0:	0c000620 	jal	80001880 <printbase>
800015f4:	2406000a 	li	a2,10
800015f8:	26730004 	addiu	s3,s3,4
800015fc:	1000ff99 	b	80001464 <printf+0x54>
80001600:	26310001 	addiu	s1,s1,1
80001604:	8e640000 	lw	a0,0(s3)
80001608:	00003825 	move	a3,zero
8000160c:	0c000620 	jal	80001880 <printbase>
80001610:	2406000a 	li	a2,10
80001614:	26730004 	addiu	s3,s3,4
80001618:	1000ff92 	b	80001464 <printf+0x54>
8000161c:	26310002 	addiu	s1,s1,2
80001620:	8e640000 	lw	a0,0(s3)
80001624:	00003825 	move	a3,zero
80001628:	0c000620 	jal	80001880 <printbase>
8000162c:	24060008 	li	a2,8
80001630:	26730004 	addiu	s3,s3,4
80001634:	1000ff8b 	b	80001464 <printf+0x54>
80001638:	26310001 	addiu	s1,s1,1
8000163c:	0c000594 	jal	80001650 <putchar>
80001640:	24040025 	li	a0,37
80001644:	1000ff87 	b	80001464 <printf+0x54>
80001648:	26310001 	addiu	s1,s1,1
8000164c:	00000000 	nop

80001650 <putchar>:
putchar():
80001650:	3c03a300 	lui	v1,0xa300
80001654:	8c620000 	lw	v0,0(v1)
80001658:	00000000 	nop
8000165c:	30420001 	andi	v0,v0,0x1
80001660:	1040fffc 	beqz	v0,80001654 <putchar+0x4>
80001664:	00000000 	nop
80001668:	10800002 	beqz	a0,80001674 <putchar+0x24>
8000166c:	00000000 	nop
80001670:	ac640004 	sw	a0,4(v1)
80001674:	03e00008 	jr	ra
80001678:	00001025 	move	v0,zero

8000167c <tgt_putchar>:
tgt_putchar():
8000167c:	3c03a300 	lui	v1,0xa300
80001680:	8c620000 	lw	v0,0(v1)
80001684:	00000000 	nop
80001688:	30420001 	andi	v0,v0,0x1
8000168c:	1040fffc 	beqz	v0,80001680 <tgt_putchar+0x4>
80001690:	00000000 	nop
80001694:	10800002 	beqz	a0,800016a0 <tgt_putchar+0x24>
80001698:	00000000 	nop
8000169c:	ac640004 	sw	a0,4(v1)
800016a0:	03e00008 	jr	ra
800016a4:	00000000 	nop
	...

800016b0 <putstring>:
putstring():
800016b0:	27bdffe0 	addiu	sp,sp,-32
800016b4:	afbf001c 	sw	ra,28(sp)
800016b8:	afb20018 	sw	s2,24(sp)
800016bc:	afb10014 	sw	s1,20(sp)
800016c0:	afb00010 	sw	s0,16(sp)
800016c4:	80900000 	lb	s0,0(a0)
800016c8:	00000000 	nop
800016cc:	12000013 	beqz	s0,8000171c <putstring+0x6c>
800016d0:	00808825 	move	s1,a0
800016d4:	10000007 	b	800016f4 <putstring+0x44>
800016d8:	2412000a 	li	s2,10
800016dc:	0c000594 	jal	80001650 <putchar>
800016e0:	02002025 	move	a0,s0
800016e4:	82300000 	lb	s0,0(s1)
800016e8:	00000000 	nop
800016ec:	1200000b 	beqz	s0,8000171c <putstring+0x6c>
800016f0:	00000000 	nop
800016f4:	1612fff9 	bne	s0,s2,800016dc <putstring+0x2c>
800016f8:	26310001 	addiu	s1,s1,1
800016fc:	0c000594 	jal	80001650 <putchar>
80001700:	2404000d 	li	a0,13
80001704:	0c000594 	jal	80001650 <putchar>
80001708:	02002025 	move	a0,s0
8000170c:	82300000 	lb	s0,0(s1)
80001710:	00000000 	nop
80001714:	1600fff7 	bnez	s0,800016f4 <putstring+0x44>
80001718:	00000000 	nop
8000171c:	8fbf001c 	lw	ra,28(sp)
80001720:	8fb20018 	lw	s2,24(sp)
80001724:	8fb10014 	lw	s1,20(sp)
80001728:	8fb00010 	lw	s0,16(sp)
8000172c:	00001025 	move	v0,zero
80001730:	03e00008 	jr	ra
80001734:	27bd0020 	addiu	sp,sp,32

80001738 <puts>:
puts():
80001738:	27bdffe8 	addiu	sp,sp,-24
8000173c:	afbf0014 	sw	ra,20(sp)
80001740:	0c0005ac 	jal	800016b0 <putstring>
80001744:	00000000 	nop
80001748:	0c000594 	jal	80001650 <putchar>
8000174c:	2404000d 	li	a0,13
80001750:	0c000594 	jal	80001650 <putchar>
80001754:	2404000a 	li	a0,10
80001758:	8fbf0014 	lw	ra,20(sp)
8000175c:	00001025 	move	v0,zero
80001760:	03e00008 	jr	ra
80001764:	27bd0018 	addiu	sp,sp,24
	...

80001770 <_get_count>:
_get_count():
80001770:	3c02a400 	lui	v0,0xa400
80001774:	8c420004 	lw	v0,4(v0)
80001778:	03e00008 	jr	ra
8000177c:	00000000 	nop

80001780 <get_count>:
get_count():
80001780:	3c02a400 	lui	v0,0xa400
80001784:	8c420004 	lw	v0,4(v0)
80001788:	03e00008 	jr	ra
8000178c:	00000000 	nop

80001790 <clock_gettime>:
clock_gettime():
80001790:	3c02a400 	lui	v0,0xa400
80001794:	8c440004 	lw	a0,4(v0)
80001798:	240203e8 	li	v0,1000
8000179c:	14400002 	bnez	v0,800017a8 <clock_gettime+0x18>
800017a0:	0082001b 	divu	zero,a0,v0
800017a4:	0007000d 	break	0x7
800017a8:	00043840 	sll	a3,a0,0x1
800017ac:	27bdffe8 	addiu	sp,sp,-24
800017b0:	00a04025 	move	t0,a1
800017b4:	afbf0014 	sw	ra,20(sp)
800017b8:	aca00000 	sw	zero,0(a1)
800017bc:	3c048000 	lui	a0,0x8000
800017c0:	00003025 	move	a2,zero
800017c4:	24841b60 	addiu	a0,a0,7008
800017c8:	00001812 	mflo	v1
800017cc:	00031840 	sll	v1,v1,0x1
800017d0:	00000000 	nop
800017d4:	14400002 	bnez	v0,800017e0 <clock_gettime+0x50>
800017d8:	0062001b 	divu	zero,v1,v0
800017dc:	0007000d 	break	0x7
800017e0:	00004810 	mfhi	t1
800017e4:	ad090008 	sw	t1,8(t0)
800017e8:	00001812 	mflo	v1
	...
800017f4:	14400002 	bnez	v0,80001800 <clock_gettime+0x70>
800017f8:	00e2001b 	divu	zero,a3,v0
800017fc:	0007000d 	break	0x7
80001800:	00002810 	mfhi	a1
80001804:	ad050004 	sw	a1,4(t0)
80001808:	00000000 	nop
8000180c:	14400002 	bnez	v0,80001818 <clock_gettime+0x88>
80001810:	0062001b 	divu	zero,v1,v0
80001814:	0007000d 	break	0x7
80001818:	00001010 	mfhi	v0
8000181c:	0c000504 	jal	80001410 <printf>
80001820:	ad02000c 	sw	v0,12(t0)
80001824:	8fbf0014 	lw	ra,20(sp)
80001828:	00001025 	move	v0,zero
8000182c:	03e00008 	jr	ra
80001830:	27bd0018 	addiu	sp,sp,24

80001834 <get_clock>:
get_clock():
80001834:	3c02a400 	lui	v0,0xa400
80001838:	8c420004 	lw	v0,4(v0)
8000183c:	03e00008 	jr	ra
80001840:	00021040 	sll	v0,v0,0x1

80001844 <get_us>:
get_us():
80001844:	3c02a400 	lui	v0,0xa400
80001848:	8c420000 	lw	v0,0(v0)
8000184c:	03e00008 	jr	ra
80001850:	00000000 	nop

80001854 <get_ns>:
get_ns():
80001854:	3c02a400 	lui	v0,0xa400
80001858:	8c430000 	lw	v1,0(v0)
8000185c:	00000000 	nop
80001860:	00031140 	sll	v0,v1,0x5
80001864:	00431023 	subu	v0,v0,v1
80001868:	00021080 	sll	v0,v0,0x2
8000186c:	00431021 	addu	v0,v0,v1
80001870:	03e00008 	jr	ra
80001874:	000210c0 	sll	v0,v0,0x3
	...

80001880 <printbase>:
printbase():
80001880:	27bdffa0 	addiu	sp,sp,-96
80001884:	afb00054 	sw	s0,84(sp)
80001888:	afbf005c 	sw	ra,92(sp)
8000188c:	afb10058 	sw	s1,88(sp)
80001890:	10e00003 	beqz	a3,800018a0 <printbase+0x20>
80001894:	00808025 	move	s0,a0
80001898:	04800032 	bltz	a0,80001964 <printbase+0xe4>
8000189c:	2404002d 	li	a0,45
800018a0:	12000038 	beqz	s0,80001984 <printbase+0x104>
800018a4:	27a20010 	addiu	v0,sp,16
800018a8:	24070001 	li	a3,1
800018ac:	00e23823 	subu	a3,a3,v0
800018b0:	14c00002 	bnez	a2,800018bc <printbase+0x3c>
800018b4:	0206001b 	divu	zero,s0,a2
800018b8:	0007000d 	break	0x7
800018bc:	00e28821 	addu	s1,a3,v0
800018c0:	0206202b 	sltu	a0,s0,a2
800018c4:	24420001 	addiu	v0,v0,1
800018c8:	00001810 	mfhi	v1
800018cc:	00008012 	mflo	s0
800018d0:	1080fff7 	beqz	a0,800018b0 <printbase+0x30>
800018d4:	a043ffff 	sb	v1,-1(v0)
800018d8:	00b1102a 	slt	v0,a1,s1
800018dc:	1440001f 	bnez	v0,8000195c <printbase+0xdc>
800018e0:	00000000 	nop
800018e4:	1000000b 	b	80001914 <printbase+0x94>
800018e8:	00a08025 	move	s0,a1
800018ec:	8064ffff 	lb	a0,-1(v1)
800018f0:	00000000 	nop
800018f4:	2882000a 	slti	v0,a0,10
800018f8:	10400016 	beqz	v0,80001954 <printbase+0xd4>
800018fc:	00000000 	nop
80001900:	24840030 	addiu	a0,a0,48
80001904:	0c000594 	jal	80001650 <putchar>
80001908:	2610ffff 	addiu	s0,s0,-1
8000190c:	1200000b 	beqz	s0,8000193c <printbase+0xbc>
80001910:	00000000 	nop
80001914:	27a20010 	addiu	v0,sp,16
80001918:	00501821 	addu	v1,v0,s0
8000191c:	0230102a 	slt	v0,s1,s0
80001920:	1040fff2 	beqz	v0,800018ec <printbase+0x6c>
80001924:	00000000 	nop
80001928:	2610ffff 	addiu	s0,s0,-1
8000192c:	0c000594 	jal	80001650 <putchar>
80001930:	24040030 	li	a0,48
80001934:	1600fff8 	bnez	s0,80001918 <printbase+0x98>
80001938:	27a20010 	addiu	v0,sp,16
8000193c:	8fbf005c 	lw	ra,92(sp)
80001940:	8fb10058 	lw	s1,88(sp)
80001944:	8fb00054 	lw	s0,84(sp)
80001948:	00001025 	move	v0,zero
8000194c:	03e00008 	jr	ra
80001950:	27bd0060 	addiu	sp,sp,96
80001954:	1000ffeb 	b	80001904 <printbase+0x84>
80001958:	24840057 	addiu	a0,a0,87
8000195c:	1000ffe1 	b	800018e4 <printbase+0x64>
80001960:	02202825 	move	a1,s1
80001964:	afa60068 	sw	a2,104(sp)
80001968:	afa50064 	sw	a1,100(sp)
8000196c:	0c000594 	jal	80001650 <putchar>
80001970:	00108023 	negu	s0,s0
80001974:	8fa50064 	lw	a1,100(sp)
80001978:	8fa60068 	lw	a2,104(sp)
8000197c:	1000ffca 	b	800018a8 <printbase+0x28>
80001980:	27a20010 	addiu	v0,sp,16
80001984:	18a0ffed 	blez	a1,8000193c <printbase+0xbc>
80001988:	00008825 	move	s1,zero
8000198c:	1000ffe1 	b	80001914 <printbase+0x94>
80001990:	00a08025 	move	s0,a1
	...
800019a0:	63697571 	0x63697571
800019a4:	6f73206b 	0x6f73206b
800019a8:	45207472 	0x45207472
800019ac:	524f5252 	0x524f5252
800019b0:	00000021 	move	zero,zero
800019b4:	656d6954 	0x656d6954
800019b8:	7525203a 	jalx	849480e8 <_stack+0x4846108>
800019bc:	63796320 	0x63796320
800019c0:	2c73656c 	sltiu	s3,v1,25964
800019c4:	20752520 	addi	s5,v1,9504
800019c8:	00007375 	0x7375
800019cc:	72656854 	0x72656854
800019d0:	73692065 	0x73692065
800019d4:	206e6120 	addi	t6,v1,24864
800019d8:	65637865 	0x65637865
800019dc:	6f697470 	0x6f697470
800019e0:	0a21216e 	j	888485b8 <_stack+0x87465d8>
800019e4:	00000000 	nop
800019e8:	20656854 	addi	a1,v1,26708
800019ec:	20637065 	addi	v1,v1,28773
800019f0:	25207369 	addiu	zero,t1,29545
800019f4:	00000a78 	0xa78
800019f8:	20656854 	addi	a1,v1,26708
800019fc:	73756163 	0x73756163
80001a00:	73692065 	0x73692065
80001a04:	0a782520 	j	89e09480 <_stack+0x9d074a0>
80001a08:	00000000 	nop
80001a0c:	00000000 	nop
80001a10:	8000163c 	lb	zero,5692(zero)
80001a14:	8000155c 	lb	zero,5468(zero)
80001a18:	8000155c 	lb	zero,5468(zero)
80001a1c:	8000155c 	lb	zero,5468(zero)
80001a20:	8000155c 	lb	zero,5468(zero)
80001a24:	8000155c 	lb	zero,5468(zero)
80001a28:	8000155c 	lb	zero,5468(zero)
80001a2c:	8000155c 	lb	zero,5468(zero)
80001a30:	8000155c 	lb	zero,5468(zero)
80001a34:	8000155c 	lb	zero,5468(zero)
80001a38:	8000155c 	lb	zero,5468(zero)
80001a3c:	800014f8 	lb	zero,5368(zero)
80001a40:	80001504 	lb	zero,5380(zero)
80001a44:	80001504 	lb	zero,5380(zero)
80001a48:	80001504 	lb	zero,5380(zero)
80001a4c:	80001504 	lb	zero,5380(zero)
80001a50:	80001504 	lb	zero,5380(zero)
80001a54:	80001504 	lb	zero,5380(zero)
80001a58:	80001504 	lb	zero,5380(zero)
80001a5c:	80001504 	lb	zero,5380(zero)
80001a60:	80001504 	lb	zero,5380(zero)
80001a64:	8000155c 	lb	zero,5468(zero)
80001a68:	8000155c 	lb	zero,5468(zero)
80001a6c:	8000155c 	lb	zero,5468(zero)
80001a70:	8000155c 	lb	zero,5468(zero)
80001a74:	8000155c 	lb	zero,5468(zero)
80001a78:	8000155c 	lb	zero,5468(zero)
80001a7c:	8000155c 	lb	zero,5468(zero)
80001a80:	8000155c 	lb	zero,5468(zero)
80001a84:	8000155c 	lb	zero,5468(zero)
80001a88:	8000155c 	lb	zero,5468(zero)
80001a8c:	8000155c 	lb	zero,5468(zero)
80001a90:	8000155c 	lb	zero,5468(zero)
80001a94:	8000155c 	lb	zero,5468(zero)
80001a98:	8000155c 	lb	zero,5468(zero)
80001a9c:	8000155c 	lb	zero,5468(zero)
80001aa0:	8000155c 	lb	zero,5468(zero)
80001aa4:	8000155c 	lb	zero,5468(zero)
80001aa8:	8000155c 	lb	zero,5468(zero)
80001aac:	8000155c 	lb	zero,5468(zero)
80001ab0:	8000155c 	lb	zero,5468(zero)
80001ab4:	8000155c 	lb	zero,5468(zero)
80001ab8:	8000155c 	lb	zero,5468(zero)
80001abc:	8000155c 	lb	zero,5468(zero)
80001ac0:	8000155c 	lb	zero,5468(zero)
80001ac4:	8000155c 	lb	zero,5468(zero)
80001ac8:	8000155c 	lb	zero,5468(zero)
80001acc:	8000155c 	lb	zero,5468(zero)
80001ad0:	8000155c 	lb	zero,5468(zero)
80001ad4:	8000155c 	lb	zero,5468(zero)
80001ad8:	8000155c 	lb	zero,5468(zero)
80001adc:	8000155c 	lb	zero,5468(zero)
80001ae0:	8000155c 	lb	zero,5468(zero)
80001ae4:	8000155c 	lb	zero,5468(zero)
80001ae8:	8000155c 	lb	zero,5468(zero)
80001aec:	8000155c 	lb	zero,5468(zero)
80001af0:	8000155c 	lb	zero,5468(zero)
80001af4:	8000155c 	lb	zero,5468(zero)
80001af8:	8000155c 	lb	zero,5468(zero)
80001afc:	8000155c 	lb	zero,5468(zero)
80001b00:	8000155c 	lb	zero,5468(zero)
80001b04:	800015cc 	lb	zero,5580(zero)
80001b08:	8000159c 	lb	zero,5532(zero)
80001b0c:	800015b0 	lb	zero,5552(zero)
80001b10:	8000155c 	lb	zero,5468(zero)
80001b14:	8000155c 	lb	zero,5468(zero)
80001b18:	8000155c 	lb	zero,5468(zero)
80001b1c:	8000155c 	lb	zero,5468(zero)
80001b20:	8000155c 	lb	zero,5468(zero)
80001b24:	8000155c 	lb	zero,5468(zero)
80001b28:	8000155c 	lb	zero,5468(zero)
80001b2c:	80001604 	lb	zero,5636(zero)
80001b30:	8000155c 	lb	zero,5468(zero)
80001b34:	8000155c 	lb	zero,5468(zero)
80001b38:	80001620 	lb	zero,5664(zero)
80001b3c:	8000156c 	lb	zero,5484(zero)
80001b40:	8000155c 	lb	zero,5468(zero)
80001b44:	8000155c 	lb	zero,5468(zero)
80001b48:	80001588 	lb	zero,5512(zero)
80001b4c:	8000155c 	lb	zero,5468(zero)
80001b50:	800015e8 	lb	zero,5608(zero)
80001b54:	8000155c 	lb	zero,5468(zero)
80001b58:	8000155c 	lb	zero,5468(zero)
80001b5c:	8000156c 	lb	zero,5484(zero)
80001b60:	636f6c63 	0x636f6c63
80001b64:	736e206b 	0x736e206b
80001b68:	2c64253d 	sltiu	a0,v1,9533
80001b6c:	3d636573 	0x3d636573
80001b70:	000a6425 	0xa6425
80001b74:	b0000602 	0xb0000602
	...
80001b90:	00010000 	sll	zero,at,0x0
80001b94:	03000001 	0x3000001
	...
