
obj/stringsearch/main.elf:     file format elf32-tradlittlemips
obj/stringsearch/main.elf


Disassembly of section .text:

80000000 <_ftext>:
_ftext():
80000000:	3c0a0040 	lui	t2,0x40
80000004:	408a6000 	mtc0	t2,c0_sr
80000008:	40806800 	mtc0	zero,c0_cause
8000000c:	3c1d8010 	lui	sp,0x8010
80000010:	27bd2fe0 	addiu	sp,sp,12256
80000014:	3c1c8001 	lui	gp,0x8001
80000018:	279caff0 	addiu	gp,gp,-20496
8000001c:	041100dc 	bal	80000390 <shell>
80000020:	00000000 	nop

80000024 <loop>:
loop():
80000024:	08000009 	j	80000024 <loop>

80000028 <exit>:
exit():
80000028:	340900ff 	li	t1,0xff
8000002c:	3c018000 	lui	at,0x8000
80000030:	a0297ffc 	sb	t1,32764(at)
	...
80000380:	0c000302 	jal	80000c08 <exception>
80000384:	00000000 	nop
80000388:	0800000a 	j	80000028 <exit>
8000038c:	00000000 	nop

80000390 <shell>:
shell():
80000390:	27bdffd8 	addiu	sp,sp,-40
80000394:	afbf0024 	sw	ra,36(sp)
80000398:	afb20020 	sw	s2,32(sp)
8000039c:	afb1001c 	sw	s1,28(sp)
800003a0:	0c0004b0 	jal	800012c0 <get_count>
800003a4:	afb00018 	sw	s0,24(sp)
800003a8:	0c0004e1 	jal	80001384 <get_us>
800003ac:	00409025 	move	s2,v0
800003b0:	0c0001cc 	jal	80000730 <search_small>
800003b4:	00408825 	move	s1,v0
800003b8:	0c0004b0 	jal	800012c0 <get_count>
800003bc:	afa20014 	sw	v0,20(sp)
800003c0:	0c0004e1 	jal	80001384 <get_us>
800003c4:	00408025 	move	s0,v0
800003c8:	8fa50014 	lw	a1,20(sp)
800003cc:	3c048000 	lui	a0,0x8000
800003d0:	00513023 	subu	a2,v0,s1
800003d4:	02129023 	subu	s2,s0,s2
800003d8:	248414e0 	addiu	a0,a0,5344
800003dc:	0c000314 	jal	80000c50 <printf>
800003e0:	afa60010 	sw	a2,16(sp)
800003e4:	8fa60010 	lw	a2,16(sp)
800003e8:	8fbf0024 	lw	ra,36(sp)
800003ec:	8fb1001c 	lw	s1,28(sp)
800003f0:	8fb00018 	lw	s0,24(sp)
800003f4:	02402825 	move	a1,s2
800003f8:	3c028000 	lui	v0,0x8000
800003fc:	8fb20020 	lw	s2,32(sp)
80000400:	244414f4 	addiu	a0,v0,5364
80000404:	08000314 	j	80000c50 <printf>
80000408:	27bd0028 	addiu	sp,sp,40
8000040c:	00000000 	nop

80000410 <init_search>:
init_search():
80000410:	27bdffe8 	addiu	sp,sp,-24
80000414:	afb00010 	sw	s0,16(sp)
80000418:	afbf0014 	sw	ra,20(sp)
8000041c:	0c0003ec 	jal	80000fb0 <strlen>
80000420:	00808025 	move	s0,a0
80000424:	3c058000 	lui	a1,0x8000
80000428:	24a83010 	addiu	t0,a1,12304
8000042c:	af828014 	sw	v0,-32748(gp)
80000430:	01001825 	move	v1,t0
80000434:	25060400 	addiu	a2,t0,1024
80000438:	ac620000 	sw	v0,0(v1)
8000043c:	ac620004 	sw	v0,4(v1)
80000440:	ac620008 	sw	v0,8(v1)
80000444:	ac62000c 	sw	v0,12(v1)
80000448:	ac620010 	sw	v0,16(v1)
8000044c:	ac620014 	sw	v0,20(v1)
80000450:	ac620018 	sw	v0,24(v1)
80000454:	ac62001c 	sw	v0,28(v1)
80000458:	24630020 	addiu	v1,v1,32
8000045c:	1466fff6 	bne	v1,a2,80000438 <init_search+0x28>
80000460:	00000000 	nop
80000464:	10400069 	beqz	v0,8000060c <init_search+0x1fc>
80000468:	2607ffff 	addiu	a3,s0,-1
8000046c:	30440007 	andi	a0,v0,0x7
80000470:	00504821 	addu	t1,v0,s0
80000474:	02001825 	move	v1,s0
80000478:	10800033 	beqz	a0,80000548 <init_search+0x138>
8000047c:	00e21021 	addu	v0,a3,v0
80000480:	240a0001 	li	t2,1
80000484:	108a0029 	beq	a0,t2,8000052c <init_search+0x11c>
80000488:	240b0002 	li	t3,2
8000048c:	108b0021 	beq	a0,t3,80000514 <init_search+0x104>
80000490:	240c0003 	li	t4,3
80000494:	108c0019 	beq	a0,t4,800004fc <init_search+0xec>
80000498:	240d0004 	li	t5,4
8000049c:	108d0011 	beq	a0,t5,800004e4 <init_search+0xd4>
800004a0:	240e0005 	li	t6,5
800004a4:	108e0009 	beq	a0,t6,800004cc <init_search+0xbc>
800004a8:	240f0006 	li	t7,6
800004ac:	148f005c 	bne	a0,t7,80000620 <init_search+0x210>
800004b0:	0050c823 	subu	t9,v0,s0
800004b4:	90660000 	lbu	a2,0(v1)
800004b8:	00433823 	subu	a3,v0,v1
800004bc:	00062080 	sll	a0,a2,0x2
800004c0:	01045021 	addu	t2,t0,a0
800004c4:	ad470000 	sw	a3,0(t2)
800004c8:	24630001 	addiu	v1,v1,1
800004cc:	906b0000 	lbu	t3,0(v1)
800004d0:	00436023 	subu	t4,v0,v1
800004d4:	000b6880 	sll	t5,t3,0x2
800004d8:	010d7021 	addu	t6,t0,t5
800004dc:	adcc0000 	sw	t4,0(t6)
800004e0:	24630001 	addiu	v1,v1,1
800004e4:	906f0000 	lbu	t7,0(v1)
800004e8:	0043c023 	subu	t8,v0,v1
800004ec:	000fc880 	sll	t9,t7,0x2
800004f0:	0119f821 	addu	ra,t0,t9
800004f4:	aff80000 	sw	t8,0(ra)
800004f8:	24630001 	addiu	v1,v1,1
800004fc:	90650000 	lbu	a1,0(v1)
80000500:	00433023 	subu	a2,v0,v1
80000504:	00053880 	sll	a3,a1,0x2
80000508:	01072021 	addu	a0,t0,a3
8000050c:	ac860000 	sw	a2,0(a0)
80000510:	24630001 	addiu	v1,v1,1
80000514:	906a0000 	lbu	t2,0(v1)
80000518:	00435823 	subu	t3,v0,v1
8000051c:	000a6080 	sll	t4,t2,0x2
80000520:	010c6821 	addu	t5,t0,t4
80000524:	adab0000 	sw	t3,0(t5)
80000528:	24630001 	addiu	v1,v1,1
8000052c:	906e0000 	lbu	t6,0(v1)
80000530:	00437823 	subu	t7,v0,v1
80000534:	000ec080 	sll	t8,t6,0x2
80000538:	0118c821 	addu	t9,t0,t8
8000053c:	24630001 	addiu	v1,v1,1
80000540:	11230032 	beq	t1,v1,8000060c <init_search+0x1fc>
80000544:	af2f0000 	sw	t7,0(t9)
80000548:	907f0000 	lbu	ra,0(v1)
8000054c:	00432823 	subu	a1,v0,v1
80000550:	001f3080 	sll	a2,ra,0x2
80000554:	01063821 	addu	a3,t0,a2
80000558:	ace50000 	sw	a1,0(a3)
8000055c:	90640001 	lbu	a0,1(v1)
80000560:	246a0001 	addiu	t2,v1,1
80000564:	00045880 	sll	t3,a0,0x2
80000568:	010b6021 	addu	t4,t0,t3
8000056c:	004a6823 	subu	t5,v0,t2
80000570:	ad8d0000 	sw	t5,0(t4)
80000574:	906e0002 	lbu	t6,2(v1)
80000578:	246f0002 	addiu	t7,v1,2
8000057c:	000ec080 	sll	t8,t6,0x2
80000580:	0118c821 	addu	t9,t0,t8
80000584:	004ff823 	subu	ra,v0,t7
80000588:	af3f0000 	sw	ra,0(t9)
8000058c:	90650003 	lbu	a1,3(v1)
80000590:	24660003 	addiu	a2,v1,3
80000594:	00053880 	sll	a3,a1,0x2
80000598:	01072021 	addu	a0,t0,a3
8000059c:	00465023 	subu	t2,v0,a2
800005a0:	ac8a0000 	sw	t2,0(a0)
800005a4:	906b0004 	lbu	t3,4(v1)
800005a8:	246c0004 	addiu	t4,v1,4
800005ac:	000b6880 	sll	t5,t3,0x2
800005b0:	010d7021 	addu	t6,t0,t5
800005b4:	004c7823 	subu	t7,v0,t4
800005b8:	adcf0000 	sw	t7,0(t6)
800005bc:	90780005 	lbu	t8,5(v1)
800005c0:	24790005 	addiu	t9,v1,5
800005c4:	0018f880 	sll	ra,t8,0x2
800005c8:	00593023 	subu	a2,v0,t9
800005cc:	011f2821 	addu	a1,t0,ra
800005d0:	aca60000 	sw	a2,0(a1)
800005d4:	90640006 	lbu	a0,6(v1)
800005d8:	24670006 	addiu	a3,v1,6
800005dc:	00045080 	sll	t2,a0,0x2
800005e0:	010a5821 	addu	t3,t0,t2
800005e4:	00476023 	subu	t4,v0,a3
800005e8:	ad6c0000 	sw	t4,0(t3)
800005ec:	906d0007 	lbu	t5,7(v1)
800005f0:	246e0007 	addiu	t6,v1,7
800005f4:	000d7880 	sll	t7,t5,0x2
800005f8:	010fc021 	addu	t8,t0,t7
800005fc:	004ec823 	subu	t9,v0,t6
80000600:	24630008 	addiu	v1,v1,8
80000604:	1523ffd0 	bne	t1,v1,80000548 <init_search+0x138>
80000608:	af190000 	sw	t9,0(t8)
8000060c:	8fbf0014 	lw	ra,20(sp)
80000610:	af908010 	sw	s0,-32752(gp)
80000614:	8fb00010 	lw	s0,16(sp)
80000618:	03e00008 	jr	ra
8000061c:	27bd0018 	addiu	sp,sp,24
80000620:	92180000 	lbu	t8,0(s0)
80000624:	00000000 	nop
80000628:	0018f880 	sll	ra,t8,0x2
8000062c:	011f2821 	addu	a1,t0,ra
80000630:	acb90000 	sw	t9,0(a1)
80000634:	1000ff9f 	b	800004b4 <init_search+0xa4>
80000638:	26030001 	addiu	v1,s0,1
8000063c:	00000000 	nop

80000640 <strsearch>:
strsearch():
80000640:	27bdffd0 	addiu	sp,sp,-48
80000644:	afb00014 	sw	s0,20(sp)
80000648:	8f908014 	lw	s0,-32748(gp)
8000064c:	afb50028 	sw	s5,40(sp)
80000650:	afb30020 	sw	s3,32(sp)
80000654:	afb2001c 	sw	s2,28(sp)
80000658:	afb10018 	sw	s1,24(sp)
8000065c:	afbf002c 	sw	ra,44(sp)
80000660:	afb40024 	sw	s4,36(sp)
80000664:	00809025 	move	s2,a0
80000668:	0c0003ec 	jal	80000fb0 <strlen>
8000066c:	3c138000 	lui	s3,0x8000
80000670:	2610ffff 	addiu	s0,s0,-1
80000674:	00408825 	move	s1,v0
80000678:	26733010 	addiu	s3,s3,12304
8000067c:	24150001 	li	s5,1
80000680:	0211102b 	sltu	v0,s0,s1
80000684:	1440000a 	bnez	v0,800006b0 <strsearch+0x70>
80000688:	02501821 	addu	v1,s2,s0
8000068c:	1000001e 	b	80000708 <strsearch+0xc8>
80000690:	0000a025 	move	s4,zero
	...
800006a0:	0211502b 	sltu	t2,s0,s1
800006a4:	1140fff7 	beqz	t2,80000684 <strsearch+0x44>
800006a8:	0211102b 	sltu	v0,s0,s1
800006ac:	02501821 	addu	v1,s2,s0
800006b0:	90640000 	lbu	a0,0(v1)
800006b4:	00000000 	nop
800006b8:	00042880 	sll	a1,a0,0x2
800006bc:	02653021 	addu	a2,s3,a1
800006c0:	8cc70000 	lw	a3,0(a2)
800006c4:	00000000 	nop
800006c8:	14e0fff5 	bnez	a3,800006a0 <strsearch+0x60>
800006cc:	02078021 	addu	s0,s0,a3
800006d0:	02078023 	subu	s0,s0,a3
800006d4:	8f868014 	lw	a2,-32748(gp)
800006d8:	8f848010 	lw	a0,-32752(gp)
800006dc:	02a64023 	subu	t0,s5,a2
800006e0:	01104821 	addu	t1,t0,s0
800006e4:	0249a021 	addu	s4,s2,t1
800006e8:	0c000435 	jal	800010d4 <strncmp>
800006ec:	02802825 	move	a1,s4
800006f0:	10400005 	beqz	v0,80000708 <strsearch+0xc8>
800006f4:	26100001 	addiu	s0,s0,1
800006f8:	0211102b 	sltu	v0,s0,s1
800006fc:	1440ffec 	bnez	v0,800006b0 <strsearch+0x70>
80000700:	02501821 	addu	v1,s2,s0
80000704:	0000a025 	move	s4,zero
80000708:	8fbf002c 	lw	ra,44(sp)
8000070c:	8fb50028 	lw	s5,40(sp)
80000710:	8fb30020 	lw	s3,32(sp)
80000714:	8fb2001c 	lw	s2,28(sp)
80000718:	8fb10018 	lw	s1,24(sp)
8000071c:	8fb00014 	lw	s0,20(sp)
80000720:	02801025 	move	v0,s4
80000724:	8fb40024 	lw	s4,36(sp)
80000728:	03e00008 	jr	ra
8000072c:	27bd0030 	addiu	sp,sp,48

80000730 <search_small>:
search_small():
80000730:	3c028000 	lui	v0,0x8000
80000734:	27bdfcf8 	addiu	sp,sp,-776
80000738:	24491d20 	addiu	t1,v0,7456
8000073c:	27a30010 	addiu	v1,sp,16
80000740:	afbf0304 	sw	ra,772(sp)
80000744:	afbe0300 	sw	s8,768(sp)
80000748:	afb702fc 	sw	s7,764(sp)
8000074c:	afb602f8 	sw	s6,760(sp)
80000750:	afb502f4 	sw	s5,756(sp)
80000754:	afb402f0 	sw	s4,752(sp)
80000758:	afb302ec 	sw	s3,748(sp)
8000075c:	afb202e8 	sw	s2,744(sp)
80000760:	afb102e4 	sw	s1,740(sp)
80000764:	afb002e0 	sw	s0,736(sp)
80000768:	252800e0 	addiu	t0,t1,224
8000076c:	8d270000 	lw	a3,0(t1)
80000770:	8d260004 	lw	a2,4(t1)
80000774:	8d250008 	lw	a1,8(t1)
80000778:	8d24000c 	lw	a0,12(t1)
8000077c:	25290010 	addiu	t1,t1,16
80000780:	ac670000 	sw	a3,0(v1)
80000784:	ac660004 	sw	a2,4(v1)
80000788:	ac650008 	sw	a1,8(v1)
8000078c:	ac64000c 	sw	a0,12(v1)
80000790:	1528fff6 	bne	t1,t0,8000076c <search_small+0x3c>
80000794:	24630010 	addiu	v1,v1,16
80000798:	8d2a0000 	lw	t2,0(t1)
8000079c:	8d2b0004 	lw	t3,4(t1)
800007a0:	3c0c8000 	lui	t4,0x8000
800007a4:	25921e08 	addiu	s2,t4,7688
800007a8:	ac6a0000 	sw	t2,0(v1)
800007ac:	ac6b0004 	sw	t3,4(v1)
800007b0:	27b301dc 	addiu	s3,sp,476
800007b4:	264d00e0 	addiu	t5,s2,224
800007b8:	8e4e0000 	lw	t6,0(s2)
800007bc:	8e4f0004 	lw	t7,4(s2)
800007c0:	8e500008 	lw	s0,8(s2)
800007c4:	8e51000c 	lw	s1,12(s2)
800007c8:	26520010 	addiu	s2,s2,16
800007cc:	ae6e0000 	sw	t6,0(s3)
800007d0:	ae6f0004 	sw	t7,4(s3)
800007d4:	ae700008 	sw	s0,8(s3)
800007d8:	ae71000c 	sw	s1,12(s3)
800007dc:	164dfff6 	bne	s2,t5,800007b8 <search_small+0x88>
800007e0:	26730010 	addiu	s3,s3,16
800007e4:	8e540000 	lw	s4,0(s2)
800007e8:	3c158000 	lui	s5,0x8000
800007ec:	26bf1eec 	addiu	ra,s5,7916
800007f0:	ae740000 	sw	s4,0(s3)
800007f4:	27a800f8 	addiu	t0,sp,248
800007f8:	27f600e0 	addiu	s6,ra,224
800007fc:	8ff70000 	lw	s7,0(ra)
80000800:	8ff80004 	lw	t8,4(ra)
80000804:	8ff90008 	lw	t9,8(ra)
80000808:	8ffe000c 	lw	s8,12(ra)
8000080c:	27ff0010 	addiu	ra,ra,16
80000810:	ad170000 	sw	s7,0(t0)
80000814:	ad180004 	sw	t8,4(t0)
80000818:	ad190008 	sw	t9,8(t0)
8000081c:	ad1e000c 	sw	s8,12(t0)
80000820:	17f6fff6 	bne	ra,s6,800007fc <search_small+0xcc>
80000824:	25080010 	addiu	t0,t0,16
80000828:	8fe20000 	lw	v0,0(ra)
8000082c:	3c058000 	lui	a1,0x8000
80000830:	3c038000 	lui	v1,0x8000
80000834:	3c0b8000 	lui	t3,0x8000
80000838:	3c078000 	lui	a3,0x8000
8000083c:	3c068000 	lui	a2,0x8000
80000840:	24a43410 	addiu	a0,a1,13328
80000844:	3c098000 	lui	t1,0x8000
80000848:	246a1fe8 	addiu	t2,v1,8168
8000084c:	256c1d10 	addiu	t4,t3,7440
80000850:	3c0d8000 	lui	t5,0x8000
80000854:	ad020000 	sw	v0,0(t0)
80000858:	27b20014 	addiu	s2,sp,20
8000085c:	27b000f8 	addiu	s0,sp,248
80000860:	27b101dc 	addiu	s1,sp,476
80000864:	afa002cc 	sw	zero,716(sp)
80000868:	24f7150c 	addiu	s7,a3,5388
8000086c:	24d63010 	addiu	s6,a2,12304
80000870:	afa402c8 	sw	a0,712(sp)
80000874:	afa902c4 	sw	t1,708(sp)
80000878:	afaa02d4 	sw	t2,724(sp)
8000087c:	afac02d8 	sw	t4,728(sp)
80000880:	afad02d0 	sw	t5,720(sp)
80000884:	0c0003ec 	jal	80000fb0 <strlen>
80000888:	02e02025 	move	a0,s7
8000088c:	af828014 	sw	v0,-32748(gp)
80000890:	02c07025 	move	t6,s6
80000894:	8faf02c8 	lw	t7,712(sp)
80000898:	adc20000 	sw	v0,0(t6)
8000089c:	adc20004 	sw	v0,4(t6)
800008a0:	adc20008 	sw	v0,8(t6)
800008a4:	adc2000c 	sw	v0,12(t6)
800008a8:	adc20010 	sw	v0,16(t6)
800008ac:	adc20014 	sw	v0,20(t6)
800008b0:	adc20018 	sw	v0,24(t6)
800008b4:	adc2001c 	sw	v0,28(t6)
800008b8:	25ce0020 	addiu	t6,t6,32
800008bc:	15eefff5 	bne	t7,t6,80000894 <search_small+0x164>
800008c0:	00000000 	nop
800008c4:	1040006f 	beqz	v0,80000a84 <search_small+0x354>
800008c8:	245effff 	addiu	s8,v0,-1
800008cc:	30530007 	andi	s3,v0,0x7
800008d0:	0057a021 	addu	s4,v0,s7
800008d4:	02e01825 	move	v1,s7
800008d8:	12600039 	beqz	s3,800009c0 <search_small+0x290>
800008dc:	02fea821 	addu	s5,s7,s8
800008e0:	24180001 	li	t8,1
800008e4:	1278002f 	beq	s3,t8,800009a4 <search_small+0x274>
800008e8:	24190002 	li	t9,2
800008ec:	12790027 	beq	s3,t9,8000098c <search_small+0x25c>
800008f0:	241f0003 	li	ra,3
800008f4:	127f001f 	beq	s3,ra,80000974 <search_small+0x244>
800008f8:	24080004 	li	t0,4
800008fc:	12680017 	beq	s3,t0,8000095c <search_small+0x22c>
80000900:	24020005 	li	v0,5
80000904:	1262000f 	beq	s3,v0,80000944 <search_small+0x214>
80000908:	24070006 	li	a3,6
8000090c:	12670007 	beq	s3,a3,8000092c <search_small+0x1fc>
80000910:	02b72823 	subu	a1,s5,s7
80000914:	92e60000 	lbu	a2,0(s7)
80000918:	00000000 	nop
8000091c:	00062080 	sll	a0,a2,0x2
80000920:	02c44821 	addu	t1,s6,a0
80000924:	ad250000 	sw	a1,0(t1)
80000928:	26e30001 	addiu	v1,s7,1
8000092c:	906a0000 	lbu	t2,0(v1)
80000930:	02a35823 	subu	t3,s5,v1
80000934:	000a6080 	sll	t4,t2,0x2
80000938:	02cc6821 	addu	t5,s6,t4
8000093c:	adab0000 	sw	t3,0(t5)
80000940:	24630001 	addiu	v1,v1,1
80000944:	906e0000 	lbu	t6,0(v1)
80000948:	02a37823 	subu	t7,s5,v1
8000094c:	000e9880 	sll	s3,t6,0x2
80000950:	02d3c021 	addu	t8,s6,s3
80000954:	af0f0000 	sw	t7,0(t8)
80000958:	24630001 	addiu	v1,v1,1
8000095c:	90790000 	lbu	t9,0(v1)
80000960:	02a3f823 	subu	ra,s5,v1
80000964:	00194080 	sll	t0,t9,0x2
80000968:	02c81021 	addu	v0,s6,t0
8000096c:	ac5f0000 	sw	ra,0(v0)
80000970:	24630001 	addiu	v1,v1,1
80000974:	90670000 	lbu	a3,0(v1)
80000978:	02a33023 	subu	a2,s5,v1
8000097c:	00072880 	sll	a1,a3,0x2
80000980:	02c52021 	addu	a0,s6,a1
80000984:	ac860000 	sw	a2,0(a0)
80000988:	24630001 	addiu	v1,v1,1
8000098c:	90690000 	lbu	t1,0(v1)
80000990:	02a35023 	subu	t2,s5,v1
80000994:	00095880 	sll	t3,t1,0x2
80000998:	02cb6021 	addu	t4,s6,t3
8000099c:	ad8a0000 	sw	t2,0(t4)
800009a0:	24630001 	addiu	v1,v1,1
800009a4:	906d0000 	lbu	t5,0(v1)
800009a8:	02a37023 	subu	t6,s5,v1
800009ac:	000d7880 	sll	t7,t5,0x2
800009b0:	02cf9821 	addu	s3,s6,t7
800009b4:	24630001 	addiu	v1,v1,1
800009b8:	12830032 	beq	s4,v1,80000a84 <search_small+0x354>
800009bc:	ae6e0000 	sw	t6,0(s3)
800009c0:	90780000 	lbu	t8,0(v1)
800009c4:	02a3c823 	subu	t9,s5,v1
800009c8:	0018f880 	sll	ra,t8,0x2
800009cc:	02df4021 	addu	t0,s6,ra
800009d0:	ad190000 	sw	t9,0(t0)
800009d4:	90620001 	lbu	v0,1(v1)
800009d8:	24670001 	addiu	a3,v1,1
800009dc:	00023080 	sll	a2,v0,0x2
800009e0:	02c62821 	addu	a1,s6,a2
800009e4:	02a72023 	subu	a0,s5,a3
800009e8:	aca40000 	sw	a0,0(a1)
800009ec:	90690002 	lbu	t1,2(v1)
800009f0:	246a0002 	addiu	t2,v1,2
800009f4:	00095880 	sll	t3,t1,0x2
800009f8:	02cb6021 	addu	t4,s6,t3
800009fc:	02aa6823 	subu	t5,s5,t2
80000a00:	ad8d0000 	sw	t5,0(t4)
80000a04:	906e0003 	lbu	t6,3(v1)
80000a08:	246f0003 	addiu	t7,v1,3
80000a0c:	000e9880 	sll	s3,t6,0x2
80000a10:	02d3c021 	addu	t8,s6,s3
80000a14:	02afc823 	subu	t9,s5,t7
80000a18:	af190000 	sw	t9,0(t8)
80000a1c:	907f0004 	lbu	ra,4(v1)
80000a20:	24680004 	addiu	t0,v1,4
80000a24:	001f1080 	sll	v0,ra,0x2
80000a28:	02c23821 	addu	a3,s6,v0
80000a2c:	02a83023 	subu	a2,s5,t0
80000a30:	ace60000 	sw	a2,0(a3)
80000a34:	90650005 	lbu	a1,5(v1)
80000a38:	24640005 	addiu	a0,v1,5
80000a3c:	00054880 	sll	t1,a1,0x2
80000a40:	02c95021 	addu	t2,s6,t1
80000a44:	02a45823 	subu	t3,s5,a0
80000a48:	ad4b0000 	sw	t3,0(t2)
80000a4c:	906c0006 	lbu	t4,6(v1)
80000a50:	246d0006 	addiu	t5,v1,6
80000a54:	000c7080 	sll	t6,t4,0x2
80000a58:	02ce7821 	addu	t7,s6,t6
80000a5c:	02ad9823 	subu	s3,s5,t5
80000a60:	adf30000 	sw	s3,0(t7)
80000a64:	90780007 	lbu	t8,7(v1)
80000a68:	24790007 	addiu	t9,v1,7
80000a6c:	0018f880 	sll	ra,t8,0x2
80000a70:	02df4021 	addu	t0,s6,ra
80000a74:	02b91023 	subu	v0,s5,t9
80000a78:	24630008 	addiu	v1,v1,8
80000a7c:	1683ffd0 	bne	s4,v1,800009c0 <search_small+0x290>
80000a80:	ad020000 	sw	v0,0(t0)
80000a84:	8e350000 	lw	s5,0(s1)
80000a88:	af978010 	sw	s7,-32752(gp)
80000a8c:	0c0003ec 	jal	80000fb0 <strlen>
80000a90:	02a02025 	move	a0,s5
80000a94:	00405825 	move	t3,v0
80000a98:	1000000a 	b	80000ac4 <search_small+0x394>
80000a9c:	24130001 	li	s3,1
80000aa0:	90670000 	lbu	a3,0(v1)
80000aa4:	00000000 	nop
80000aa8:	00073080 	sll	a2,a3,0x2
80000aac:	02c62821 	addu	a1,s6,a2
80000ab0:	8ca40000 	lw	a0,0(a1)
80000ab4:	00000000 	nop
80000ab8:	10800025 	beqz	a0,80000b50 <search_small+0x420>
80000abc:	00000000 	nop
80000ac0:	03c4f021 	addu	s8,s8,a0
80000ac4:	03cba02b 	sltu	s4,s8,t3
80000ac8:	1680fff5 	bnez	s4,80000aa0 <search_small+0x370>
80000acc:	02be1821 	addu	v1,s5,s8
80000ad0:	02a03825 	move	a3,s5
80000ad4:	02e02825 	move	a1,s7
80000ad8:	8fb502d0 	lw	s5,720(sp)
80000adc:	8fb702c4 	lw	s7,708(sp)
80000ae0:	26a618c8 	addiu	a2,s5,6344
80000ae4:	0c000314 	jal	80000c50 <printf>
80000ae8:	26e41cfc 	addiu	a0,s7,7420
80000aec:	0c0003a4 	jal	80000e90 <putchar>
80000af0:	2404000a 	li	a0,10
80000af4:	8e0c0000 	lw	t4,0(s0)
80000af8:	00000000 	nop
80000afc:	15800034 	bnez	t4,80000bd0 <search_small+0x4a0>
80000b00:	00000000 	nop
80000b04:	8e570000 	lw	s7,0(s2)
80000b08:	26100004 	addiu	s0,s0,4
80000b0c:	26520004 	addiu	s2,s2,4
80000b10:	16e0ff5c 	bnez	s7,80000884 <search_small+0x154>
80000b14:	26310004 	addiu	s1,s1,4
80000b18:	8fbf0304 	lw	ra,772(sp)
80000b1c:	8fa202cc 	lw	v0,716(sp)
80000b20:	8fbe0300 	lw	s8,768(sp)
80000b24:	8fb702fc 	lw	s7,764(sp)
80000b28:	8fb602f8 	lw	s6,760(sp)
80000b2c:	8fb502f4 	lw	s5,756(sp)
80000b30:	8fb402f0 	lw	s4,752(sp)
80000b34:	8fb302ec 	lw	s3,748(sp)
80000b38:	8fb202e8 	lw	s2,744(sp)
80000b3c:	8fb102e4 	lw	s1,740(sp)
80000b40:	8fb002e0 	lw	s0,736(sp)
80000b44:	03e00008 	jr	ra
80000b48:	27bd0308 	addiu	sp,sp,776
80000b4c:	00000000 	nop
80000b50:	8f868014 	lw	a2,-32748(gp)
80000b54:	8f848010 	lw	a0,-32752(gp)
80000b58:	02664823 	subu	t1,s3,a2
80000b5c:	013e5021 	addu	t2,t1,s8
80000b60:	02aaa021 	addu	s4,s5,t2
80000b64:	02802825 	move	a1,s4
80000b68:	0c000435 	jal	800010d4 <strncmp>
80000b6c:	afab02c0 	sw	t3,704(sp)
80000b70:	10400007 	beqz	v0,80000b90 <search_small+0x460>
80000b74:	27de0001 	addiu	s8,s8,1
80000b78:	8fab02c0 	lw	t3,704(sp)
80000b7c:	1000ffd2 	b	80000ac8 <search_small+0x398>
80000b80:	03cba02b 	sltu	s4,s8,t3
	...
80000b90:	1280ffcf 	beqz	s4,80000ad0 <search_small+0x3a0>
80000b94:	02a03825 	move	a3,s5
80000b98:	8fad02c4 	lw	t5,708(sp)
80000b9c:	8fa602d4 	lw	a2,724(sp)
80000ba0:	25a41cfc 	addiu	a0,t5,7420
80000ba4:	0c000314 	jal	80000c50 <printf>
80000ba8:	02e02825 	move	a1,s7
80000bac:	8fa402d8 	lw	a0,728(sp)
80000bb0:	0c000314 	jal	80000c50 <printf>
80000bb4:	02802825 	move	a1,s4
80000bb8:	0c0003a4 	jal	80000e90 <putchar>
80000bbc:	2404000a 	li	a0,10
80000bc0:	8e0e0000 	lw	t6,0(s0)
80000bc4:	00000000 	nop
80000bc8:	15c0ffce 	bnez	t6,80000b04 <search_small+0x3d4>
80000bcc:	00000000 	nop
80000bd0:	8faf02cc 	lw	t7,716(sp)
80000bd4:	00000000 	nop
80000bd8:	25f30001 	addiu	s3,t7,1
80000bdc:	1000ffc9 	b	80000b04 <search_small+0x3d4>
80000be0:	afb302cc 	sw	s3,716(sp)
	...

80000bf0 <get_epc>:
get_epc():
80000bf0:	40027000 	mfc0	v0,c0_epc
80000bf4:	03e00008 	jr	ra
80000bf8:	00000000 	nop

80000bfc <get_cause>:
get_cause():
80000bfc:	40026800 	mfc0	v0,c0_cause
80000c00:	03e00008 	jr	ra
80000c04:	00000000 	nop

80000c08 <exception>:
exception():
80000c08:	3c048000 	lui	a0,0x8000
80000c0c:	27bdffe8 	addiu	sp,sp,-24
80000c10:	afbf0014 	sw	ra,20(sp)
80000c14:	0c000314 	jal	80000c50 <printf>
80000c18:	24841fd0 	addiu	a0,a0,8144
80000c1c:	3c048000 	lui	a0,0x8000
80000c20:	24841fec 	addiu	a0,a0,8172
80000c24:	40057000 	mfc0	a1,c0_epc
80000c28:	0c000314 	jal	80000c50 <printf>
80000c2c:	00000000 	nop
80000c30:	8fbf0014 	lw	ra,20(sp)
80000c34:	3c048000 	lui	a0,0x8000
80000c38:	24841ffc 	addiu	a0,a0,8188
80000c3c:	27bd0018 	addiu	sp,sp,24
80000c40:	40056800 	mfc0	a1,c0_cause
80000c44:	08000314 	j	80000c50 <printf>
80000c48:	00000000 	nop
80000c4c:	00000000 	nop

80000c50 <printf>:
printf():
80000c50:	27bdffd0 	addiu	sp,sp,-48
80000c54:	afb30024 	sw	s3,36(sp)
80000c58:	afbf002c 	sw	ra,44(sp)
80000c5c:	afb40028 	sw	s4,40(sp)
80000c60:	afb20020 	sw	s2,32(sp)
80000c64:	afb1001c 	sw	s1,28(sp)
80000c68:	afb00018 	sw	s0,24(sp)
80000c6c:	80900000 	lb	s0,0(a0)
80000c70:	27b30034 	addiu	s3,sp,52
80000c74:	afa50034 	sw	a1,52(sp)
80000c78:	afa60038 	sw	a2,56(sp)
80000c7c:	afa7003c 	sw	a3,60(sp)
80000c80:	12000024 	beqz	s0,80000d14 <printf+0xc4>
80000c84:	afb30010 	sw	s3,16(sp)
80000c88:	3c148000 	lui	s4,0x8000
80000c8c:	00809025 	move	s2,a0
80000c90:	00008825 	move	s1,zero
80000c94:	10000009 	b	80000cbc <printf+0x6c>
80000c98:	26942010 	addiu	s4,s4,8208
80000c9c:	0c0003a4 	jal	80000e90 <putchar>
80000ca0:	02002025 	move	a0,s0
80000ca4:	26310001 	addiu	s1,s1,1
80000ca8:	02511021 	addu	v0,s2,s1
80000cac:	80500000 	lb	s0,0(v0)
80000cb0:	00000000 	nop
80000cb4:	12000017 	beqz	s0,80000d14 <printf+0xc4>
80000cb8:	00000000 	nop
80000cbc:	24020025 	li	v0,37
80000cc0:	12020007 	beq	s0,v0,80000ce0 <printf+0x90>
80000cc4:	2402000a 	li	v0,10
80000cc8:	1602fff4 	bne	s0,v0,80000c9c <printf+0x4c>
80000ccc:	00000000 	nop
80000cd0:	0c0003a4 	jal	80000e90 <putchar>
80000cd4:	2404000d 	li	a0,13
80000cd8:	1000fff0 	b	80000c9c <printf+0x4c>
80000cdc:	00000000 	nop
80000ce0:	02511021 	addu	v0,s2,s1
80000ce4:	80440001 	lb	a0,1(v0)
80000ce8:	24050001 	li	a1,1
80000cec:	2482ffdb 	addiu	v0,a0,-37
80000cf0:	304200ff 	andi	v0,v0,0xff
80000cf4:	2c430054 	sltiu	v1,v0,84
80000cf8:	10600028 	beqz	v1,80000d9c <printf+0x14c>
80000cfc:	00021080 	sll	v0,v0,0x2
80000d00:	02821021 	addu	v0,s4,v0
80000d04:	8c420000 	lw	v0,0(v0)
80000d08:	00000000 	nop
80000d0c:	00400008 	jr	v0
80000d10:	00000000 	nop
80000d14:	8fbf002c 	lw	ra,44(sp)
80000d18:	8fb40028 	lw	s4,40(sp)
80000d1c:	8fb30024 	lw	s3,36(sp)
80000d20:	8fb20020 	lw	s2,32(sp)
80000d24:	8fb1001c 	lw	s1,28(sp)
80000d28:	8fb00018 	lw	s0,24(sp)
80000d2c:	00001025 	move	v0,zero
80000d30:	03e00008 	jr	ra
80000d34:	27bd0030 	addiu	sp,sp,48
80000d38:	02511021 	addu	v0,s2,s1
80000d3c:	80440002 	lb	a0,2(v0)
80000d40:	26310001 	addiu	s1,s1,1
80000d44:	2482ffcf 	addiu	v0,a0,-49
80000d48:	304200ff 	andi	v0,v0,0xff
80000d4c:	2c420009 	sltiu	v0,v0,9
80000d50:	1040ffe6 	beqz	v0,80000cec <printf+0x9c>
80000d54:	00002825 	move	a1,zero
80000d58:	26310001 	addiu	s1,s1,1
80000d5c:	02511021 	addu	v0,s2,s1
80000d60:	2486ffd0 	addiu	a2,a0,-48
80000d64:	80440001 	lb	a0,1(v0)
80000d68:	00051880 	sll	v1,a1,0x2
80000d6c:	2482ffcf 	addiu	v0,a0,-49
80000d70:	00652821 	addu	a1,v1,a1
80000d74:	304200ff 	andi	v0,v0,0xff
80000d78:	00052840 	sll	a1,a1,0x1
80000d7c:	2c420009 	sltiu	v0,v0,9
80000d80:	1440fff5 	bnez	v0,80000d58 <printf+0x108>
80000d84:	00c52821 	addu	a1,a2,a1
80000d88:	2482ffdb 	addiu	v0,a0,-37
80000d8c:	304200ff 	andi	v0,v0,0xff
80000d90:	2c430054 	sltiu	v1,v0,84
80000d94:	1460ffda 	bnez	v1,80000d00 <printf+0xb0>
80000d98:	00021080 	sll	v0,v0,0x2
80000d9c:	0c0003a4 	jal	80000e90 <putchar>
80000da0:	24040025 	li	a0,37
80000da4:	1000ffc0 	b	80000ca8 <printf+0x58>
80000da8:	26310001 	addiu	s1,s1,1
80000dac:	8e640000 	lw	a0,0(s3)
80000db0:	00003825 	move	a3,zero
80000db4:	0c0004f0 	jal	800013c0 <printbase>
80000db8:	24060010 	li	a2,16
80000dbc:	26730004 	addiu	s3,s3,4
80000dc0:	1000ffb8 	b	80000ca4 <printf+0x54>
80000dc4:	26310001 	addiu	s1,s1,1
80000dc8:	8e640000 	lw	a0,0(s3)
80000dcc:	0c0003bc 	jal	80000ef0 <putstring>
80000dd0:	26310001 	addiu	s1,s1,1
80000dd4:	1000ffb3 	b	80000ca4 <printf+0x54>
80000dd8:	26730004 	addiu	s3,s3,4
80000ddc:	8e640000 	lw	a0,0(s3)
80000de0:	0c0003a4 	jal	80000e90 <putchar>
80000de4:	26310001 	addiu	s1,s1,1
80000de8:	1000ffae 	b	80000ca4 <printf+0x54>
80000dec:	26730004 	addiu	s3,s3,4
80000df0:	8e640000 	lw	a0,0(s3)
80000df4:	24070001 	li	a3,1
80000df8:	0c0004f0 	jal	800013c0 <printbase>
80000dfc:	2406000a 	li	a2,10
80000e00:	26730004 	addiu	s3,s3,4
80000e04:	1000ffa7 	b	80000ca4 <printf+0x54>
80000e08:	26310001 	addiu	s1,s1,1
80000e0c:	8e640000 	lw	a0,0(s3)
80000e10:	00003825 	move	a3,zero
80000e14:	0c0004f0 	jal	800013c0 <printbase>
80000e18:	24060002 	li	a2,2
80000e1c:	26730004 	addiu	s3,s3,4
80000e20:	1000ffa0 	b	80000ca4 <printf+0x54>
80000e24:	26310001 	addiu	s1,s1,1
80000e28:	8e640000 	lw	a0,0(s3)
80000e2c:	00003825 	move	a3,zero
80000e30:	0c0004f0 	jal	800013c0 <printbase>
80000e34:	2406000a 	li	a2,10
80000e38:	26730004 	addiu	s3,s3,4
80000e3c:	1000ff99 	b	80000ca4 <printf+0x54>
80000e40:	26310001 	addiu	s1,s1,1
80000e44:	8e640000 	lw	a0,0(s3)
80000e48:	00003825 	move	a3,zero
80000e4c:	0c0004f0 	jal	800013c0 <printbase>
80000e50:	2406000a 	li	a2,10
80000e54:	26730004 	addiu	s3,s3,4
80000e58:	1000ff92 	b	80000ca4 <printf+0x54>
80000e5c:	26310002 	addiu	s1,s1,2
80000e60:	8e640000 	lw	a0,0(s3)
80000e64:	00003825 	move	a3,zero
80000e68:	0c0004f0 	jal	800013c0 <printbase>
80000e6c:	24060008 	li	a2,8
80000e70:	26730004 	addiu	s3,s3,4
80000e74:	1000ff8b 	b	80000ca4 <printf+0x54>
80000e78:	26310001 	addiu	s1,s1,1
80000e7c:	0c0003a4 	jal	80000e90 <putchar>
80000e80:	24040025 	li	a0,37
80000e84:	1000ff87 	b	80000ca4 <printf+0x54>
80000e88:	26310001 	addiu	s1,s1,1
80000e8c:	00000000 	nop

80000e90 <putchar>:
putchar():
80000e90:	3c03a300 	lui	v1,0xa300
80000e94:	8c620000 	lw	v0,0(v1)
80000e98:	00000000 	nop
80000e9c:	30420001 	andi	v0,v0,0x1
80000ea0:	1040fffc 	beqz	v0,80000e94 <putchar+0x4>
80000ea4:	00000000 	nop
80000ea8:	10800002 	beqz	a0,80000eb4 <putchar+0x24>
80000eac:	00000000 	nop
80000eb0:	ac640004 	sw	a0,4(v1)
80000eb4:	03e00008 	jr	ra
80000eb8:	00001025 	move	v0,zero

80000ebc <tgt_putchar>:
tgt_putchar():
80000ebc:	3c03a300 	lui	v1,0xa300
80000ec0:	8c620000 	lw	v0,0(v1)
80000ec4:	00000000 	nop
80000ec8:	30420001 	andi	v0,v0,0x1
80000ecc:	1040fffc 	beqz	v0,80000ec0 <tgt_putchar+0x4>
80000ed0:	00000000 	nop
80000ed4:	10800002 	beqz	a0,80000ee0 <tgt_putchar+0x24>
80000ed8:	00000000 	nop
80000edc:	ac640004 	sw	a0,4(v1)
80000ee0:	03e00008 	jr	ra
80000ee4:	00000000 	nop
	...

80000ef0 <putstring>:
putstring():
80000ef0:	27bdffe0 	addiu	sp,sp,-32
80000ef4:	afbf001c 	sw	ra,28(sp)
80000ef8:	afb20018 	sw	s2,24(sp)
80000efc:	afb10014 	sw	s1,20(sp)
80000f00:	afb00010 	sw	s0,16(sp)
80000f04:	80900000 	lb	s0,0(a0)
80000f08:	00000000 	nop
80000f0c:	12000013 	beqz	s0,80000f5c <putstring+0x6c>
80000f10:	00808825 	move	s1,a0
80000f14:	10000007 	b	80000f34 <putstring+0x44>
80000f18:	2412000a 	li	s2,10
80000f1c:	0c0003a4 	jal	80000e90 <putchar>
80000f20:	02002025 	move	a0,s0
80000f24:	82300000 	lb	s0,0(s1)
80000f28:	00000000 	nop
80000f2c:	1200000b 	beqz	s0,80000f5c <putstring+0x6c>
80000f30:	00000000 	nop
80000f34:	1612fff9 	bne	s0,s2,80000f1c <putstring+0x2c>
80000f38:	26310001 	addiu	s1,s1,1
80000f3c:	0c0003a4 	jal	80000e90 <putchar>
80000f40:	2404000d 	li	a0,13
80000f44:	0c0003a4 	jal	80000e90 <putchar>
80000f48:	02002025 	move	a0,s0
80000f4c:	82300000 	lb	s0,0(s1)
80000f50:	00000000 	nop
80000f54:	1600fff7 	bnez	s0,80000f34 <putstring+0x44>
80000f58:	00000000 	nop
80000f5c:	8fbf001c 	lw	ra,28(sp)
80000f60:	8fb20018 	lw	s2,24(sp)
80000f64:	8fb10014 	lw	s1,20(sp)
80000f68:	8fb00010 	lw	s0,16(sp)
80000f6c:	00001025 	move	v0,zero
80000f70:	03e00008 	jr	ra
80000f74:	27bd0020 	addiu	sp,sp,32

80000f78 <puts>:
puts():
80000f78:	27bdffe8 	addiu	sp,sp,-24
80000f7c:	afbf0014 	sw	ra,20(sp)
80000f80:	0c0003bc 	jal	80000ef0 <putstring>
80000f84:	00000000 	nop
80000f88:	0c0003a4 	jal	80000e90 <putchar>
80000f8c:	2404000d 	li	a0,13
80000f90:	0c0003a4 	jal	80000e90 <putchar>
80000f94:	2404000a 	li	a0,10
80000f98:	8fbf0014 	lw	ra,20(sp)
80000f9c:	00001025 	move	v0,zero
80000fa0:	03e00008 	jr	ra
80000fa4:	27bd0018 	addiu	sp,sp,24
	...

80000fb0 <strlen>:
strlen():
80000fb0:	80820000 	lb	v0,0(a0)
80000fb4:	00000000 	nop
80000fb8:	1040000a 	beqz	v0,80000fe4 <strlen+0x34>
80000fbc:	00000000 	nop
80000fc0:	00001025 	move	v0,zero
80000fc4:	24420001 	addiu	v0,v0,1
80000fc8:	00821821 	addu	v1,a0,v0
80000fcc:	80630000 	lb	v1,0(v1)
80000fd0:	00000000 	nop
80000fd4:	1460fffb 	bnez	v1,80000fc4 <strlen+0x14>
80000fd8:	00000000 	nop
80000fdc:	03e00008 	jr	ra
80000fe0:	00000000 	nop
80000fe4:	03e00008 	jr	ra
80000fe8:	00001025 	move	v0,zero

80000fec <strnlen>:
strnlen():
80000fec:	14a00005 	bnez	a1,80001004 <strnlen+0x18>
80000ff0:	00001025 	move	v0,zero
80000ff4:	1000000a 	b	80001020 <strnlen+0x34>
80000ff8:	00000000 	nop
80000ffc:	10a20008 	beq	a1,v0,80001020 <strnlen+0x34>
80001000:	00000000 	nop
80001004:	00821821 	addu	v1,a0,v0
80001008:	80630000 	lb	v1,0(v1)
8000100c:	00000000 	nop
80001010:	1460fffa 	bnez	v1,80000ffc <strnlen+0x10>
80001014:	24420001 	addiu	v0,v0,1
80001018:	03e00008 	jr	ra
8000101c:	2442ffff 	addiu	v0,v0,-1
80001020:	03e00008 	jr	ra
80001024:	00000000 	nop

80001028 <strcpy>:
strcpy():
80001028:	00801025 	move	v0,a0
8000102c:	00801825 	move	v1,a0
80001030:	80a60000 	lb	a2,0(a1)
80001034:	24630001 	addiu	v1,v1,1
80001038:	24a50001 	addiu	a1,a1,1
8000103c:	14c0fffc 	bnez	a2,80001030 <strcpy+0x8>
80001040:	a066ffff 	sb	a2,-1(v1)
80001044:	03e00008 	jr	ra
80001048:	00000000 	nop

8000104c <strncpy>:
strncpy():
8000104c:	10c0000a 	beqz	a2,80001078 <strncpy+0x2c>
80001050:	00801025 	move	v0,a0
80001054:	00863821 	addu	a3,a0,a2
80001058:	00801825 	move	v1,a0
8000105c:	80a60000 	lb	a2,0(a1)
80001060:	24630001 	addiu	v1,v1,1
80001064:	10c00002 	beqz	a2,80001070 <strncpy+0x24>
80001068:	a066ffff 	sb	a2,-1(v1)
8000106c:	24a50001 	addiu	a1,a1,1
80001070:	1467fffa 	bne	v1,a3,8000105c <strncpy+0x10>
80001074:	00000000 	nop
80001078:	03e00008 	jr	ra
8000107c:	00000000 	nop

80001080 <strcmp>:
strcmp():
80001080:	80820000 	lb	v0,0(a0)
80001084:	80a30000 	lb	v1,0(a1)
80001088:	14400008 	bnez	v0,800010ac <strcmp+0x2c>
8000108c:	24840001 	addiu	a0,a0,1
80001090:	2484ffff 	addiu	a0,a0,-1
80001094:	10000009 	b	800010bc <strcmp+0x3c>
80001098:	306300ff 	andi	v1,v1,0xff
8000109c:	80820000 	lb	v0,0(a0)
800010a0:	80a30000 	lb	v1,0(a1)
800010a4:	10400007 	beqz	v0,800010c4 <strcmp+0x44>
800010a8:	24840001 	addiu	a0,a0,1
800010ac:	1043fffb 	beq	v0,v1,8000109c <strcmp+0x1c>
800010b0:	24a50001 	addiu	a1,a1,1
800010b4:	304200ff 	andi	v0,v0,0xff
800010b8:	306300ff 	andi	v1,v1,0xff
800010bc:	03e00008 	jr	ra
800010c0:	00431023 	subu	v0,v0,v1
800010c4:	306300ff 	andi	v1,v1,0xff
800010c8:	00001025 	move	v0,zero
800010cc:	03e00008 	jr	ra
800010d0:	00431023 	subu	v0,v0,v1

800010d4 <strncmp>:
strncmp():
800010d4:	10c00010 	beqz	a2,80001118 <strncmp+0x44>
800010d8:	00a63021 	addu	a2,a1,a2
800010dc:	10000005 	b	800010f4 <strncmp+0x20>
800010e0:	00000000 	nop
800010e4:	14430008 	bne	v0,v1,80001108 <strncmp+0x34>
800010e8:	00000000 	nop
800010ec:	10a6000a 	beq	a1,a2,80001118 <strncmp+0x44>
800010f0:	24840001 	addiu	a0,a0,1
800010f4:	80820000 	lb	v0,0(a0)
800010f8:	24a50001 	addiu	a1,a1,1
800010fc:	80a3ffff 	lb	v1,-1(a1)
80001100:	1440fff8 	bnez	v0,800010e4 <strncmp+0x10>
80001104:	00000000 	nop
80001108:	306300ff 	andi	v1,v1,0xff
8000110c:	304200ff 	andi	v0,v0,0xff
80001110:	03e00008 	jr	ra
80001114:	00431023 	subu	v0,v0,v1
80001118:	03e00008 	jr	ra
8000111c:	00001025 	move	v0,zero

80001120 <strchr>:
strchr():
80001120:	80820000 	lb	v0,0(a0)
80001124:	00000000 	nop
80001128:	14400007 	bnez	v0,80001148 <strchr+0x28>
8000112c:	00000000 	nop
80001130:	03e00008 	jr	ra
80001134:	00001025 	move	v0,zero
80001138:	80820001 	lb	v0,1(a0)
8000113c:	00000000 	nop
80001140:	10400003 	beqz	v0,80001150 <strchr+0x30>
80001144:	24840001 	addiu	a0,a0,1
80001148:	14a2fffb 	bne	a1,v0,80001138 <strchr+0x18>
8000114c:	00801025 	move	v0,a0
80001150:	03e00008 	jr	ra
80001154:	00000000 	nop
80001158:	03e00008 	jr	ra
8000115c:	00000000 	nop

80001160 <strfind>:
strfind():
80001160:	80830000 	lb	v1,0(a0)
80001164:	00000000 	nop
80001168:	14600007 	bnez	v1,80001188 <strfind+0x28>
8000116c:	00801025 	move	v0,a0
80001170:	10000007 	b	80001190 <strfind+0x30>
80001174:	00000000 	nop
80001178:	80430001 	lb	v1,1(v0)
8000117c:	00000000 	nop
80001180:	10600003 	beqz	v1,80001190 <strfind+0x30>
80001184:	24420001 	addiu	v0,v0,1
80001188:	14a3fffb 	bne	a1,v1,80001178 <strfind+0x18>
8000118c:	00000000 	nop
80001190:	03e00008 	jr	ra
80001194:	00000000 	nop

80001198 <memset>:
memset():
80001198:	10c00006 	beqz	a2,800011b4 <memset+0x1c>
8000119c:	00801025 	move	v0,a0
800011a0:	00863021 	addu	a2,a0,a2
800011a4:	00801825 	move	v1,a0
800011a8:	24630001 	addiu	v1,v1,1
800011ac:	1466fffe 	bne	v1,a2,800011a8 <memset+0x10>
800011b0:	a065ffff 	sb	a1,-1(v1)
800011b4:	03e00008 	jr	ra
800011b8:	00000000 	nop

800011bc <memcpy>:
memcpy():
800011bc:	10c00008 	beqz	a2,800011e0 <memcpy+0x24>
800011c0:	00801025 	move	v0,a0
800011c4:	00a63821 	addu	a3,a1,a2
800011c8:	00801825 	move	v1,a0
800011cc:	80a60000 	lb	a2,0(a1)
800011d0:	24a50001 	addiu	a1,a1,1
800011d4:	24630001 	addiu	v1,v1,1
800011d8:	14a7fffc 	bne	a1,a3,800011cc <memcpy+0x10>
800011dc:	a066ffff 	sb	a2,-1(v1)
800011e0:	03e00008 	jr	ra
800011e4:	00000000 	nop

800011e8 <memmove>:
memmove():
800011e8:	00a4182b 	sltu	v1,a1,a0
800011ec:	10600005 	beqz	v1,80001204 <memmove+0x1c>
800011f0:	00801025 	move	v0,a0
800011f4:	00a61821 	addu	v1,a1,a2
800011f8:	0083202b 	sltu	a0,a0,v1
800011fc:	1480000b 	bnez	a0,8000122c <memmove+0x44>
80001200:	00000000 	nop
80001204:	10c00007 	beqz	a2,80001224 <memmove+0x3c>
80001208:	00a63821 	addu	a3,a1,a2
8000120c:	00401825 	move	v1,v0
80001210:	80a60000 	lb	a2,0(a1)
80001214:	24a50001 	addiu	a1,a1,1
80001218:	24630001 	addiu	v1,v1,1
8000121c:	14a7fffc 	bne	a1,a3,80001210 <memmove+0x28>
80001220:	a066ffff 	sb	a2,-1(v1)
80001224:	03e00008 	jr	ra
80001228:	00000000 	nop
8000122c:	10c0fffd 	beqz	a2,80001224 <memmove+0x3c>
80001230:	00462021 	addu	a0,v0,a2
80001234:	8066ffff 	lb	a2,-1(v1)
80001238:	2463ffff 	addiu	v1,v1,-1
8000123c:	2484ffff 	addiu	a0,a0,-1
80001240:	14a3fffc 	bne	a1,v1,80001234 <memmove+0x4c>
80001244:	a0860000 	sb	a2,0(a0)
80001248:	03e00008 	jr	ra
8000124c:	00000000 	nop

80001250 <memcmp>:
memcmp():
80001250:	10c0000e 	beqz	a2,8000128c <memcmp+0x3c>
80001254:	00a63021 	addu	a2,a1,a2
80001258:	10000003 	b	80001268 <memcmp+0x18>
8000125c:	00000000 	nop
80001260:	10a6000a 	beq	a1,a2,8000128c <memcmp+0x3c>
80001264:	24840001 	addiu	a0,a0,1
80001268:	80a30000 	lb	v1,0(a1)
8000126c:	80820000 	lb	v0,0(a0)
80001270:	00000000 	nop
80001274:	1043fffa 	beq	v0,v1,80001260 <memcmp+0x10>
80001278:	24a50001 	addiu	a1,a1,1
8000127c:	306300ff 	andi	v1,v1,0xff
80001280:	304200ff 	andi	v0,v0,0xff
80001284:	03e00008 	jr	ra
80001288:	00431023 	subu	v0,v0,v1
8000128c:	03e00008 	jr	ra
80001290:	00001025 	move	v0,zero

80001294 <bzero>:
bzero():
80001294:	10a00004 	beqz	a1,800012a8 <bzero+0x14>
80001298:	00852821 	addu	a1,a0,a1
8000129c:	24840001 	addiu	a0,a0,1
800012a0:	1485fffe 	bne	a0,a1,8000129c <bzero+0x8>
800012a4:	a080ffff 	sb	zero,-1(a0)
800012a8:	03e00008 	jr	ra
800012ac:	00000000 	nop

800012b0 <_get_count>:
_get_count():
800012b0:	3c02a400 	lui	v0,0xa400
800012b4:	8c420004 	lw	v0,4(v0)
800012b8:	03e00008 	jr	ra
800012bc:	00000000 	nop

800012c0 <get_count>:
get_count():
800012c0:	3c02a400 	lui	v0,0xa400
800012c4:	8c420004 	lw	v0,4(v0)
800012c8:	03e00008 	jr	ra
800012cc:	00000000 	nop

800012d0 <clock_gettime>:
clock_gettime():
800012d0:	3c02a400 	lui	v0,0xa400
800012d4:	8c440004 	lw	a0,4(v0)
800012d8:	240203e8 	li	v0,1000
800012dc:	14400002 	bnez	v0,800012e8 <clock_gettime+0x18>
800012e0:	0082001b 	divu	zero,a0,v0
800012e4:	0007000d 	break	0x7
800012e8:	00043840 	sll	a3,a0,0x1
800012ec:	27bdffe8 	addiu	sp,sp,-24
800012f0:	00a04025 	move	t0,a1
800012f4:	afbf0014 	sw	ra,20(sp)
800012f8:	aca00000 	sw	zero,0(a1)
800012fc:	3c048000 	lui	a0,0x8000
80001300:	00003025 	move	a2,zero
80001304:	24842160 	addiu	a0,a0,8544
80001308:	00001812 	mflo	v1
8000130c:	00031840 	sll	v1,v1,0x1
80001310:	00000000 	nop
80001314:	14400002 	bnez	v0,80001320 <clock_gettime+0x50>
80001318:	0062001b 	divu	zero,v1,v0
8000131c:	0007000d 	break	0x7
80001320:	00004810 	mfhi	t1
80001324:	ad090008 	sw	t1,8(t0)
80001328:	00001812 	mflo	v1
	...
80001334:	14400002 	bnez	v0,80001340 <clock_gettime+0x70>
80001338:	00e2001b 	divu	zero,a3,v0
8000133c:	0007000d 	break	0x7
80001340:	00002810 	mfhi	a1
80001344:	ad050004 	sw	a1,4(t0)
80001348:	00000000 	nop
8000134c:	14400002 	bnez	v0,80001358 <clock_gettime+0x88>
80001350:	0062001b 	divu	zero,v1,v0
80001354:	0007000d 	break	0x7
80001358:	00001010 	mfhi	v0
8000135c:	0c000314 	jal	80000c50 <printf>
80001360:	ad02000c 	sw	v0,12(t0)
80001364:	8fbf0014 	lw	ra,20(sp)
80001368:	00001025 	move	v0,zero
8000136c:	03e00008 	jr	ra
80001370:	27bd0018 	addiu	sp,sp,24

80001374 <get_clock>:
get_clock():
80001374:	3c02a400 	lui	v0,0xa400
80001378:	8c420004 	lw	v0,4(v0)
8000137c:	03e00008 	jr	ra
80001380:	00021040 	sll	v0,v0,0x1

80001384 <get_us>:
get_us():
80001384:	3c02a400 	lui	v0,0xa400
80001388:	8c420000 	lw	v0,0(v0)
8000138c:	03e00008 	jr	ra
80001390:	00000000 	nop

80001394 <get_ns>:
get_ns():
80001394:	3c02a400 	lui	v0,0xa400
80001398:	8c430000 	lw	v1,0(v0)
8000139c:	00000000 	nop
800013a0:	00031140 	sll	v0,v1,0x5
800013a4:	00431023 	subu	v0,v0,v1
800013a8:	00021080 	sll	v0,v0,0x2
800013ac:	00431021 	addu	v0,v0,v1
800013b0:	03e00008 	jr	ra
800013b4:	000210c0 	sll	v0,v0,0x3
	...

800013c0 <printbase>:
printbase():
800013c0:	27bdffa0 	addiu	sp,sp,-96
800013c4:	afb00054 	sw	s0,84(sp)
800013c8:	afbf005c 	sw	ra,92(sp)
800013cc:	afb10058 	sw	s1,88(sp)
800013d0:	10e00003 	beqz	a3,800013e0 <printbase+0x20>
800013d4:	00808025 	move	s0,a0
800013d8:	04800032 	bltz	a0,800014a4 <printbase+0xe4>
800013dc:	2404002d 	li	a0,45
800013e0:	12000038 	beqz	s0,800014c4 <printbase+0x104>
800013e4:	27a20010 	addiu	v0,sp,16
800013e8:	24070001 	li	a3,1
800013ec:	00e23823 	subu	a3,a3,v0
800013f0:	14c00002 	bnez	a2,800013fc <printbase+0x3c>
800013f4:	0206001b 	divu	zero,s0,a2
800013f8:	0007000d 	break	0x7
800013fc:	00e28821 	addu	s1,a3,v0
80001400:	0206202b 	sltu	a0,s0,a2
80001404:	24420001 	addiu	v0,v0,1
80001408:	00001810 	mfhi	v1
8000140c:	00008012 	mflo	s0
80001410:	1080fff7 	beqz	a0,800013f0 <printbase+0x30>
80001414:	a043ffff 	sb	v1,-1(v0)
80001418:	00b1102a 	slt	v0,a1,s1
8000141c:	1440001f 	bnez	v0,8000149c <printbase+0xdc>
80001420:	00000000 	nop
80001424:	1000000b 	b	80001454 <printbase+0x94>
80001428:	00a08025 	move	s0,a1
8000142c:	8064ffff 	lb	a0,-1(v1)
80001430:	00000000 	nop
80001434:	2882000a 	slti	v0,a0,10
80001438:	10400016 	beqz	v0,80001494 <printbase+0xd4>
8000143c:	00000000 	nop
80001440:	24840030 	addiu	a0,a0,48
80001444:	0c0003a4 	jal	80000e90 <putchar>
80001448:	2610ffff 	addiu	s0,s0,-1
8000144c:	1200000b 	beqz	s0,8000147c <printbase+0xbc>
80001450:	00000000 	nop
80001454:	27a20010 	addiu	v0,sp,16
80001458:	00501821 	addu	v1,v0,s0
8000145c:	0230102a 	slt	v0,s1,s0
80001460:	1040fff2 	beqz	v0,8000142c <printbase+0x6c>
80001464:	00000000 	nop
80001468:	2610ffff 	addiu	s0,s0,-1
8000146c:	0c0003a4 	jal	80000e90 <putchar>
80001470:	24040030 	li	a0,48
80001474:	1600fff8 	bnez	s0,80001458 <printbase+0x98>
80001478:	27a20010 	addiu	v0,sp,16
8000147c:	8fbf005c 	lw	ra,92(sp)
80001480:	8fb10058 	lw	s1,88(sp)
80001484:	8fb00054 	lw	s0,84(sp)
80001488:	00001025 	move	v0,zero
8000148c:	03e00008 	jr	ra
80001490:	27bd0060 	addiu	sp,sp,96
80001494:	1000ffeb 	b	80001444 <printbase+0x84>
80001498:	24840057 	addiu	a0,a0,87
8000149c:	1000ffe1 	b	80001424 <printbase+0x64>
800014a0:	02202825 	move	a1,s1
800014a4:	afa60068 	sw	a2,104(sp)
800014a8:	afa50064 	sw	a1,100(sp)
800014ac:	0c0003a4 	jal	80000e90 <putchar>
800014b0:	00108023 	negu	s0,s0
800014b4:	8fa50064 	lw	a1,100(sp)
800014b8:	8fa60068 	lw	a2,104(sp)
800014bc:	1000ffca 	b	800013e8 <printbase+0x28>
800014c0:	27a20010 	addiu	v0,sp,16
800014c4:	18a0ffed 	blez	a1,8000147c <printbase+0xbc>
800014c8:	00008825 	move	s1,zero
800014cc:	1000ffe1 	b	80001454 <printbase+0x94>
800014d0:	00a08025 	move	s0,a1
	...
800014e0:	6f727245 	0x6f727245
800014e4:	6f632072 	0x6f632072
800014e8:	3a746e75 	xori	s4,s3,0x6e75
800014ec:	0a642520 	j	89909480 <_stack+0x98064a0>
800014f0:	00000000 	nop
800014f4:	656d6954 	0x656d6954
800014f8:	7525203a 	jalx	849480e8 <_stack+0x4845108>
800014fc:	63796320 	0x63796320
80001500:	2c73656c 	sltiu	s3,v1,25964
80001504:	20752520 	addi	s5,v1,9504
80001508:	00007375 	0x7375
8000150c:	00626261 	0x626261
80001510:	00756f79 	0x756f79
80001514:	00746f6e 	0x746f6e
80001518:	00007469 	0x7469
8000151c:	00646164 	0x646164
80001520:	006f6f79 	0x6f6f79
80001524:	006f6f68 	0x6f6f68
80001528:	0000686f 	0x686f
8000152c:	00007878 	0x7878
80001530:	00000078 	0x78
80001534:	6c656966 	0x6c656966
80001538:	00000064 	0x64
8000153c:	0077656e 	0x77656e
80001540:	00776f72 	0x776f72
80001544:	69676572 	0x69676572
80001548:	0000656d 	0x656d
8000154c:	6d6f6f62 	0x6d6f6f62
80001550:	00000000 	nop
80001554:	74616874 	jalx	8185a1d0 <_stack+0x17571f0>
80001558:	00000000 	nop
8000155c:	61706d69 	0x61706d69
80001560:	00007463 	0x7463
80001564:	00646e61 	0x646e61
80001568:	6d6f6f7a 	0x6d6f6f7a
8000156c:	00000000 	nop
80001570:	74786574 	jalx	81e195d0 <_stack+0x1d165f0>
80001574:	00657275 	0x657275
80001578:	6e67616d 	0x6e67616d
8000157c:	00007465 	0x7465
80001580:	6d6f6f64 	0x6d6f6f64
80001584:	00000000 	nop
80001588:	6d6f6f6c 	0x6d6f6f6c
8000158c:	00000000 	nop
80001590:	71657266 	0x71657266
80001594:	00000000 	nop
80001598:	72727563 	0x72727563
8000159c:	00746e65 	0x746e65
800015a0:	73616870 	0x73616870
800015a4:	00000065 	0x65
800015a8:	67616d69 	0x67616d69
800015ac:	00007365 	0x7365
800015b0:	65707061 	0x65707061
800015b4:	00737261 	0x737261
800015b8:	646e6f63 	0x646e6f63
800015bc:	6f746375 	0x6f746375
800015c0:	00000072 	0x72
800015c4:	65766177 	0x65766177
800015c8:	0000007a 	0x7a
800015cc:	65657266 	0x65657266
800015d0:	00000000 	nop
800015d4:	6d726574 	0x6d726574
800015d8:	00006465 	0x6465
800015dc:	766f7270 	jalx	89bdc9c0 <_stack+0x9ad99e0>
800015e0:	00656469 	0x656469
800015e4:	00726f66 	0x726f66
800015e8:	75727473 	jalx	85c9d1cc <_stack+0x5b9a1ec>
800015ec:	00007463 	0x7463
800015f0:	756f6261 	jalx	85bd8984 <_stack+0x5ad59a4>
800015f4:	00000074 	0x74
800015f8:	65766168 	0x65766168
800015fc:	00000000 	nop
80001600:	706f7270 	0x706f7270
80001604:	00007265 	0x7265
80001608:	6f766e69 	0x6f766e69
8000160c:	0065766c 	0x65766c
80001610:	63736564 	0x63736564
80001614:	65626972 	0x65626972
80001618:	00796c64 	0x796c64
8000161c:	74616874 	jalx	8185a1d0 <_stack+0x17571f0>
80001620:	00000073 	0x73
80001624:	63617073 	0x63617073
80001628:	00007365 	0x7365
8000162c:	63726963 	0x63726963
80001630:	74736d75 	jalx	81cdb5d4 <_stack+0x1bd85f4>
80001634:	65636e61 	0x65636e61
80001638:	00000000 	nop
8000163c:	00656874 	0x656874
80001640:	626d656d 	0x626d656d
80001644:	00007265 	0x7265
80001648:	68637573 	0x68637573
8000164c:	00000000 	nop
80001650:	64697567 	0x64697567
80001654:	00000065 	0x65
80001658:	61676572 	0x61676572
8000165c:	00006472 	0x6472
80001660:	6966666f 	0x6966666f
80001664:	73726563 	0x73726563
80001668:	00000000 	nop
8000166c:	6c706d69 	0x6c706d69
80001670:	6e656d65 	0x6e656d65
80001674:	00000074 	0x74
80001678:	6e697270 	0x6e697270
8000167c:	61706963 	0x61706963
80001680:	6974696c 	0x6974696c
80001684:	00007365 	0x7365
80001688:	62626163 	0x62626163
8000168c:	00006569 	0x6569
80001690:	72756f79 	0x72756f79
80001694:	00000000 	nop
80001698:	69207449 	0x69207449
8000169c:	74276e73 	jalx	809db9cc <_stack+0x8d89ec>
800016a0:	72656820 	0x72656820
800016a4:	00000065 	0x65
800016a8:	20747542 	addi	s4,v1,30018
800016ac:	69207469 	0x69207469
800016b0:	65682073 	0x65682073
800016b4:	00006572 	0x6572
800016b8:	61646f68 	0x61646f68
800016bc:	00000064 	0x64
800016c0:	686f6f79 	0x686f6f79
800016c4:	00006f6f 	0x6f6f
800016c8:	0000002e 	0x2e
800016cc:	72206e49 	0x72206e49
800016d0:	6e656365 	0x6e656365
800016d4:	65792074 	0x65792074
800016d8:	2c737261 	sltiu	s3,v1,29281
800016dc:	65687420 	0x65687420
800016e0:	65696620 	0x65696620
800016e4:	6f20646c 	0x6f20646c
800016e8:	68702066 	0x68702066
800016ec:	6e6f746f 	0x6e6f746f
800016f0:	00206369 	0x206369
800016f4:	73797263 	0x73797263
800016f8:	736c6174 	0x736c6174
800016fc:	73616820 	0x73616820
80001700:	756f6620 	jalx	85bd9880 <_stack+0x5ad68a0>
80001704:	6e20646e 	0x6e20646e
80001708:	00007765 	0x7765
8000170c:	6c707061 	0x6c707061
80001710:	74616369 	jalx	81858da4 <_stack+0x1755dc4>
80001714:	736e6f69 	0x736e6f69
80001718:	206e6920 	addi	t6,v1,26912
8000171c:	20656874 	addi	a1,v1,26740
80001720:	61204652 	0x61204652
80001724:	6d20646e 	0x6d20646e
80001728:	6f726369 	0x6f726369
8000172c:	65766177 	0x65766177
80001730:	00000000 	nop
80001734:	69676572 	0x69676572
80001738:	202e656d 	addi	t6,at,25965
8000173c:	656e2041 	0x656e2041
80001740:	79742077 	0x79742077
80001744:	6f206570 	0x6f206570
80001748:	656d2066 	0x656d2066
8000174c:	6c6c6174 	0x6c6c6174
80001750:	00006369 	0x6369
80001754:	63656c65 	0x63656c65
80001758:	6d6f7274 	0x6d6f7274
8000175c:	656e6761 	0x656e6761
80001760:	20636974 	addi	v1,v1,26996
80001764:	73797263 	0x73797263
80001768:	206c6174 	addi	t4,v1,24948
8000176c:	20736168 	addi	s3,v1,24936
80001770:	6e656562 	0x6e656562
80001774:	00000000 	nop
80001778:	65766564 	0x65766564
8000177c:	65706f6c 	0x65706f6c
80001780:	68742064 	0x68742064
80001784:	69207461 	0x69207461
80001788:	61682073 	0x61682073
8000178c:	676e6976 	0x676e6976
80001790:	00006120 	0x6120
80001794:	6e676973 	0x6e676973
80001798:	63696669 	0x63696669
8000179c:	20746e61 	addi	s4,v1,28257
800017a0:	61706d69 	0x61706d69
800017a4:	6f207463 	0x6f207463
800017a8:	6874206e 	0x6874206e
800017ac:	69662065 	0x69662065
800017b0:	20646c65 	addi	a0,v1,27749
800017b4:	0000666f 	0x666f
800017b8:	65746e61 	0x65746e61
800017bc:	73616e6e 	0x73616e6e
800017c0:	7449202e 	jalx	812480b8 <_stack+0x11450d8>
800017c4:	6e6f6320 	0x6e6f6320
800017c8:	74736973 	jalx	81cda5cc <_stack+0x1bd75ec>
800017cc:	666f2073 	0x666f2073
800017d0:	00006120 	0x6120
800017d4:	646e6f63 	0x646e6f63
800017d8:	69746375 	0x69746375
800017dc:	73206576 	0x73206576
800017e0:	61667275 	0x61667275
800017e4:	202c6563 	addi	t4,at,25955
800017e8:	65766f63 	0x65766f63
800017ec:	20646572 	addi	a0,v1,25970
800017f0:	68746977 	0x68746977
800017f4:	00006120 	0x6120
800017f8:	63657073 	0x63657073
800017fc:	206c6169 	addi	t4,v1,24937
80001800:	74786574 	jalx	81e195d0 <_stack+0x1d165f0>
80001804:	20657275 	addi	a1,v1,29301
80001808:	63696877 	0x63696877
8000180c:	6c612068 	0x6c612068
80001810:	73726574 	0x73726574
80001814:	73746920 	0x73746920
80001818:	00000000 	nop
8000181c:	63656c65 	0x63656c65
80001820:	6d6f7274 	0x6d6f7274
80001824:	656e6761 	0x656e6761
80001828:	20636974 	addi	v1,v1,26996
8000182c:	706f7270 	0x706f7270
80001830:	69747265 	0x69747265
80001834:	202e7365 	addi	t6,at,29541
80001838:	6564614d 	0x6564614d
8000183c:	20666f20 	addi	a2,v1,28448
80001840:	696c6f73 	0x696c6f73
80001844:	00000064 	0x64
80001848:	6174656d 	0x6174656d
8000184c:	74202c6c 	jalx	8080b1b0 <_stack+0x7081d0>
80001850:	73206568 	0x73206568
80001854:	63757274 	0x63757274
80001858:	65727574 	0x65727574
8000185c:	00000000 	nop
80001860:	646e6f63 	0x646e6f63
80001864:	73746375 	0x73746375
80001868:	20434420 	addi	v1,v0,17440
8000186c:	72727563 	0x72727563
80001870:	73746e65 	0x73746e65
80001874:	7562202c 	jalx	858880b0 <_stack+0x57850d0>
80001878:	766f2074 	jalx	89bc81d0 <_stack+0x9ac51f0>
8000187c:	61207265 	0x61207265
80001880:	00000000 	nop
80001884:	74726170 	jalx	81c985c0 <_stack+0x1b955e0>
80001888:	6c756369 	0x6c756369
8000188c:	66207261 	0x66207261
80001890:	75716572 	jalx	85c595c8 <_stack+0x5b565e8>
80001894:	79636e65 	0x79636e65
80001898:	6e617220 	0x6e617220
8000189c:	69206567 	0x69206567
800018a0:	6f642074 	0x6f642074
800018a4:	00007365 	0x7365
800018a8:	20746f6e 	addi	s4,v1,28526
800018ac:	646e6f63 	0x646e6f63
800018b0:	20746375 	addi	s4,v1,25461
800018b4:	63204341 	0x63204341
800018b8:	65727275 	0x65727275
800018bc:	2e73746e 	sltiu	s3,s3,29806
800018c0:	20744920 	addi	s4,v1,18720
800018c4:	73656f64 	0x73656f64
800018c8:	746f6e20 	jalx	81bdb880 <_stack+0x1ad88a0>
800018cc:	00000000 	nop
800018d0:	65766572 	0x65766572
800018d4:	20657372 	addi	a1,v1,29554
800018d8:	20656874 	addi	a1,v1,26740
800018dc:	73616870 	0x73616870
800018e0:	666f2065 	0x666f2065
800018e4:	66657220 	0x66657220
800018e8:	7463656c 	jalx	818d95b0 <_stack+0x17d65d0>
800018ec:	00006465 	0x6465
800018f0:	65766177 	0x65766177
800018f4:	61202c73 	0x61202c73
800018f8:	7420646e 	jalx	808191b8 <_stack+0x7161d8>
800018fc:	65206568 	0x65206568
80001900:	63656666 	0x63656666
80001904:	65766974 	0x65766974
80001908:	616d6920 	0x616d6920
8000190c:	63206567 	0x63206567
80001910:	65727275 	0x65727275
80001914:	0073746e 	0x73746e
80001918:	65707061 	0x65707061
8000191c:	69207261 	0x69207261
80001920:	68702d6e 	0x68702d6e
80001924:	2c657361 	sltiu	a1,v1,29537
80001928:	74617220 	jalx	8185c880 <_stack+0x17598a0>
8000192c:	20726568 	addi	s2,v1,25960
80001930:	6e616874 	0x6e616874
80001934:	00000000 	nop
80001938:	2d74756f 	sltiu	s4,t3,30063
8000193c:	702d666f 	0x702d666f
80001940:	65736168 	0x65736168
80001944:	20736120 	addi	s3,v1,24864
80001948:	79656874 	0x79656874
8000194c:	65726120 	0x65726120
80001950:	206e6f20 	addi	t6,v1,28448
80001954:	6d726f6e 	0x6d726f6e
80001958:	00006c61 	0x6c61
8000195c:	646e6f63 	0x646e6f63
80001960:	6f746375 	0x6f746375
80001964:	202e7372 	addi	t6,at,29554
80001968:	74727546 	jalx	81c9d518 <_stack+0x1b9a538>
8000196c:	6d726568 	0x6d726568
80001970:	2c65726f 	sltiu	a1,v1,29295
80001974:	72757320 	0x72757320
80001978:	65636166 	0x65636166
8000197c:	00000000 	nop
80001980:	65766177 	0x65766177
80001984:	6f642073 	0x6f642073
80001988:	746f6e20 	jalx	81bdb880 <_stack+0x1ad88a0>
8000198c:	6f727020 	0x6f727020
80001990:	61676170 	0x61676170
80001994:	202c6574 	addi	t4,at,25972
80001998:	20646e61 	addi	a0,v1,28257
8000199c:	74736e69 	jalx	81cdb9a4 <_stack+0x1bd89c4>
800019a0:	00646165 	0x646165
800019a4:	69646172 	0x69646172
800019a8:	20657461 	addi	a1,v1,29793
800019ac:	69666665 	0x69666665
800019b0:	6e656963 	0x6e656963
800019b4:	20796c74 	addi	t9,v1,27764
800019b8:	6f746e69 	0x6f746e69
800019bc:	65726620 	0x65726620
800019c0:	00000065 	0x65
800019c4:	63617073 	0x63617073
800019c8:	54202e65 	0x54202e65
800019cc:	20736968 	addi	s3,v1,26984
800019d0:	2077656e 	addi	s7,v1,25966
800019d4:	6574616d 	0x6574616d
800019d8:	6c616972 	0x6c616972
800019dc:	6574202c 	0x6574202c
800019e0:	64656d72 	0x64656d72
800019e4:	00006120 	0x6120
800019e8:	68676968 	0x68676968
800019ec:	706d692d 	0x706d692d
800019f0:	6e616465 	0x6e616465
800019f4:	73206563 	0x73206563
800019f8:	61667275 	0x61667275
800019fc:	202c6563 	addi	t4,at,25955
80001a00:	766f7270 	jalx	89bdc9c0 <_stack+0x9ad99e0>
80001a04:	73656469 	0x73656469
80001a08:	00000000 	nop
80001a0c:	73752061 	0x73752061
80001a10:	6c756665 	0x6c756665
80001a14:	77656e20 	jalx	8d95b880 <_stack+0xd8588a0>
80001a18:	6f726720 	0x6f726720
80001a1c:	20646e75 	addi	a0,v1,28277
80001a20:	6e616c70 	0x6e616c70
80001a24:	6f662065 	0x6f662065
80001a28:	6f6e2072 	0x6f6e2072
80001a2c:	006c6576 	0x6c6576
80001a30:	2d776f6c 	sltiu	s7,t3,28524
80001a34:	666f7270 	0x666f7270
80001a38:	20656c69 	addi	a1,v1,27753
80001a3c:	65746e61 	0x65746e61
80001a40:	73616e6e 	0x73616e6e
80001a44:	646e6120 	0x646e6120
80001a48:	68746f20 	0x68746f20
80001a4c:	00007265 	0x7265
80001a50:	63656c65 	0x63656c65
80001a54:	6d6f7274 	0x6d6f7274
80001a58:	656e6761 	0x656e6761
80001a5c:	20636974 	addi	v1,v1,26996
80001a60:	75727473 	jalx	85c9d1cc <_stack+0x5b9a1ec>
80001a64:	72757463 	0x72757463
80001a68:	002e7365 	0x2e7365
80001a6c:	20656854 	addi	a1,v1,26708
80001a70:	65636572 	0x65636572
80001a74:	7020746e 	0x7020746e
80001a78:	65746f72 	0x65746f72
80001a7c:	20737473 	addi	s3,v1,29811
80001a80:	756f6261 	jalx	85bd8984 <_stack+0x5ad59a4>
80001a84:	68742074 	0x68742074
80001a88:	694d2065 	0x694d2065
80001a8c:	67696863 	0x67696863
80001a90:	61756d61 	0x61756d61
80001a94:	00000000 	nop
80001a98:	64757473 	0x64757473
80001a9c:	20746e65 	addi	s4,v1,28261
80001aa0:	6167726f 	0x6167726f
80001aa4:	617a696e 	0x617a696e
80001aa8:	6e6f6974 	0x6e6f6974
80001aac:	76616820 	jalx	8985a080 <_stack+0x97570a0>
80001ab0:	61722065 	0x61722065
80001ab4:	64657369 	0x64657369
80001ab8:	006e6120 	0x6e6120
80001abc:	6f706d69 	0x6f706d69
80001ac0:	6e617472 	0x6e617472
80001ac4:	75712074 	jalx	85c481d0 <_stack+0x5b451f0>
80001ac8:	69747365 	0x69747365
80001acc:	61206e6f 	0x61206e6f
80001ad0:	6f742073 	0x6f742073
80001ad4:	65687420 	0x65687420
80001ad8:	6f727020 	0x6f727020
80001adc:	20726570 	addi	s2,v1,25968
80001ae0:	7574616e 	jalx	85d185b8 <_stack+0x5c155d8>
80001ae4:	00006572 	0x6572
80001ae8:	20646e61 	addi	a0,v1,28257
80001aec:	706f6373 	0x706f6373
80001af0:	666f2065 	0x666f2065
80001af4:	696e5520 	0x696e5520
80001af8:	73726576 	0x73726576
80001afc:	20797469 	addi	t9,v1,29801
80001b00:	6f766e69 	0x6f766e69
80001b04:	6d65766c 	0x6d65766c
80001b08:	00746e65 	0x746e65
80001b0c:	68746977 	0x68746977
80001b10:	75747320 	jalx	85d1cc80 <_stack+0x5c19ca0>
80001b14:	746e6564 	jalx	81b99590 <_stack+0x1a965b0>
80001b18:	67726f20 	0x67726f20
80001b1c:	7a696e61 	0x7a696e61
80001b20:	6f697461 	0x6f697461
80001b24:	202e736e 	addi	t6,at,29550
80001b28:	6f636341 	0x6f636341
80001b2c:	6e696472 	0x6e696472
80001b30:	00796c67 	0x796c67
80001b34:	20656874 	addi	a1,v1,26740
80001b38:	656e6170 	0x656e6170
80001b3c:	6564206c 	0x6564206c
80001b40:	69726373 	0x69726373
80001b44:	20646562 	addi	a0,v1,25954
80001b48:	6d206e69 	0x6d206e69
80001b4c:	74532079 	jalx	814c81e4 <_stack+0x13c5204>
80001b50:	6d657461 	0x6d657461
80001b54:	20746e65 	addi	s4,v1,28261
80001b58:	0000666f 	0x666f
80001b5c:	72626546 	0x72626546
80001b60:	79726175 	0x79726175
80001b64:	2c353220 	sltiu	s5,at,12832
80001b68:	30303220 	andi	s0,at,0x3220
80001b6c:	68742030 	0x68742030
80001b70:	69207461 	0x69207461
80001b74:	6f632073 	0x6f632073
80001b78:	6469736e 	0x6469736e
80001b7c:	6e697265 	0x6e697265
80001b80:	68742067 	0x68742067
80001b84:	00000065 	0x65
80001b88:	73657571 	0x73657571
80001b8c:	6e6f6974 	0x6e6f6974
80001b90:	20666f20 	addi	a2,v1,28448
80001b94:	76697270 	jalx	89a5c9c0 <_stack+0x99599e0>
80001b98:	67656c69 	0x67656c69
80001b9c:	73206465 	0x73206465
80001ba0:	65636170 	0x65636170
80001ba4:	736c6120 	0x736c6120
80001ba8:	6977206f 	0x6977206f
80001bac:	00006c6c 	0x6c6c
80001bb0:	736e6f63 	0x736e6f63
80001bb4:	72656469 	0x72656469
80001bb8:	646e7520 	0x646e7520
80001bbc:	77207265 	jalx	8c81c994 <_stack+0xc7199b4>
80001bc0:	20746168 	addi	s4,v1,24936
80001bc4:	63726963 	0x63726963
80001bc8:	74736d75 	jalx	81cdb5d4 <_stack+0x1bd85f4>
80001bcc:	65636e61 	0x65636e61
80001bd0:	6e612073 	0x6e612073
80001bd4:	6e692064 	0x6e692064
80001bd8:	00000000 	nop
80001bdc:	74616877 	jalx	8185a1dc <_stack+0x17571fc>
80001be0:	79617720 	0x79617720
80001be4:	68742073 	0x68742073
80001be8:	6e552065 	0x6e552065
80001bec:	72657669 	0x72657669
80001bf0:	79746973 	0x79746973
80001bf4:	7469202c 	jalx	81a480b0 <_stack+0x19450d0>
80001bf8:	00000073 	0x73
80001bfc:	696d6461 	0x696d6461
80001c00:	7473696e 	jalx	81cda5b8 <_stack+0x1bd75d8>
80001c04:	6f746172 	0x6f746172
80001c08:	61207372 	0x61207372
80001c0c:	6620646e 	0x6620646e
80001c10:	6c756361 	0x6c756361
80001c14:	6d207974 	0x6d207974
80001c18:	65626d65 	0x65626d65
80001c1c:	73207372 	0x73207372
80001c20:	6c756f68 	0x6c756f68
80001c24:	00000064 	0x64
80001c28:	61206562 	0x61206562
80001c2c:	636f7373 	0x636f7373
80001c30:	65746169 	0x65746169
80001c34:	69772064 	0x69772064
80001c38:	73206874 	0x73206874
80001c3c:	20686375 	addi	t0,v1,25461
80001c40:	6167726f 	0x6167726f
80001c44:	617a696e 	0x617a696e
80001c48:	6e6f6974 	0x6e6f6974
80001c4c:	00000073 	0x73
80001c50:	20646e61 	addi	a0,v1,28257
80001c54:	77207469 	jalx	8c81d1a4 <_stack+0xc71a1c4>
80001c58:	206c6c69 	addi	t4,v1,27753
80001c5c:	6f636572 	0x6f636572
80001c60:	6e656d6d 	0x6e656d6d
80001c64:	75672064 	jalx	859c8190 <_stack+0x58c51b0>
80001c68:	6e696469 	0x6e696469
80001c6c:	72702067 	0x72702067
80001c70:	69636e69 	0x69636e69
80001c74:	73656c70 	0x73656c70
80001c78:	00000000 	nop
80001c7c:	74206e69 	jalx	8081b9a4 <_stack+0x7189c4>
80001c80:	20736968 	addi	s3,v1,26984
80001c84:	61676572 	0x61676572
80001c88:	202e6472 	addi	t6,at,25714
80001c8c:	20656854 	addi	a1,v1,26708
80001c90:	76696e55 	jalx	89a5b954 <_stack+0x9958974>
80001c94:	69737265 	0x69737265
80001c98:	73277974 	0x73277974
80001c9c:	00000000 	nop
80001ca0:	63657845 	0x63657845
80001ca4:	76697475 	jalx	89a5d1d4 <_stack+0x995a1f4>
80001ca8:	664f2065 	0x664f2065
80001cac:	65636966 	0x65636966
80001cb0:	61207372 	0x61207372
80001cb4:	4920646e 	0x4920646e
80001cb8:	6c697720 	0x6c697720
80001cbc:	6874206c 	0x6874206c
80001cc0:	64206e65 	0x64206e65
80001cc4:	64696365 	0x64696365
80001cc8:	00000065 	0x65
80001ccc:	74656877 	jalx	8195a1dc <_stack+0x18571fc>
80001cd0:	20726568 	addi	s2,v1,25960
80001cd4:	20646e61 	addi	a0,v1,28257
80001cd8:	20776f68 	addi	s7,v1,28520
80001cdc:	69206f74 	0x69206f74
80001ce0:	656c706d 	0x656c706d
80001ce4:	746e656d 	jalx	81b995b4 <_stack+0x1a965d4>
80001ce8:	63757320 	0x63757320
80001cec:	00000068 	0x68
80001cf0:	6e697270 	0x6e697270
80001cf4:	6c706963 	0x6c706963
80001cf8:	002e7365 	0x2e7365
80001cfc:	22732522 	addi	s3,s3,9506
80001d00:	25736920 	addiu	s3,t3,26912
80001d04:	6e692073 	0x6e692073
80001d08:	73252220 	0x73252220
80001d0c:	00000022 	neg	zero,zero
80001d10:	25225b20 	addiu	v0,t1,23328
80001d14:	005d2273 	0x5d2273
	...
80001d20:	8000150c 	lb	zero,5388(zero)
80001d24:	80001510 	lb	zero,5392(zero)
80001d28:	80001514 	lb	zero,5396(zero)
80001d2c:	80001518 	lb	zero,5400(zero)
80001d30:	8000151c 	lb	zero,5404(zero)
80001d34:	80001520 	lb	zero,5408(zero)
80001d38:	80001524 	lb	zero,5412(zero)
80001d3c:	800016c4 	lb	zero,5828(zero)
80001d40:	80001528 	lb	zero,5416(zero)
80001d44:	8000152c 	lb	zero,5420(zero)
80001d48:	8000152c 	lb	zero,5420(zero)
80001d4c:	80001530 	lb	zero,5424(zero)
80001d50:	80001530 	lb	zero,5424(zero)
80001d54:	80001534 	lb	zero,5428(zero)
80001d58:	8000153c 	lb	zero,5436(zero)
80001d5c:	80001540 	lb	zero,5440(zero)
80001d60:	80001544 	lb	zero,5444(zero)
80001d64:	8000154c 	lb	zero,5452(zero)
80001d68:	80001554 	lb	zero,5460(zero)
80001d6c:	8000155c 	lb	zero,5468(zero)
80001d70:	80001564 	lb	zero,5476(zero)
80001d74:	80001568 	lb	zero,5480(zero)
80001d78:	80001570 	lb	zero,5488(zero)
80001d7c:	80001578 	lb	zero,5496(zero)
80001d80:	80001580 	lb	zero,5504(zero)
80001d84:	80001588 	lb	zero,5512(zero)
80001d88:	80001590 	lb	zero,5520(zero)
80001d8c:	80001598 	lb	zero,5528(zero)
80001d90:	800015a0 	lb	zero,5536(zero)
80001d94:	800015a8 	lb	zero,5544(zero)
80001d98:	800015b0 	lb	zero,5552(zero)
80001d9c:	800015a0 	lb	zero,5536(zero)
80001da0:	800015b8 	lb	zero,5560(zero)
80001da4:	800015c4 	lb	zero,5572(zero)
80001da8:	80001954 	lb	zero,6484(zero)
80001dac:	800015cc 	lb	zero,5580(zero)
80001db0:	800015d4 	lb	zero,5588(zero)
80001db4:	800015dc 	lb	zero,5596(zero)
80001db8:	800015e4 	lb	zero,5604(zero)
80001dbc:	80001564 	lb	zero,5476(zero)
80001dc0:	800015e8 	lb	zero,5608(zero)
80001dc4:	800015f0 	lb	zero,5616(zero)
80001dc8:	800015f8 	lb	zero,5624(zero)
80001dcc:	80001600 	lb	zero,5632(zero)
80001dd0:	80001608 	lb	zero,5640(zero)
80001dd4:	80001610 	lb	zero,5648(zero)
80001dd8:	8000161c 	lb	zero,5660(zero)
80001ddc:	80001624 	lb	zero,5668(zero)
80001de0:	8000162c 	lb	zero,5676(zero)
80001de4:	8000163c 	lb	zero,5692(zero)
80001de8:	80001640 	lb	zero,5696(zero)
80001dec:	80001648 	lb	zero,5704(zero)
80001df0:	80001650 	lb	zero,5712(zero)
80001df4:	80001658 	lb	zero,5720(zero)
80001df8:	80001660 	lb	zero,5728(zero)
80001dfc:	8000166c 	lb	zero,5740(zero)
80001e00:	80001678 	lb	zero,5752(zero)
80001e04:	00000000 	nop
80001e08:	80001688 	lb	zero,5768(zero)
80001e0c:	80001690 	lb	zero,5776(zero)
80001e10:	80001698 	lb	zero,5784(zero)
80001e14:	800016a8 	lb	zero,5800(zero)
80001e18:	800016b8 	lb	zero,5816(zero)
80001e1c:	800016c0 	lb	zero,5824(zero)
80001e20:	800016c0 	lb	zero,5824(zero)
80001e24:	800016c0 	lb	zero,5824(zero)
80001e28:	800016c0 	lb	zero,5824(zero)
80001e2c:	800016c0 	lb	zero,5824(zero)
80001e30:	8000152c 	lb	zero,5420(zero)
80001e34:	80001530 	lb	zero,5424(zero)
80001e38:	800016c8 	lb	zero,5832(zero)
80001e3c:	800016cc 	lb	zero,5836(zero)
80001e40:	800016f4 	lb	zero,5876(zero)
80001e44:	8000170c 	lb	zero,5900(zero)
80001e48:	80001734 	lb	zero,5940(zero)
80001e4c:	80001754 	lb	zero,5972(zero)
80001e50:	80001778 	lb	zero,6008(zero)
80001e54:	80001794 	lb	zero,6036(zero)
80001e58:	800017b8 	lb	zero,6072(zero)
80001e5c:	800017d4 	lb	zero,6100(zero)
80001e60:	800017f8 	lb	zero,6136(zero)
80001e64:	8000181c 	lb	zero,6172(zero)
80001e68:	80001848 	lb	zero,6216(zero)
80001e6c:	80001860 	lb	zero,6240(zero)
80001e70:	80001884 	lb	zero,6276(zero)
80001e74:	800018a8 	lb	zero,6312(zero)
80001e78:	800018d0 	lb	zero,6352(zero)
80001e7c:	800018f0 	lb	zero,6384(zero)
80001e80:	80001918 	lb	zero,6424(zero)
80001e84:	80001938 	lb	zero,6456(zero)
80001e88:	8000195c 	lb	zero,6492(zero)
80001e8c:	80001980 	lb	zero,6528(zero)
80001e90:	800019a4 	lb	zero,6564(zero)
80001e94:	800019c4 	lb	zero,6596(zero)
80001e98:	800019e8 	lb	zero,6632(zero)
80001e9c:	80001a0c 	lb	zero,6668(zero)
80001ea0:	80001a30 	lb	zero,6704(zero)
80001ea4:	80001a50 	lb	zero,6736(zero)
80001ea8:	80001a6c 	lb	zero,6764(zero)
80001eac:	80001a98 	lb	zero,6808(zero)
80001eb0:	80001abc 	lb	zero,6844(zero)
80001eb4:	80001ae8 	lb	zero,6888(zero)
80001eb8:	80001b0c 	lb	zero,6924(zero)
80001ebc:	80001b34 	lb	zero,6964(zero)
80001ec0:	80001b5c 	lb	zero,7004(zero)
80001ec4:	80001b88 	lb	zero,7048(zero)
80001ec8:	80001bb0 	lb	zero,7088(zero)
80001ecc:	80001bdc 	lb	zero,7132(zero)
80001ed0:	80001bfc 	lb	zero,7164(zero)
80001ed4:	80001c28 	lb	zero,7208(zero)
80001ed8:	80001c50 	lb	zero,7248(zero)
80001edc:	80001c7c 	lb	zero,7292(zero)
80001ee0:	80001ca0 	lb	zero,7328(zero)
80001ee4:	80001ccc 	lb	zero,7372(zero)
80001ee8:	80001cf0 	lb	zero,7408(zero)
80001eec:	00000001 	0x1
80001ef0:	00000001 	0x1
80001ef4:	00000000 	nop
80001ef8:	00000001 	0x1
80001efc:	00000001 	0x1
80001f00:	00000001 	0x1
80001f04:	00000001 	0x1
80001f08:	00000001 	0x1
80001f0c:	00000001 	0x1
80001f10:	00000000 	nop
80001f14:	00000001 	0x1
80001f18:	00000001 	0x1
80001f1c:	00000000 	nop
80001f20:	00000001 	0x1
80001f24:	00000001 	0x1
80001f28:	00000001 	0x1
80001f2c:	00000001 	0x1
80001f30:	00000000 	nop
80001f34:	00000001 	0x1
80001f38:	00000001 	0x1
	...
80001f44:	00000001 	0x1
80001f48:	00000001 	0x1
	...
80001f54:	00000001 	0x1
80001f58:	00000001 	0x1
80001f5c:	00000001 	0x1
	...
80001f68:	00000001 	0x1
80001f6c:	00000001 	0x1
	...
80001fac:	00000001 	0x1
80001fb0:	00000001 	0x1
80001fb4:	00000001 	0x1
80001fb8:	00000001 	0x1
80001fbc:	00000000 	nop
80001fc0:	00000001 	0x1
80001fc4:	00000000 	nop
80001fc8:	00000001 	0x1
80001fcc:	00000000 	nop
80001fd0:	72656854 	0x72656854
80001fd4:	73692065 	0x73692065
80001fd8:	206e6120 	addi	t6,v1,24864
80001fdc:	65637865 	0x65637865
80001fe0:	6f697470 	0x6f697470
80001fe4:	0a21216e 	j	888485b8 <_stack+0x87455d8>
80001fe8:	00000000 	nop
80001fec:	20656854 	addi	a1,v1,26708
80001ff0:	20637065 	addi	v1,v1,28773
80001ff4:	25207369 	addiu	zero,t1,29545
80001ff8:	00000a78 	0xa78
80001ffc:	20656854 	addi	a1,v1,26708
80002000:	73756163 	0x73756163
80002004:	73692065 	0x73692065
80002008:	0a782520 	j	89e09480 <_stack+0x9d064a0>
8000200c:	00000000 	nop
80002010:	80000e7c 	lb	zero,3708(zero)
80002014:	80000d9c 	lb	zero,3484(zero)
80002018:	80000d9c 	lb	zero,3484(zero)
8000201c:	80000d9c 	lb	zero,3484(zero)
80002020:	80000d9c 	lb	zero,3484(zero)
80002024:	80000d9c 	lb	zero,3484(zero)
80002028:	80000d9c 	lb	zero,3484(zero)
8000202c:	80000d9c 	lb	zero,3484(zero)
80002030:	80000d9c 	lb	zero,3484(zero)
80002034:	80000d9c 	lb	zero,3484(zero)
80002038:	80000d9c 	lb	zero,3484(zero)
8000203c:	80000d38 	lb	zero,3384(zero)
80002040:	80000d44 	lb	zero,3396(zero)
80002044:	80000d44 	lb	zero,3396(zero)
80002048:	80000d44 	lb	zero,3396(zero)
8000204c:	80000d44 	lb	zero,3396(zero)
80002050:	80000d44 	lb	zero,3396(zero)
80002054:	80000d44 	lb	zero,3396(zero)
80002058:	80000d44 	lb	zero,3396(zero)
8000205c:	80000d44 	lb	zero,3396(zero)
80002060:	80000d44 	lb	zero,3396(zero)
80002064:	80000d9c 	lb	zero,3484(zero)
80002068:	80000d9c 	lb	zero,3484(zero)
8000206c:	80000d9c 	lb	zero,3484(zero)
80002070:	80000d9c 	lb	zero,3484(zero)
80002074:	80000d9c 	lb	zero,3484(zero)
80002078:	80000d9c 	lb	zero,3484(zero)
8000207c:	80000d9c 	lb	zero,3484(zero)
80002080:	80000d9c 	lb	zero,3484(zero)
80002084:	80000d9c 	lb	zero,3484(zero)
80002088:	80000d9c 	lb	zero,3484(zero)
8000208c:	80000d9c 	lb	zero,3484(zero)
80002090:	80000d9c 	lb	zero,3484(zero)
80002094:	80000d9c 	lb	zero,3484(zero)
80002098:	80000d9c 	lb	zero,3484(zero)
8000209c:	80000d9c 	lb	zero,3484(zero)
800020a0:	80000d9c 	lb	zero,3484(zero)
800020a4:	80000d9c 	lb	zero,3484(zero)
800020a8:	80000d9c 	lb	zero,3484(zero)
800020ac:	80000d9c 	lb	zero,3484(zero)
800020b0:	80000d9c 	lb	zero,3484(zero)
800020b4:	80000d9c 	lb	zero,3484(zero)
800020b8:	80000d9c 	lb	zero,3484(zero)
800020bc:	80000d9c 	lb	zero,3484(zero)
800020c0:	80000d9c 	lb	zero,3484(zero)
800020c4:	80000d9c 	lb	zero,3484(zero)
800020c8:	80000d9c 	lb	zero,3484(zero)
800020cc:	80000d9c 	lb	zero,3484(zero)
800020d0:	80000d9c 	lb	zero,3484(zero)
800020d4:	80000d9c 	lb	zero,3484(zero)
800020d8:	80000d9c 	lb	zero,3484(zero)
800020dc:	80000d9c 	lb	zero,3484(zero)
800020e0:	80000d9c 	lb	zero,3484(zero)
800020e4:	80000d9c 	lb	zero,3484(zero)
800020e8:	80000d9c 	lb	zero,3484(zero)
800020ec:	80000d9c 	lb	zero,3484(zero)
800020f0:	80000d9c 	lb	zero,3484(zero)
800020f4:	80000d9c 	lb	zero,3484(zero)
800020f8:	80000d9c 	lb	zero,3484(zero)
800020fc:	80000d9c 	lb	zero,3484(zero)
80002100:	80000d9c 	lb	zero,3484(zero)
80002104:	80000e0c 	lb	zero,3596(zero)
80002108:	80000ddc 	lb	zero,3548(zero)
8000210c:	80000df0 	lb	zero,3568(zero)
80002110:	80000d9c 	lb	zero,3484(zero)
80002114:	80000d9c 	lb	zero,3484(zero)
80002118:	80000d9c 	lb	zero,3484(zero)
8000211c:	80000d9c 	lb	zero,3484(zero)
80002120:	80000d9c 	lb	zero,3484(zero)
80002124:	80000d9c 	lb	zero,3484(zero)
80002128:	80000d9c 	lb	zero,3484(zero)
8000212c:	80000e44 	lb	zero,3652(zero)
80002130:	80000d9c 	lb	zero,3484(zero)
80002134:	80000d9c 	lb	zero,3484(zero)
80002138:	80000e60 	lb	zero,3680(zero)
8000213c:	80000dac 	lb	zero,3500(zero)
80002140:	80000d9c 	lb	zero,3484(zero)
80002144:	80000d9c 	lb	zero,3484(zero)
80002148:	80000dc8 	lb	zero,3528(zero)
8000214c:	80000d9c 	lb	zero,3484(zero)
80002150:	80000e28 	lb	zero,3624(zero)
80002154:	80000d9c 	lb	zero,3484(zero)
80002158:	80000d9c 	lb	zero,3484(zero)
8000215c:	80000dac 	lb	zero,3500(zero)
80002160:	636f6c63 	0x636f6c63
80002164:	736e206b 	0x736e206b
80002168:	2c64253d 	sltiu	a0,v1,9533
8000216c:	3d636573 	0x3d636573
80002170:	000a6425 	0xa6425
80002174:	b0000602 	0xb0000602
	...
80002190:	00010000 	sll	zero,at,0x0
80002194:	03000001 	0x3000001
	...
