
obj/stream_copy/main.elf:     file format elf32-tradlittlemips
obj/stream_copy/main.elf


Disassembly of section .text:

80000000 <_ftext>:
_ftext():
80000000:	3c0a0040 	lui	t2,0x40
80000004:	408a6000 	mtc0	t2,c0_sr
80000008:	40806800 	mtc0	zero,c0_cause
8000000c:	3c1d8010 	lui	sp,0x8010
80000010:	27bd0fe0 	addiu	sp,sp,4064
80000014:	3c1c8001 	lui	gp,0x8001
80000018:	279c9f90 	addiu	gp,gp,-24688
8000001c:	041100dc 	bal	80000390 <shell>
80000020:	00000000 	nop

80000024 <loop>:
loop():
80000024:	08000009 	j	80000024 <loop>

80000028 <exit>:
exit():
80000028:	340900ff 	li	t1,0xff
8000002c:	3c018000 	lui	at,0x8000
80000030:	a0297ffc 	sb	t1,32764(at)
	...
80000380:	0c000196 	jal	80000658 <exception>
80000384:	00000000 	nop
80000388:	0800000a 	j	80000028 <exit>
8000038c:	00000000 	nop

80000390 <shell>:
shell():
80000390:	27bdffd0 	addiu	sp,sp,-48
80000394:	afbf002c 	sw	ra,44(sp)
80000398:	afb40028 	sw	s4,40(sp)
8000039c:	afb30024 	sw	s3,36(sp)
800003a0:	afb20020 	sw	s2,32(sp)
800003a4:	afb1001c 	sw	s1,28(sp)
800003a8:	afb00018 	sw	s0,24(sp)
800003ac:	0c000284 	jal	80000a10 <get_count>
800003b0:	3c148000 	lui	s4,0x8000
800003b4:	3c108000 	lui	s0,0x8000
800003b8:	0c0002b5 	jal	80000ad4 <get_us>
800003bc:	00409025 	move	s2,v0
800003c0:	240603e8 	li	a2,1000
800003c4:	26851fa0 	addiu	a1,s4,8096
800003c8:	26041000 	addiu	a0,s0,4096
800003cc:	0c000140 	jal	80000500 <stream_copy>
800003d0:	00408825 	move	s1,v0
800003d4:	0c000284 	jal	80000a10 <get_count>
800003d8:	00000000 	nop
800003dc:	0c0002b5 	jal	80000ad4 <get_us>
800003e0:	00409825 	move	s3,v0
800003e4:	26831fa0 	addiu	v1,s4,8096
800003e8:	02722823 	subu	a1,s3,s2
800003ec:	00513023 	subu	a2,v0,s1
800003f0:	26041000 	addiu	a0,s0,4096
800003f4:	24690fa0 	addiu	t1,v1,4000
800003f8:	8c680000 	lw	t0,0(v1)
800003fc:	8c870000 	lw	a3,0(a0)
80000400:	00000000 	nop
80000404:	15070032 	bne	t0,a3,800004d0 <shell+0x140>
80000408:	00000000 	nop
8000040c:	8c620004 	lw	v0,4(v1)
80000410:	8c8a0004 	lw	t2,4(a0)
80000414:	00000000 	nop
80000418:	144a002d 	bne	v0,t2,800004d0 <shell+0x140>
8000041c:	00000000 	nop
80000420:	8c6b0008 	lw	t3,8(v1)
80000424:	8c8c0008 	lw	t4,8(a0)
80000428:	00000000 	nop
8000042c:	156c0028 	bne	t3,t4,800004d0 <shell+0x140>
80000430:	00000000 	nop
80000434:	8c6d000c 	lw	t5,12(v1)
80000438:	8c8e000c 	lw	t6,12(a0)
8000043c:	00000000 	nop
80000440:	15ae0023 	bne	t5,t6,800004d0 <shell+0x140>
80000444:	00000000 	nop
80000448:	8c6f0010 	lw	t7,16(v1)
8000044c:	8c980010 	lw	t8,16(a0)
80000450:	00000000 	nop
80000454:	15f8001e 	bne	t7,t8,800004d0 <shell+0x140>
80000458:	00000000 	nop
8000045c:	8c790014 	lw	t9,20(v1)
80000460:	8c9f0014 	lw	ra,20(a0)
80000464:	00000000 	nop
80000468:	173f0019 	bne	t9,ra,800004d0 <shell+0x140>
8000046c:	00000000 	nop
80000470:	8c720018 	lw	s2,24(v1)
80000474:	8c940018 	lw	s4,24(a0)
80000478:	00000000 	nop
8000047c:	16540014 	bne	s2,s4,800004d0 <shell+0x140>
80000480:	00000000 	nop
80000484:	8c70001c 	lw	s0,28(v1)
80000488:	8c91001c 	lw	s1,28(a0)
8000048c:	00000000 	nop
80000490:	1611000f 	bne	s0,s1,800004d0 <shell+0x140>
80000494:	24630020 	addiu	v1,v1,32
80000498:	1469ffd7 	bne	v1,t1,800003f8 <shell+0x68>
8000049c:	24840020 	addiu	a0,a0,32
800004a0:	3c138000 	lui	s3,0x8000
800004a4:	8fbf002c 	lw	ra,44(sp)
800004a8:	8fb40028 	lw	s4,40(sp)
800004ac:	8fb20020 	lw	s2,32(sp)
800004b0:	8fb1001c 	lw	s1,28(sp)
800004b4:	8fb00018 	lw	s0,24(sp)
800004b8:	26640c44 	addiu	a0,s3,3140
800004bc:	8fb30024 	lw	s3,36(sp)
800004c0:	080001a8 	j	800006a0 <printf>
800004c4:	27bd0030 	addiu	sp,sp,48
	...
800004d0:	afa50010 	sw	a1,16(sp)
800004d4:	3c058000 	lui	a1,0x8000
800004d8:	24a40c30 	addiu	a0,a1,3120
800004dc:	0c000272 	jal	800009c8 <puts>
800004e0:	afa60014 	sw	a2,20(sp)
800004e4:	8fa50010 	lw	a1,16(sp)
800004e8:	8fa60014 	lw	a2,20(sp)
800004ec:	1000ffed 	b	800004a4 <shell+0x114>
800004f0:	3c138000 	lui	s3,0x8000
	...

80000500 <stream_copy>:
stream_copy():
80000500:	18c00045 	blez	a2,80000618 <stream_copy+0x118>
80000504:	00063080 	sll	a2,a2,0x2
80000508:	24c2fffc 	addiu	v0,a2,-4
8000050c:	00021882 	srl	v1,v0,0x2
80000510:	24670001 	addiu	a3,v1,1
80000514:	30e80007 	andi	t0,a3,0x7
80000518:	11000027 	beqz	t0,800005b8 <stream_copy+0xb8>
8000051c:	00864821 	addu	t1,a0,a2
80000520:	240a0001 	li	t2,1
80000524:	110a001f 	beq	t0,t2,800005a4 <stream_copy+0xa4>
80000528:	240b0002 	li	t3,2
8000052c:	110b0019 	beq	t0,t3,80000594 <stream_copy+0x94>
80000530:	240c0003 	li	t4,3
80000534:	110c0013 	beq	t0,t4,80000584 <stream_copy+0x84>
80000538:	240d0004 	li	t5,4
8000053c:	110d000d 	beq	t0,t5,80000574 <stream_copy+0x74>
80000540:	240e0005 	li	t6,5
80000544:	110e0007 	beq	t0,t6,80000564 <stream_copy+0x64>
80000548:	240f0006 	li	t7,6
8000054c:	150f0034 	bne	t0,t7,80000620 <stream_copy+0x120>
80000550:	00000000 	nop
80000554:	8c990000 	lw	t9,0(a0)
80000558:	24a50004 	addiu	a1,a1,4
8000055c:	acb9fffc 	sw	t9,-4(a1)
80000560:	24840004 	addiu	a0,a0,4
80000564:	8c860000 	lw	a2,0(a0)
80000568:	24a50004 	addiu	a1,a1,4
8000056c:	aca6fffc 	sw	a2,-4(a1)
80000570:	24840004 	addiu	a0,a0,4
80000574:	8c820000 	lw	v0,0(a0)
80000578:	24a50004 	addiu	a1,a1,4
8000057c:	aca2fffc 	sw	v0,-4(a1)
80000580:	24840004 	addiu	a0,a0,4
80000584:	8c830000 	lw	v1,0(a0)
80000588:	24a50004 	addiu	a1,a1,4
8000058c:	aca3fffc 	sw	v1,-4(a1)
80000590:	24840004 	addiu	a0,a0,4
80000594:	8c870000 	lw	a3,0(a0)
80000598:	24a50004 	addiu	a1,a1,4
8000059c:	aca7fffc 	sw	a3,-4(a1)
800005a0:	24840004 	addiu	a0,a0,4
800005a4:	8c880000 	lw	t0,0(a0)
800005a8:	24840004 	addiu	a0,a0,4
800005ac:	aca80000 	sw	t0,0(a1)
800005b0:	10890019 	beq	a0,t1,80000618 <stream_copy+0x118>
800005b4:	24a50004 	addiu	a1,a1,4
800005b8:	8c8a0000 	lw	t2,0(a0)
800005bc:	24840020 	addiu	a0,a0,32
800005c0:	acaa0000 	sw	t2,0(a1)
800005c4:	8c8bffe4 	lw	t3,-28(a0)
800005c8:	24a50020 	addiu	a1,a1,32
800005cc:	acabffe4 	sw	t3,-28(a1)
800005d0:	8c8cffe8 	lw	t4,-24(a0)
800005d4:	00000000 	nop
800005d8:	acacffe8 	sw	t4,-24(a1)
800005dc:	8c8dffec 	lw	t5,-20(a0)
800005e0:	00000000 	nop
800005e4:	acadffec 	sw	t5,-20(a1)
800005e8:	8c8efff0 	lw	t6,-16(a0)
800005ec:	00000000 	nop
800005f0:	acaefff0 	sw	t6,-16(a1)
800005f4:	8c8ffff4 	lw	t7,-12(a0)
800005f8:	00000000 	nop
800005fc:	acaffff4 	sw	t7,-12(a1)
80000600:	8c98fff8 	lw	t8,-8(a0)
80000604:	00000000 	nop
80000608:	acb8fff8 	sw	t8,-8(a1)
8000060c:	8c99fffc 	lw	t9,-4(a0)
80000610:	1489ffe9 	bne	a0,t1,800005b8 <stream_copy+0xb8>
80000614:	acb9fffc 	sw	t9,-4(a1)
80000618:	03e00008 	jr	ra
8000061c:	00000000 	nop
80000620:	8c980000 	lw	t8,0(a0)
80000624:	24a50004 	addiu	a1,a1,4
80000628:	acb8fffc 	sw	t8,-4(a1)
8000062c:	1000ffc9 	b	80000554 <stream_copy+0x54>
80000630:	24840004 	addiu	a0,a0,4
	...

80000640 <get_epc>:
get_epc():
80000640:	40027000 	mfc0	v0,c0_epc
80000644:	03e00008 	jr	ra
80000648:	00000000 	nop

8000064c <get_cause>:
get_cause():
8000064c:	40026800 	mfc0	v0,c0_cause
80000650:	03e00008 	jr	ra
80000654:	00000000 	nop

80000658 <exception>:
exception():
80000658:	3c048000 	lui	a0,0x8000
8000065c:	27bdffe8 	addiu	sp,sp,-24
80000660:	afbf0014 	sw	ra,20(sp)
80000664:	0c0001a8 	jal	800006a0 <printf>
80000668:	24840c5c 	addiu	a0,a0,3164
8000066c:	3c048000 	lui	a0,0x8000
80000670:	24840c78 	addiu	a0,a0,3192
80000674:	40057000 	mfc0	a1,c0_epc
80000678:	0c0001a8 	jal	800006a0 <printf>
8000067c:	00000000 	nop
80000680:	8fbf0014 	lw	ra,20(sp)
80000684:	3c048000 	lui	a0,0x8000
80000688:	24840c88 	addiu	a0,a0,3208
8000068c:	27bd0018 	addiu	sp,sp,24
80000690:	40056800 	mfc0	a1,c0_cause
80000694:	080001a8 	j	800006a0 <printf>
80000698:	00000000 	nop
8000069c:	00000000 	nop

800006a0 <printf>:
printf():
800006a0:	27bdffd0 	addiu	sp,sp,-48
800006a4:	afb30024 	sw	s3,36(sp)
800006a8:	afbf002c 	sw	ra,44(sp)
800006ac:	afb40028 	sw	s4,40(sp)
800006b0:	afb20020 	sw	s2,32(sp)
800006b4:	afb1001c 	sw	s1,28(sp)
800006b8:	afb00018 	sw	s0,24(sp)
800006bc:	80900000 	lb	s0,0(a0)
800006c0:	27b30034 	addiu	s3,sp,52
800006c4:	afa50034 	sw	a1,52(sp)
800006c8:	afa60038 	sw	a2,56(sp)
800006cc:	afa7003c 	sw	a3,60(sp)
800006d0:	12000024 	beqz	s0,80000764 <printf+0xc4>
800006d4:	afb30010 	sw	s3,16(sp)
800006d8:	3c148000 	lui	s4,0x8000
800006dc:	00809025 	move	s2,a0
800006e0:	00008825 	move	s1,zero
800006e4:	10000009 	b	8000070c <printf+0x6c>
800006e8:	26940ca0 	addiu	s4,s4,3232
800006ec:	0c000238 	jal	800008e0 <putchar>
800006f0:	02002025 	move	a0,s0
800006f4:	26310001 	addiu	s1,s1,1
800006f8:	02511021 	addu	v0,s2,s1
800006fc:	80500000 	lb	s0,0(v0)
80000700:	00000000 	nop
80000704:	12000017 	beqz	s0,80000764 <printf+0xc4>
80000708:	00000000 	nop
8000070c:	24020025 	li	v0,37
80000710:	12020007 	beq	s0,v0,80000730 <printf+0x90>
80000714:	2402000a 	li	v0,10
80000718:	1602fff4 	bne	s0,v0,800006ec <printf+0x4c>
8000071c:	00000000 	nop
80000720:	0c000238 	jal	800008e0 <putchar>
80000724:	2404000d 	li	a0,13
80000728:	1000fff0 	b	800006ec <printf+0x4c>
8000072c:	00000000 	nop
80000730:	02511021 	addu	v0,s2,s1
80000734:	80440001 	lb	a0,1(v0)
80000738:	24050001 	li	a1,1
8000073c:	2482ffdb 	addiu	v0,a0,-37
80000740:	304200ff 	andi	v0,v0,0xff
80000744:	2c430054 	sltiu	v1,v0,84
80000748:	10600028 	beqz	v1,800007ec <printf+0x14c>
8000074c:	00021080 	sll	v0,v0,0x2
80000750:	02821021 	addu	v0,s4,v0
80000754:	8c420000 	lw	v0,0(v0)
80000758:	00000000 	nop
8000075c:	00400008 	jr	v0
80000760:	00000000 	nop
80000764:	8fbf002c 	lw	ra,44(sp)
80000768:	8fb40028 	lw	s4,40(sp)
8000076c:	8fb30024 	lw	s3,36(sp)
80000770:	8fb20020 	lw	s2,32(sp)
80000774:	8fb1001c 	lw	s1,28(sp)
80000778:	8fb00018 	lw	s0,24(sp)
8000077c:	00001025 	move	v0,zero
80000780:	03e00008 	jr	ra
80000784:	27bd0030 	addiu	sp,sp,48
80000788:	02511021 	addu	v0,s2,s1
8000078c:	80440002 	lb	a0,2(v0)
80000790:	26310001 	addiu	s1,s1,1
80000794:	2482ffcf 	addiu	v0,a0,-49
80000798:	304200ff 	andi	v0,v0,0xff
8000079c:	2c420009 	sltiu	v0,v0,9
800007a0:	1040ffe6 	beqz	v0,8000073c <printf+0x9c>
800007a4:	00002825 	move	a1,zero
800007a8:	26310001 	addiu	s1,s1,1
800007ac:	02511021 	addu	v0,s2,s1
800007b0:	2486ffd0 	addiu	a2,a0,-48
800007b4:	80440001 	lb	a0,1(v0)
800007b8:	00051880 	sll	v1,a1,0x2
800007bc:	2482ffcf 	addiu	v0,a0,-49
800007c0:	00652821 	addu	a1,v1,a1
800007c4:	304200ff 	andi	v0,v0,0xff
800007c8:	00052840 	sll	a1,a1,0x1
800007cc:	2c420009 	sltiu	v0,v0,9
800007d0:	1440fff5 	bnez	v0,800007a8 <printf+0x108>
800007d4:	00c52821 	addu	a1,a2,a1
800007d8:	2482ffdb 	addiu	v0,a0,-37
800007dc:	304200ff 	andi	v0,v0,0xff
800007e0:	2c430054 	sltiu	v1,v0,84
800007e4:	1460ffda 	bnez	v1,80000750 <printf+0xb0>
800007e8:	00021080 	sll	v0,v0,0x2
800007ec:	0c000238 	jal	800008e0 <putchar>
800007f0:	24040025 	li	a0,37
800007f4:	1000ffc0 	b	800006f8 <printf+0x58>
800007f8:	26310001 	addiu	s1,s1,1
800007fc:	8e640000 	lw	a0,0(s3)
80000800:	00003825 	move	a3,zero
80000804:	0c0002c4 	jal	80000b10 <printbase>
80000808:	24060010 	li	a2,16
8000080c:	26730004 	addiu	s3,s3,4
80000810:	1000ffb8 	b	800006f4 <printf+0x54>
80000814:	26310001 	addiu	s1,s1,1
80000818:	8e640000 	lw	a0,0(s3)
8000081c:	0c000250 	jal	80000940 <putstring>
80000820:	26310001 	addiu	s1,s1,1
80000824:	1000ffb3 	b	800006f4 <printf+0x54>
80000828:	26730004 	addiu	s3,s3,4
8000082c:	8e640000 	lw	a0,0(s3)
80000830:	0c000238 	jal	800008e0 <putchar>
80000834:	26310001 	addiu	s1,s1,1
80000838:	1000ffae 	b	800006f4 <printf+0x54>
8000083c:	26730004 	addiu	s3,s3,4
80000840:	8e640000 	lw	a0,0(s3)
80000844:	24070001 	li	a3,1
80000848:	0c0002c4 	jal	80000b10 <printbase>
8000084c:	2406000a 	li	a2,10
80000850:	26730004 	addiu	s3,s3,4
80000854:	1000ffa7 	b	800006f4 <printf+0x54>
80000858:	26310001 	addiu	s1,s1,1
8000085c:	8e640000 	lw	a0,0(s3)
80000860:	00003825 	move	a3,zero
80000864:	0c0002c4 	jal	80000b10 <printbase>
80000868:	24060002 	li	a2,2
8000086c:	26730004 	addiu	s3,s3,4
80000870:	1000ffa0 	b	800006f4 <printf+0x54>
80000874:	26310001 	addiu	s1,s1,1
80000878:	8e640000 	lw	a0,0(s3)
8000087c:	00003825 	move	a3,zero
80000880:	0c0002c4 	jal	80000b10 <printbase>
80000884:	2406000a 	li	a2,10
80000888:	26730004 	addiu	s3,s3,4
8000088c:	1000ff99 	b	800006f4 <printf+0x54>
80000890:	26310001 	addiu	s1,s1,1
80000894:	8e640000 	lw	a0,0(s3)
80000898:	00003825 	move	a3,zero
8000089c:	0c0002c4 	jal	80000b10 <printbase>
800008a0:	2406000a 	li	a2,10
800008a4:	26730004 	addiu	s3,s3,4
800008a8:	1000ff92 	b	800006f4 <printf+0x54>
800008ac:	26310002 	addiu	s1,s1,2
800008b0:	8e640000 	lw	a0,0(s3)
800008b4:	00003825 	move	a3,zero
800008b8:	0c0002c4 	jal	80000b10 <printbase>
800008bc:	24060008 	li	a2,8
800008c0:	26730004 	addiu	s3,s3,4
800008c4:	1000ff8b 	b	800006f4 <printf+0x54>
800008c8:	26310001 	addiu	s1,s1,1
800008cc:	0c000238 	jal	800008e0 <putchar>
800008d0:	24040025 	li	a0,37
800008d4:	1000ff87 	b	800006f4 <printf+0x54>
800008d8:	26310001 	addiu	s1,s1,1
800008dc:	00000000 	nop

800008e0 <putchar>:
putchar():
800008e0:	3c03a300 	lui	v1,0xa300
800008e4:	8c620000 	lw	v0,0(v1)
800008e8:	00000000 	nop
800008ec:	30420001 	andi	v0,v0,0x1
800008f0:	1040fffc 	beqz	v0,800008e4 <putchar+0x4>
800008f4:	00000000 	nop
800008f8:	10800002 	beqz	a0,80000904 <putchar+0x24>
800008fc:	00000000 	nop
80000900:	ac640004 	sw	a0,4(v1)
80000904:	03e00008 	jr	ra
80000908:	00001025 	move	v0,zero

8000090c <tgt_putchar>:
tgt_putchar():
8000090c:	3c03a300 	lui	v1,0xa300
80000910:	8c620000 	lw	v0,0(v1)
80000914:	00000000 	nop
80000918:	30420001 	andi	v0,v0,0x1
8000091c:	1040fffc 	beqz	v0,80000910 <tgt_putchar+0x4>
80000920:	00000000 	nop
80000924:	10800002 	beqz	a0,80000930 <tgt_putchar+0x24>
80000928:	00000000 	nop
8000092c:	ac640004 	sw	a0,4(v1)
80000930:	03e00008 	jr	ra
80000934:	00000000 	nop
	...

80000940 <putstring>:
putstring():
80000940:	27bdffe0 	addiu	sp,sp,-32
80000944:	afbf001c 	sw	ra,28(sp)
80000948:	afb20018 	sw	s2,24(sp)
8000094c:	afb10014 	sw	s1,20(sp)
80000950:	afb00010 	sw	s0,16(sp)
80000954:	80900000 	lb	s0,0(a0)
80000958:	00000000 	nop
8000095c:	12000013 	beqz	s0,800009ac <putstring+0x6c>
80000960:	00808825 	move	s1,a0
80000964:	10000007 	b	80000984 <putstring+0x44>
80000968:	2412000a 	li	s2,10
8000096c:	0c000238 	jal	800008e0 <putchar>
80000970:	02002025 	move	a0,s0
80000974:	82300000 	lb	s0,0(s1)
80000978:	00000000 	nop
8000097c:	1200000b 	beqz	s0,800009ac <putstring+0x6c>
80000980:	00000000 	nop
80000984:	1612fff9 	bne	s0,s2,8000096c <putstring+0x2c>
80000988:	26310001 	addiu	s1,s1,1
8000098c:	0c000238 	jal	800008e0 <putchar>
80000990:	2404000d 	li	a0,13
80000994:	0c000238 	jal	800008e0 <putchar>
80000998:	02002025 	move	a0,s0
8000099c:	82300000 	lb	s0,0(s1)
800009a0:	00000000 	nop
800009a4:	1600fff7 	bnez	s0,80000984 <putstring+0x44>
800009a8:	00000000 	nop
800009ac:	8fbf001c 	lw	ra,28(sp)
800009b0:	8fb20018 	lw	s2,24(sp)
800009b4:	8fb10014 	lw	s1,20(sp)
800009b8:	8fb00010 	lw	s0,16(sp)
800009bc:	00001025 	move	v0,zero
800009c0:	03e00008 	jr	ra
800009c4:	27bd0020 	addiu	sp,sp,32

800009c8 <puts>:
puts():
800009c8:	27bdffe8 	addiu	sp,sp,-24
800009cc:	afbf0014 	sw	ra,20(sp)
800009d0:	0c000250 	jal	80000940 <putstring>
800009d4:	00000000 	nop
800009d8:	0c000238 	jal	800008e0 <putchar>
800009dc:	2404000d 	li	a0,13
800009e0:	0c000238 	jal	800008e0 <putchar>
800009e4:	2404000a 	li	a0,10
800009e8:	8fbf0014 	lw	ra,20(sp)
800009ec:	00001025 	move	v0,zero
800009f0:	03e00008 	jr	ra
800009f4:	27bd0018 	addiu	sp,sp,24
	...

80000a00 <_get_count>:
_get_count():
80000a00:	3c02a400 	lui	v0,0xa400
80000a04:	8c420004 	lw	v0,4(v0)
80000a08:	03e00008 	jr	ra
80000a0c:	00000000 	nop

80000a10 <get_count>:
get_count():
80000a10:	3c02a400 	lui	v0,0xa400
80000a14:	8c420004 	lw	v0,4(v0)
80000a18:	03e00008 	jr	ra
80000a1c:	00000000 	nop

80000a20 <clock_gettime>:
clock_gettime():
80000a20:	3c02a400 	lui	v0,0xa400
80000a24:	8c440004 	lw	a0,4(v0)
80000a28:	240203e8 	li	v0,1000
80000a2c:	14400002 	bnez	v0,80000a38 <clock_gettime+0x18>
80000a30:	0082001b 	divu	zero,a0,v0
80000a34:	0007000d 	break	0x7
80000a38:	00043840 	sll	a3,a0,0x1
80000a3c:	27bdffe8 	addiu	sp,sp,-24
80000a40:	00a04025 	move	t0,a1
80000a44:	afbf0014 	sw	ra,20(sp)
80000a48:	aca00000 	sw	zero,0(a1)
80000a4c:	3c048000 	lui	a0,0x8000
80000a50:	00003025 	move	a2,zero
80000a54:	24840df0 	addiu	a0,a0,3568
80000a58:	00001812 	mflo	v1
80000a5c:	00031840 	sll	v1,v1,0x1
80000a60:	00000000 	nop
80000a64:	14400002 	bnez	v0,80000a70 <clock_gettime+0x50>
80000a68:	0062001b 	divu	zero,v1,v0
80000a6c:	0007000d 	break	0x7
80000a70:	00004810 	mfhi	t1
80000a74:	ad090008 	sw	t1,8(t0)
80000a78:	00001812 	mflo	v1
	...
80000a84:	14400002 	bnez	v0,80000a90 <clock_gettime+0x70>
80000a88:	00e2001b 	divu	zero,a3,v0
80000a8c:	0007000d 	break	0x7
80000a90:	00002810 	mfhi	a1
80000a94:	ad050004 	sw	a1,4(t0)
80000a98:	00000000 	nop
80000a9c:	14400002 	bnez	v0,80000aa8 <clock_gettime+0x88>
80000aa0:	0062001b 	divu	zero,v1,v0
80000aa4:	0007000d 	break	0x7
80000aa8:	00001010 	mfhi	v0
80000aac:	0c0001a8 	jal	800006a0 <printf>
80000ab0:	ad02000c 	sw	v0,12(t0)
80000ab4:	8fbf0014 	lw	ra,20(sp)
80000ab8:	00001025 	move	v0,zero
80000abc:	03e00008 	jr	ra
80000ac0:	27bd0018 	addiu	sp,sp,24

80000ac4 <get_clock>:
get_clock():
80000ac4:	3c02a400 	lui	v0,0xa400
80000ac8:	8c420004 	lw	v0,4(v0)
80000acc:	03e00008 	jr	ra
80000ad0:	00021040 	sll	v0,v0,0x1

80000ad4 <get_us>:
get_us():
80000ad4:	3c02a400 	lui	v0,0xa400
80000ad8:	8c420000 	lw	v0,0(v0)
80000adc:	03e00008 	jr	ra
80000ae0:	00000000 	nop

80000ae4 <get_ns>:
get_ns():
80000ae4:	3c02a400 	lui	v0,0xa400
80000ae8:	8c430000 	lw	v1,0(v0)
80000aec:	00000000 	nop
80000af0:	00031140 	sll	v0,v1,0x5
80000af4:	00431023 	subu	v0,v0,v1
80000af8:	00021080 	sll	v0,v0,0x2
80000afc:	00431021 	addu	v0,v0,v1
80000b00:	03e00008 	jr	ra
80000b04:	000210c0 	sll	v0,v0,0x3
	...

80000b10 <printbase>:
printbase():
80000b10:	27bdffa0 	addiu	sp,sp,-96
80000b14:	afb00054 	sw	s0,84(sp)
80000b18:	afbf005c 	sw	ra,92(sp)
80000b1c:	afb10058 	sw	s1,88(sp)
80000b20:	10e00003 	beqz	a3,80000b30 <printbase+0x20>
80000b24:	00808025 	move	s0,a0
80000b28:	04800032 	bltz	a0,80000bf4 <printbase+0xe4>
80000b2c:	2404002d 	li	a0,45
80000b30:	12000038 	beqz	s0,80000c14 <printbase+0x104>
80000b34:	27a20010 	addiu	v0,sp,16
80000b38:	24070001 	li	a3,1
80000b3c:	00e23823 	subu	a3,a3,v0
80000b40:	14c00002 	bnez	a2,80000b4c <printbase+0x3c>
80000b44:	0206001b 	divu	zero,s0,a2
80000b48:	0007000d 	break	0x7
80000b4c:	00e28821 	addu	s1,a3,v0
80000b50:	0206202b 	sltu	a0,s0,a2
80000b54:	24420001 	addiu	v0,v0,1
80000b58:	00001810 	mfhi	v1
80000b5c:	00008012 	mflo	s0
80000b60:	1080fff7 	beqz	a0,80000b40 <printbase+0x30>
80000b64:	a043ffff 	sb	v1,-1(v0)
80000b68:	00b1102a 	slt	v0,a1,s1
80000b6c:	1440001f 	bnez	v0,80000bec <printbase+0xdc>
80000b70:	00000000 	nop
80000b74:	1000000b 	b	80000ba4 <printbase+0x94>
80000b78:	00a08025 	move	s0,a1
80000b7c:	8064ffff 	lb	a0,-1(v1)
80000b80:	00000000 	nop
80000b84:	2882000a 	slti	v0,a0,10
80000b88:	10400016 	beqz	v0,80000be4 <printbase+0xd4>
80000b8c:	00000000 	nop
80000b90:	24840030 	addiu	a0,a0,48
80000b94:	0c000238 	jal	800008e0 <putchar>
80000b98:	2610ffff 	addiu	s0,s0,-1
80000b9c:	1200000b 	beqz	s0,80000bcc <printbase+0xbc>
80000ba0:	00000000 	nop
80000ba4:	27a20010 	addiu	v0,sp,16
80000ba8:	00501821 	addu	v1,v0,s0
80000bac:	0230102a 	slt	v0,s1,s0
80000bb0:	1040fff2 	beqz	v0,80000b7c <printbase+0x6c>
80000bb4:	00000000 	nop
80000bb8:	2610ffff 	addiu	s0,s0,-1
80000bbc:	0c000238 	jal	800008e0 <putchar>
80000bc0:	24040030 	li	a0,48
80000bc4:	1600fff8 	bnez	s0,80000ba8 <printbase+0x98>
80000bc8:	27a20010 	addiu	v0,sp,16
80000bcc:	8fbf005c 	lw	ra,92(sp)
80000bd0:	8fb10058 	lw	s1,88(sp)
80000bd4:	8fb00054 	lw	s0,84(sp)
80000bd8:	00001025 	move	v0,zero
80000bdc:	03e00008 	jr	ra
80000be0:	27bd0060 	addiu	sp,sp,96
80000be4:	1000ffeb 	b	80000b94 <printbase+0x84>
80000be8:	24840057 	addiu	a0,a0,87
80000bec:	1000ffe1 	b	80000b74 <printbase+0x64>
80000bf0:	02202825 	move	a1,s1
80000bf4:	afa60068 	sw	a2,104(sp)
80000bf8:	afa50064 	sw	a1,100(sp)
80000bfc:	0c000238 	jal	800008e0 <putchar>
80000c00:	00108023 	negu	s0,s0
80000c04:	8fa50064 	lw	a1,100(sp)
80000c08:	8fa60068 	lw	a2,104(sp)
80000c0c:	1000ffca 	b	80000b38 <printbase+0x28>
80000c10:	27a20010 	addiu	v0,sp,16
80000c14:	18a0ffed 	blez	a1,80000bcc <printbase+0xbc>
80000c18:	00008825 	move	s1,zero
80000c1c:	1000ffe1 	b	80000ba4 <printbase+0x94>
80000c20:	00a08025 	move	s0,a1
	...
80000c30:	65727473 	0x65727473
80000c34:	63206d61 	0x63206d61
80000c38:	2079706f 	addi	t9,v1,28783
80000c3c:	4f525245 	c3	0x1525245
80000c40:	00002152 	0x2152
80000c44:	656d6954 	0x656d6954
80000c48:	7525203a 	jalx	849480e8 <_stack+0x4847108>
80000c4c:	63796320 	0x63796320
80000c50:	2c73656c 	sltiu	s3,v1,25964
80000c54:	20752520 	addi	s5,v1,9504
80000c58:	00007375 	0x7375
80000c5c:	72656854 	0x72656854
80000c60:	73692065 	0x73692065
80000c64:	206e6120 	addi	t6,v1,24864
80000c68:	65637865 	0x65637865
80000c6c:	6f697470 	0x6f697470
80000c70:	0a21216e 	j	888485b8 <_stack+0x87475d8>
80000c74:	00000000 	nop
80000c78:	20656854 	addi	a1,v1,26708
80000c7c:	20637065 	addi	v1,v1,28773
80000c80:	25207369 	addiu	zero,t1,29545
80000c84:	00000a78 	0xa78
80000c88:	20656854 	addi	a1,v1,26708
80000c8c:	73756163 	0x73756163
80000c90:	73692065 	0x73692065
80000c94:	0a782520 	j	89e09480 <_stack+0x9d084a0>
80000c98:	00000000 	nop
80000c9c:	00000000 	nop
80000ca0:	800008cc 	lb	zero,2252(zero)
80000ca4:	800007ec 	lb	zero,2028(zero)
80000ca8:	800007ec 	lb	zero,2028(zero)
80000cac:	800007ec 	lb	zero,2028(zero)
80000cb0:	800007ec 	lb	zero,2028(zero)
80000cb4:	800007ec 	lb	zero,2028(zero)
80000cb8:	800007ec 	lb	zero,2028(zero)
80000cbc:	800007ec 	lb	zero,2028(zero)
80000cc0:	800007ec 	lb	zero,2028(zero)
80000cc4:	800007ec 	lb	zero,2028(zero)
80000cc8:	800007ec 	lb	zero,2028(zero)
80000ccc:	80000788 	lb	zero,1928(zero)
80000cd0:	80000794 	lb	zero,1940(zero)
80000cd4:	80000794 	lb	zero,1940(zero)
80000cd8:	80000794 	lb	zero,1940(zero)
80000cdc:	80000794 	lb	zero,1940(zero)
80000ce0:	80000794 	lb	zero,1940(zero)
80000ce4:	80000794 	lb	zero,1940(zero)
80000ce8:	80000794 	lb	zero,1940(zero)
80000cec:	80000794 	lb	zero,1940(zero)
80000cf0:	80000794 	lb	zero,1940(zero)
80000cf4:	800007ec 	lb	zero,2028(zero)
80000cf8:	800007ec 	lb	zero,2028(zero)
80000cfc:	800007ec 	lb	zero,2028(zero)
80000d00:	800007ec 	lb	zero,2028(zero)
80000d04:	800007ec 	lb	zero,2028(zero)
80000d08:	800007ec 	lb	zero,2028(zero)
80000d0c:	800007ec 	lb	zero,2028(zero)
80000d10:	800007ec 	lb	zero,2028(zero)
80000d14:	800007ec 	lb	zero,2028(zero)
80000d18:	800007ec 	lb	zero,2028(zero)
80000d1c:	800007ec 	lb	zero,2028(zero)
80000d20:	800007ec 	lb	zero,2028(zero)
80000d24:	800007ec 	lb	zero,2028(zero)
80000d28:	800007ec 	lb	zero,2028(zero)
80000d2c:	800007ec 	lb	zero,2028(zero)
80000d30:	800007ec 	lb	zero,2028(zero)
80000d34:	800007ec 	lb	zero,2028(zero)
80000d38:	800007ec 	lb	zero,2028(zero)
80000d3c:	800007ec 	lb	zero,2028(zero)
80000d40:	800007ec 	lb	zero,2028(zero)
80000d44:	800007ec 	lb	zero,2028(zero)
80000d48:	800007ec 	lb	zero,2028(zero)
80000d4c:	800007ec 	lb	zero,2028(zero)
80000d50:	800007ec 	lb	zero,2028(zero)
80000d54:	800007ec 	lb	zero,2028(zero)
80000d58:	800007ec 	lb	zero,2028(zero)
80000d5c:	800007ec 	lb	zero,2028(zero)
80000d60:	800007ec 	lb	zero,2028(zero)
80000d64:	800007ec 	lb	zero,2028(zero)
80000d68:	800007ec 	lb	zero,2028(zero)
80000d6c:	800007ec 	lb	zero,2028(zero)
80000d70:	800007ec 	lb	zero,2028(zero)
80000d74:	800007ec 	lb	zero,2028(zero)
80000d78:	800007ec 	lb	zero,2028(zero)
80000d7c:	800007ec 	lb	zero,2028(zero)
80000d80:	800007ec 	lb	zero,2028(zero)
80000d84:	800007ec 	lb	zero,2028(zero)
80000d88:	800007ec 	lb	zero,2028(zero)
80000d8c:	800007ec 	lb	zero,2028(zero)
80000d90:	800007ec 	lb	zero,2028(zero)
80000d94:	8000085c 	lb	zero,2140(zero)
80000d98:	8000082c 	lb	zero,2092(zero)
80000d9c:	80000840 	lb	zero,2112(zero)
80000da0:	800007ec 	lb	zero,2028(zero)
80000da4:	800007ec 	lb	zero,2028(zero)
80000da8:	800007ec 	lb	zero,2028(zero)
80000dac:	800007ec 	lb	zero,2028(zero)
80000db0:	800007ec 	lb	zero,2028(zero)
80000db4:	800007ec 	lb	zero,2028(zero)
80000db8:	800007ec 	lb	zero,2028(zero)
80000dbc:	80000894 	lb	zero,2196(zero)
80000dc0:	800007ec 	lb	zero,2028(zero)
80000dc4:	800007ec 	lb	zero,2028(zero)
80000dc8:	800008b0 	lb	zero,2224(zero)
80000dcc:	800007fc 	lb	zero,2044(zero)
80000dd0:	800007ec 	lb	zero,2028(zero)
80000dd4:	800007ec 	lb	zero,2028(zero)
80000dd8:	80000818 	lb	zero,2072(zero)
80000ddc:	800007ec 	lb	zero,2028(zero)
80000de0:	80000878 	lb	zero,2168(zero)
80000de4:	800007ec 	lb	zero,2028(zero)
80000de8:	800007ec 	lb	zero,2028(zero)
80000dec:	800007fc 	lb	zero,2044(zero)
80000df0:	636f6c63 	0x636f6c63
80000df4:	736e206b 	0x736e206b
80000df8:	2c64253d 	sltiu	a0,v1,9533
80000dfc:	3d636573 	0x3d636573
80000e00:	000a6425 	0xa6425
80000e04:	b0000602 	0xb0000602
	...
80000e20:	00010000 	sll	zero,at,0x0
80000e24:	03000001 	0x3000001
	...
